
C:/Users/Mitch/GitRepos/lodgenet-gc-adapter-rp2040/build/lodgenet_gc_adapter_rp2040.elf:     file format elf32-littlearm

Sections:
Idx Name          Size      VMA       LMA       File off  Algn
  0 .boot2        00000100  10000000  10000000  00001000  2**0
                  CONTENTS, ALLOC, LOAD, READONLY, CODE
  1 .text         00009a10  10000100  10000100  00001100  2**3
                  CONTENTS, ALLOC, LOAD, READONLY, CODE
  2 .rodata       00002234  10009b10  10009b10  0000ab10  2**3
                  CONTENTS, ALLOC, LOAD, READONLY, DATA
  3 .binary_info  00000020  1000bd44  1000bd44  0000cd44  2**2
                  CONTENTS, ALLOC, LOAD, READONLY, DATA
  4 .ram_vector_table 000000c0  20000000  20000000  0000e000  2**2
                  ALLOC
  5 .data         00000e50  200000c0  1000bd64  0000d0c0  2**4
                  CONTENTS, ALLOC, LOAD, READONLY, CODE
  6 .uninitialized_data 00000020  20000f10  1000cbb4  0000df10  2**3
                  ALLOC
  7 .scratch_x    00000000  20040000  20040000  0000df10  2**0
                  CONTENTS
  8 .scratch_y    00000000  20041000  20041000  0000df10  2**0
                  CONTENTS
  9 .bss          0000180c  20000f30  20000f30  0000e000  2**3
                  ALLOC
 10 .heap         00000800  2000273c  2000273c  0000df10  2**2
                  CONTENTS, READONLY
 11 .stack1_dummy 00000800  20040000  20040000  0000e000  2**2
                  ALLOC
 12 .stack_dummy  00000800  20041000  20041000  0000e720  2**5
                  CONTENTS, READONLY
 13 .ARM.attributes 00000028  00000000  00000000  0000ef20  2**0
                  CONTENTS, READONLY
 14 .comment      00000049  00000000  00000000  0000ef48  2**0
                  CONTENTS, READONLY
 15 .debug_info   00032905  00000000  00000000  0000ef91  2**0
                  CONTENTS, READONLY, DEBUGGING, OCTETS
 16 .debug_abbrev 00009cac  00000000  00000000  00041896  2**0
                  CONTENTS, READONLY, DEBUGGING, OCTETS
 17 .debug_loc    0001ef01  00000000  00000000  0004b542  2**0
                  CONTENTS, READONLY, DEBUGGING, OCTETS
 18 .debug_aranges 00001bb8  00000000  00000000  0006a448  2**3
                  CONTENTS, READONLY, DEBUGGING, OCTETS
 19 .debug_ranges 00005590  00000000  00000000  0006c000  2**3
                  CONTENTS, READONLY, DEBUGGING, OCTETS
 20 .debug_line   00020926  00000000  00000000  00071590  2**0
                  CONTENTS, READONLY, DEBUGGING, OCTETS
 21 .debug_str    0000999f  00000000  00000000  00091eb6  2**0
                  CONTENTS, READONLY, DEBUGGING, OCTETS
 22 .debug_frame  00003b9c  00000000  00000000  0009b858  2**2
                  CONTENTS, READONLY, DEBUGGING, OCTETS

C:/Users/Mitch/GitRepos/lodgenet-gc-adapter-rp2040/build/lodgenet_gc_adapter_rp2040.elf:     file format elf32-littlearm


Disassembly of section .boot2:

10000000 <__boot2_start__>:
10000000:	4b32b500 	.word	0x4b32b500
10000004:	60582021 	.word	0x60582021
10000008:	21026898 	.word	0x21026898
1000000c:	60984388 	.word	0x60984388
10000010:	611860d8 	.word	0x611860d8
10000014:	4b2e6158 	.word	0x4b2e6158
10000018:	60992100 	.word	0x60992100
1000001c:	61592102 	.word	0x61592102
10000020:	22f02101 	.word	0x22f02101
10000024:	492b5099 	.word	0x492b5099
10000028:	21016019 	.word	0x21016019
1000002c:	20356099 	.word	0x20356099
10000030:	f844f000 	.word	0xf844f000
10000034:	42902202 	.word	0x42902202
10000038:	2106d014 	.word	0x2106d014
1000003c:	f0006619 	.word	0xf0006619
10000040:	6e19f834 	.word	0x6e19f834
10000044:	66192101 	.word	0x66192101
10000048:	66182000 	.word	0x66182000
1000004c:	f000661a 	.word	0xf000661a
10000050:	6e19f82c 	.word	0x6e19f82c
10000054:	6e196e19 	.word	0x6e196e19
10000058:	f0002005 	.word	0xf0002005
1000005c:	2101f82f 	.word	0x2101f82f
10000060:	d1f94208 	.word	0xd1f94208
10000064:	60992100 	.word	0x60992100
10000068:	6019491b 	.word	0x6019491b
1000006c:	60592100 	.word	0x60592100
10000070:	481b491a 	.word	0x481b491a
10000074:	21016001 	.word	0x21016001
10000078:	21eb6099 	.word	0x21eb6099
1000007c:	21a06619 	.word	0x21a06619
10000080:	f0006619 	.word	0xf0006619
10000084:	2100f812 	.word	0x2100f812
10000088:	49166099 	.word	0x49166099
1000008c:	60014814 	.word	0x60014814
10000090:	60992101 	.word	0x60992101
10000094:	2800bc01 	.word	0x2800bc01
10000098:	4700d000 	.word	0x4700d000
1000009c:	49134812 	.word	0x49134812
100000a0:	c8036008 	.word	0xc8036008
100000a4:	8808f380 	.word	0x8808f380
100000a8:	b5034708 	.word	0xb5034708
100000ac:	20046a99 	.word	0x20046a99
100000b0:	d0fb4201 	.word	0xd0fb4201
100000b4:	42012001 	.word	0x42012001
100000b8:	bd03d1f8 	.word	0xbd03d1f8
100000bc:	6618b502 	.word	0x6618b502
100000c0:	f7ff6618 	.word	0xf7ff6618
100000c4:	6e18fff2 	.word	0x6e18fff2
100000c8:	bd026e18 	.word	0xbd026e18
100000cc:	40020000 	.word	0x40020000
100000d0:	18000000 	.word	0x18000000
100000d4:	00070000 	.word	0x00070000
100000d8:	005f0300 	.word	0x005f0300
100000dc:	00002221 	.word	0x00002221
100000e0:	180000f4 	.word	0x180000f4
100000e4:	a0002022 	.word	0xa0002022
100000e8:	10000100 	.word	0x10000100
100000ec:	e000ed08 	.word	0xe000ed08
	...
100000fc:	7a4eb274 	.word	0x7a4eb274

Disassembly of section .text:

10000100 <__VECTOR_TABLE>:
10000100:	20042000 	.word	0x20042000
10000104:	100001f7 	.word	0x100001f7
10000108:	100001c3 	.word	0x100001c3
1000010c:	100001c5 	.word	0x100001c5
10000110:	100001c1 	.word	0x100001c1
10000114:	100001c1 	.word	0x100001c1
10000118:	100001c1 	.word	0x100001c1
1000011c:	100001c1 	.word	0x100001c1
10000120:	100001c1 	.word	0x100001c1
10000124:	100001c1 	.word	0x100001c1
10000128:	100001c1 	.word	0x100001c1
1000012c:	100001c7 	.word	0x100001c7
10000130:	100001c1 	.word	0x100001c1
10000134:	100001c1 	.word	0x100001c1
10000138:	100001c9 	.word	0x100001c9
1000013c:	100001cb 	.word	0x100001cb
10000140:	100001cd 	.word	0x100001cd
10000144:	100001cd 	.word	0x100001cd
10000148:	100001cd 	.word	0x100001cd
1000014c:	100001cd 	.word	0x100001cd
10000150:	100001cd 	.word	0x100001cd
10000154:	100001cd 	.word	0x100001cd
10000158:	100001cd 	.word	0x100001cd
1000015c:	100001cd 	.word	0x100001cd
10000160:	100001cd 	.word	0x100001cd
10000164:	100001cd 	.word	0x100001cd
10000168:	100001cd 	.word	0x100001cd
1000016c:	100001cd 	.word	0x100001cd
10000170:	100001cd 	.word	0x100001cd
10000174:	100001cd 	.word	0x100001cd
10000178:	100001cd 	.word	0x100001cd
1000017c:	100001cd 	.word	0x100001cd
10000180:	100001cd 	.word	0x100001cd
10000184:	100001cd 	.word	0x100001cd
10000188:	100001cd 	.word	0x100001cd
1000018c:	100001cd 	.word	0x100001cd
10000190:	100001cd 	.word	0x100001cd
10000194:	100001cd 	.word	0x100001cd
10000198:	100001cd 	.word	0x100001cd
1000019c:	100001cd 	.word	0x100001cd
100001a0:	100001cd 	.word	0x100001cd
100001a4:	100001cd 	.word	0x100001cd
100001a8:	100001cd 	.word	0x100001cd
100001ac:	100001cd 	.word	0x100001cd
100001b0:	100001cd 	.word	0x100001cd
100001b4:	100001cd 	.word	0x100001cd
100001b8:	100001cd 	.word	0x100001cd
100001bc:	100001cd 	.word	0x100001cd

100001c0 <isr_invalid>:
100001c0:	be00      	bkpt	0x0000

100001c2 <isr_nmi>:
100001c2:	be00      	bkpt	0x0000

100001c4 <isr_hardfault>:
100001c4:	be00      	bkpt	0x0000

100001c6 <isr_svcall>:
100001c6:	be00      	bkpt	0x0000

100001c8 <isr_pendsv>:
100001c8:	be00      	bkpt	0x0000

100001ca <isr_systick>:
100001ca:	be00      	bkpt	0x0000

100001cc <__unhandled_user_irq>:
100001cc:	f3ef 8005 	mrs	r0, IPSR
100001d0:	3810      	subs	r0, #16

100001d2 <unhandled_user_irq_num_in_r0>:
100001d2:	be00      	bkpt	0x0000

100001d4 <binary_info_header>:
100001d4:	7188ebf2 	.word	0x7188ebf2
100001d8:	1000bd44 	.word	0x1000bd44
100001dc:	1000bd64 	.word	0x1000bd64
100001e0:	10000234 	.word	0x10000234
100001e4:	e71aa390 	.word	0xe71aa390

100001e8 <_entry_point>:
100001e8:	2000      	movs	r0, #0
100001ea:	491f      	ldr	r1, [pc, #124]	; (10000268 <hold_non_core0_in_bootrom+0xa>)
100001ec:	6008      	str	r0, [r1, #0]
100001ee:	c806      	ldmia	r0!, {r1, r2}
100001f0:	f381 8808 	msr	MSP, r1
100001f4:	4710      	bx	r2

100001f6 <_reset_handler>:
100001f6:	481d      	ldr	r0, [pc, #116]	; (1000026c <hold_non_core0_in_bootrom+0xe>)
100001f8:	6800      	ldr	r0, [r0, #0]
100001fa:	2800      	cmp	r0, #0
100001fc:	d12f      	bne.n	1000025e <hold_non_core0_in_bootrom>
100001fe:	a40d      	add	r4, pc, #52	; (adr r4, 10000234 <data_cpy_table>)
10000200:	cc0e      	ldmia	r4!, {r1, r2, r3}
10000202:	2900      	cmp	r1, #0
10000204:	d002      	beq.n	1000020c <_reset_handler+0x16>
10000206:	f000 f812 	bl	1000022e <data_cpy>
1000020a:	e7f9      	b.n	10000200 <_reset_handler+0xa>
1000020c:	4918      	ldr	r1, [pc, #96]	; (10000270 <hold_non_core0_in_bootrom+0x12>)
1000020e:	4a19      	ldr	r2, [pc, #100]	; (10000274 <hold_non_core0_in_bootrom+0x16>)
10000210:	2000      	movs	r0, #0
10000212:	e000      	b.n	10000216 <bss_fill_test>

10000214 <bss_fill_loop>:
10000214:	c101      	stmia	r1!, {r0}

10000216 <bss_fill_test>:
10000216:	4291      	cmp	r1, r2
10000218:	d1fc      	bne.n	10000214 <bss_fill_loop>

1000021a <platform_entry>:
1000021a:	4917      	ldr	r1, [pc, #92]	; (10000278 <hold_non_core0_in_bootrom+0x1a>)
1000021c:	4788      	blx	r1
1000021e:	4917      	ldr	r1, [pc, #92]	; (1000027c <hold_non_core0_in_bootrom+0x1e>)
10000220:	4788      	blx	r1
10000222:	4917      	ldr	r1, [pc, #92]	; (10000280 <hold_non_core0_in_bootrom+0x22>)
10000224:	4788      	blx	r1
10000226:	be00      	bkpt	0x0000
10000228:	e7fd      	b.n	10000226 <platform_entry+0xc>

1000022a <data_cpy_loop>:
1000022a:	c901      	ldmia	r1!, {r0}
1000022c:	c201      	stmia	r2!, {r0}

1000022e <data_cpy>:
1000022e:	429a      	cmp	r2, r3
10000230:	d3fb      	bcc.n	1000022a <data_cpy_loop>
10000232:	4770      	bx	lr

10000234 <data_cpy_table>:
10000234:	1000bd64 	.word	0x1000bd64
10000238:	200000c0 	.word	0x200000c0
1000023c:	20000f10 	.word	0x20000f10
10000240:	1000cbb4 	.word	0x1000cbb4
10000244:	20040000 	.word	0x20040000
10000248:	20040000 	.word	0x20040000
1000024c:	1000cbb4 	.word	0x1000cbb4
10000250:	20041000 	.word	0x20041000
10000254:	20041000 	.word	0x20041000
10000258:	00000000 	.word	0x00000000
1000025c:	4770      	bx	lr

1000025e <hold_non_core0_in_bootrom>:
1000025e:	4809      	ldr	r0, [pc, #36]	; (10000284 <hold_non_core0_in_bootrom+0x26>)
10000260:	f005 fb8a 	bl	10005978 <rom_func_lookup>
10000264:	4700      	bx	r0
10000266:	0000      	.short	0x0000
10000268:	e000ed08 	.word	0xe000ed08
1000026c:	d0000000 	.word	0xd0000000
10000270:	20000f30 	.word	0x20000f30
10000274:	2000273c 	.word	0x2000273c
10000278:	10004701 	.word	0x10004701
1000027c:	10000597 	.word	0x10000597
10000280:	100046bd 	.word	0x100046bd
10000284:	00005657 	.word	0x00005657

10000288 <__bi_50>:
10000288:	50520006 5360b3ab 1000b618              ..RP..`S....

10000294 <__bi_38>:
10000294:	50520006 02031c86 1000b628              ..RP....(...

100002a0 <__bi_30>:
100002a0:	50520006 9da22254 1000b644              ..RPT"..D...

100002ac <__bi_22>:
100002ac:	50520005 68f465de 1000cbb4              ..RP.e.h....

100002b8 <_init>:
100002b8:	b5f8      	push	{r3, r4, r5, r6, r7, lr}
100002ba:	46c0      	nop			; (mov r8, r8)

100002bc <__do_global_dtors_aux>:
100002bc:	b510      	push	{r4, lr}
100002be:	4c06      	ldr	r4, [pc, #24]	; (100002d8 <__do_global_dtors_aux+0x1c>)
100002c0:	7823      	ldrb	r3, [r4, #0]
100002c2:	2b00      	cmp	r3, #0
100002c4:	d107      	bne.n	100002d6 <__do_global_dtors_aux+0x1a>
100002c6:	4b05      	ldr	r3, [pc, #20]	; (100002dc <__do_global_dtors_aux+0x20>)
100002c8:	2b00      	cmp	r3, #0
100002ca:	d002      	beq.n	100002d2 <__do_global_dtors_aux+0x16>
100002cc:	4804      	ldr	r0, [pc, #16]	; (100002e0 <__do_global_dtors_aux+0x24>)
100002ce:	e000      	b.n	100002d2 <__do_global_dtors_aux+0x16>
100002d0:	bf00      	nop
100002d2:	2301      	movs	r3, #1
100002d4:	7023      	strb	r3, [r4, #0]
100002d6:	bd10      	pop	{r4, pc}
100002d8:	20001038 	.word	0x20001038
100002dc:	00000000 	.word	0x00000000
100002e0:	10009b10 	.word	0x10009b10

100002e4 <frame_dummy>:
100002e4:	4b04      	ldr	r3, [pc, #16]	; (100002f8 <frame_dummy+0x14>)
100002e6:	b510      	push	{r4, lr}
100002e8:	2b00      	cmp	r3, #0
100002ea:	d003      	beq.n	100002f4 <frame_dummy+0x10>
100002ec:	4903      	ldr	r1, [pc, #12]	; (100002fc <frame_dummy+0x18>)
100002ee:	4804      	ldr	r0, [pc, #16]	; (10000300 <frame_dummy+0x1c>)
100002f0:	e000      	b.n	100002f4 <frame_dummy+0x10>
100002f2:	bf00      	nop
100002f4:	bd10      	pop	{r4, pc}
100002f6:	46c0      	nop			; (mov r8, r8)
100002f8:	00000000 	.word	0x00000000
100002fc:	2000103c 	.word	0x2000103c
10000300:	10009b10 	.word	0x10009b10

10000304 <cb_adapter_hardware_test>:
10000304:	2001      	movs	r0, #1
10000306:	4770      	bx	lr

10000308 <joybus_itf_poll>:
10000308:	b5f8      	push	{r3, r4, r5, r6, r7, lr}
1000030a:	46de      	mov	lr, fp
1000030c:	4657      	mov	r7, sl
1000030e:	464e      	mov	r6, r9
10000310:	4645      	mov	r5, r8
10000312:	b5e0      	push	{r5, r6, r7, lr}
10000314:	4b84      	ldr	r3, [pc, #528]	; (10000528 <joybus_itf_poll+0x220>)
10000316:	6003      	str	r3, [r0, #0]
10000318:	4b84      	ldr	r3, [pc, #528]	; (1000052c <joybus_itf_poll+0x224>)
1000031a:	2200      	movs	r2, #0
1000031c:	701a      	strb	r2, [r3, #0]
1000031e:	705a      	strb	r2, [r3, #1]
10000320:	719a      	strb	r2, [r3, #6]
10000322:	71da      	strb	r2, [r3, #7]
10000324:	709a      	strb	r2, [r3, #2]
10000326:	70da      	strb	r2, [r3, #3]
10000328:	711a      	strb	r2, [r3, #4]
1000032a:	715a      	strb	r2, [r3, #5]
1000032c:	2500      	movs	r5, #0
1000032e:	e00a      	b.n	10000346 <joybus_itf_poll+0x3e>
10000330:	0013      	movs	r3, r2
10000332:	40b3      	lsls	r3, r6
10000334:	487d      	ldr	r0, [pc, #500]	; (1000052c <joybus_itf_poll+0x224>)
10000336:	7801      	ldrb	r1, [r0, #0]
10000338:	430b      	orrs	r3, r1
1000033a:	7003      	strb	r3, [r0, #0]
1000033c:	2035      	movs	r0, #53	; 0x35
1000033e:	2100      	movs	r1, #0
10000340:	f003 fc16 	bl	10003b70 <sleep_us>
10000344:	3501      	adds	r5, #1
10000346:	2d41      	cmp	r5, #65	; 0x41
10000348:	d85f      	bhi.n	1000040a <joybus_itf_poll+0x102>
1000034a:	1e6c      	subs	r4, r5, #1
1000034c:	17e3      	asrs	r3, r4, #31
1000034e:	0f5b      	lsrs	r3, r3, #29
10000350:	18e2      	adds	r2, r4, r3
10000352:	2607      	movs	r6, #7
10000354:	4016      	ands	r6, r2
10000356:	1af6      	subs	r6, r6, r3
10000358:	27d0      	movs	r7, #208	; 0xd0
1000035a:	063f      	lsls	r7, r7, #24
1000035c:	2380      	movs	r3, #128	; 0x80
1000035e:	055b      	lsls	r3, r3, #21
10000360:	4698      	mov	r8, r3
10000362:	61bb      	str	r3, [r7, #24]
10000364:	2035      	movs	r0, #53	; 0x35
10000366:	2100      	movs	r1, #0
10000368:	f003 fc02 	bl	10003b70 <sleep_us>
1000036c:	4643      	mov	r3, r8
1000036e:	617b      	str	r3, [r7, #20]
10000370:	2005      	movs	r0, #5
10000372:	2100      	movs	r1, #0
10000374:	f003 fbfc 	bl	10003b70 <sleep_us>
10000378:	687a      	ldr	r2, [r7, #4]
1000037a:	0ed2      	lsrs	r2, r2, #27
1000037c:	2301      	movs	r3, #1
1000037e:	401a      	ands	r2, r3
10000380:	4253      	negs	r3, r2
10000382:	415a      	adcs	r2, r3
10000384:	2c3f      	cmp	r4, #63	; 0x3f
10000386:	d8d9      	bhi.n	1000033c <joybus_itf_poll+0x34>
10000388:	00a4      	lsls	r4, r4, #2
1000038a:	4969      	ldr	r1, [pc, #420]	; (10000530 <joybus_itf_poll+0x228>)
1000038c:	590b      	ldr	r3, [r1, r4]
1000038e:	469f      	mov	pc, r3
10000390:	0013      	movs	r3, r2
10000392:	40b3      	lsls	r3, r6
10000394:	4865      	ldr	r0, [pc, #404]	; (1000052c <joybus_itf_poll+0x224>)
10000396:	7841      	ldrb	r1, [r0, #1]
10000398:	430b      	orrs	r3, r1
1000039a:	7043      	strb	r3, [r0, #1]
1000039c:	e7ce      	b.n	1000033c <joybus_itf_poll+0x34>
1000039e:	2307      	movs	r3, #7
100003a0:	1b9b      	subs	r3, r3, r6
100003a2:	409a      	lsls	r2, r3
100003a4:	0013      	movs	r3, r2
100003a6:	4861      	ldr	r0, [pc, #388]	; (1000052c <joybus_itf_poll+0x224>)
100003a8:	7881      	ldrb	r1, [r0, #2]
100003aa:	430b      	orrs	r3, r1
100003ac:	7083      	strb	r3, [r0, #2]
100003ae:	e7c5      	b.n	1000033c <joybus_itf_poll+0x34>
100003b0:	2307      	movs	r3, #7
100003b2:	1b9b      	subs	r3, r3, r6
100003b4:	409a      	lsls	r2, r3
100003b6:	0013      	movs	r3, r2
100003b8:	485c      	ldr	r0, [pc, #368]	; (1000052c <joybus_itf_poll+0x224>)
100003ba:	78c1      	ldrb	r1, [r0, #3]
100003bc:	430b      	orrs	r3, r1
100003be:	70c3      	strb	r3, [r0, #3]
100003c0:	e7bc      	b.n	1000033c <joybus_itf_poll+0x34>
100003c2:	2307      	movs	r3, #7
100003c4:	1b9b      	subs	r3, r3, r6
100003c6:	409a      	lsls	r2, r3
100003c8:	0013      	movs	r3, r2
100003ca:	4858      	ldr	r0, [pc, #352]	; (1000052c <joybus_itf_poll+0x224>)
100003cc:	7901      	ldrb	r1, [r0, #4]
100003ce:	430b      	orrs	r3, r1
100003d0:	7103      	strb	r3, [r0, #4]
100003d2:	e7b3      	b.n	1000033c <joybus_itf_poll+0x34>
100003d4:	2307      	movs	r3, #7
100003d6:	1b9b      	subs	r3, r3, r6
100003d8:	409a      	lsls	r2, r3
100003da:	0013      	movs	r3, r2
100003dc:	4853      	ldr	r0, [pc, #332]	; (1000052c <joybus_itf_poll+0x224>)
100003de:	7941      	ldrb	r1, [r0, #5]
100003e0:	430b      	orrs	r3, r1
100003e2:	7143      	strb	r3, [r0, #5]
100003e4:	e7aa      	b.n	1000033c <joybus_itf_poll+0x34>
100003e6:	2307      	movs	r3, #7
100003e8:	1b9b      	subs	r3, r3, r6
100003ea:	409a      	lsls	r2, r3
100003ec:	0013      	movs	r3, r2
100003ee:	484f      	ldr	r0, [pc, #316]	; (1000052c <joybus_itf_poll+0x224>)
100003f0:	7981      	ldrb	r1, [r0, #6]
100003f2:	430b      	orrs	r3, r1
100003f4:	7183      	strb	r3, [r0, #6]
100003f6:	e7a1      	b.n	1000033c <joybus_itf_poll+0x34>
100003f8:	2307      	movs	r3, #7
100003fa:	1b9b      	subs	r3, r3, r6
100003fc:	409a      	lsls	r2, r3
100003fe:	0013      	movs	r3, r2
10000400:	494a      	ldr	r1, [pc, #296]	; (1000052c <joybus_itf_poll+0x224>)
10000402:	79ca      	ldrb	r2, [r1, #7]
10000404:	4313      	orrs	r3, r2
10000406:	71cb      	strb	r3, [r1, #7]
10000408:	e798      	b.n	1000033c <joybus_itf_poll+0x34>
1000040a:	4b47      	ldr	r3, [pc, #284]	; (10000528 <joybus_itf_poll+0x220>)
1000040c:	2200      	movs	r2, #0
1000040e:	609a      	str	r2, [r3, #8]
10000410:	4a46      	ldr	r2, [pc, #280]	; (1000052c <joybus_itf_poll+0x224>)
10000412:	7811      	ldrb	r1, [r2, #0]
10000414:	07c9      	lsls	r1, r1, #31
10000416:	0fc9      	lsrs	r1, r1, #31
10000418:	2001      	movs	r0, #1
1000041a:	4683      	mov	fp, r0
1000041c:	78d8      	ldrb	r0, [r3, #3]
1000041e:	465c      	mov	r4, fp
10000420:	43a0      	bics	r0, r4
10000422:	4301      	orrs	r1, r0
10000424:	70d9      	strb	r1, [r3, #3]
10000426:	7811      	ldrb	r1, [r2, #0]
10000428:	0789      	lsls	r1, r1, #30
1000042a:	0fc9      	lsrs	r1, r1, #31
1000042c:	0049      	lsls	r1, r1, #1
1000042e:	78d8      	ldrb	r0, [r3, #3]
10000430:	3401      	adds	r4, #1
10000432:	43a0      	bics	r0, r4
10000434:	4301      	orrs	r1, r0
10000436:	70d9      	strb	r1, [r3, #3]
10000438:	7851      	ldrb	r1, [r2, #1]
1000043a:	0689      	lsls	r1, r1, #26
1000043c:	0fc9      	lsrs	r1, r1, #31
1000043e:	0089      	lsls	r1, r1, #2
10000440:	78d8      	ldrb	r0, [r3, #3]
10000442:	2604      	movs	r6, #4
10000444:	43b0      	bics	r0, r6
10000446:	4301      	orrs	r1, r0
10000448:	70d9      	strb	r1, [r3, #3]
1000044a:	7851      	ldrb	r1, [r2, #1]
1000044c:	06c9      	lsls	r1, r1, #27
1000044e:	0fc9      	lsrs	r1, r1, #31
10000450:	00c9      	lsls	r1, r1, #3
10000452:	78d8      	ldrb	r0, [r3, #3]
10000454:	2708      	movs	r7, #8
10000456:	43b8      	bics	r0, r7
10000458:	4301      	orrs	r1, r0
1000045a:	70d9      	strb	r1, [r3, #3]
1000045c:	7811      	ldrb	r1, [r2, #0]
1000045e:	0748      	lsls	r0, r1, #29
10000460:	0fc0      	lsrs	r0, r0, #31
10000462:	0100      	lsls	r0, r0, #4
10000464:	4680      	mov	r8, r0
10000466:	7898      	ldrb	r0, [r3, #2]
10000468:	340e      	adds	r4, #14
1000046a:	46a4      	mov	ip, r4
1000046c:	43a0      	bics	r0, r4
1000046e:	4644      	mov	r4, r8
10000470:	4320      	orrs	r0, r4
10000472:	7098      	strb	r0, [r3, #2]
10000474:	7850      	ldrb	r0, [r2, #1]
10000476:	0704      	lsls	r4, r0, #28
10000478:	0fe4      	lsrs	r4, r4, #31
1000047a:	0164      	lsls	r4, r4, #5
1000047c:	46a1      	mov	r9, r4
1000047e:	789c      	ldrb	r4, [r3, #2]
10000480:	46a0      	mov	r8, r4
10000482:	2420      	movs	r4, #32
10000484:	46a2      	mov	sl, r4
10000486:	4644      	mov	r4, r8
10000488:	4655      	mov	r5, sl
1000048a:	43ac      	bics	r4, r5
1000048c:	46a0      	mov	r8, r4
1000048e:	464c      	mov	r4, r9
10000490:	4645      	mov	r5, r8
10000492:	432c      	orrs	r4, r5
10000494:	709c      	strb	r4, [r3, #2]
10000496:	0740      	lsls	r0, r0, #29
10000498:	0fc0      	lsrs	r0, r0, #31
1000049a:	0180      	lsls	r0, r0, #6
1000049c:	b2e4      	uxtb	r4, r4
1000049e:	46a0      	mov	r8, r4
100004a0:	2440      	movs	r4, #64	; 0x40
100004a2:	46a1      	mov	r9, r4
100004a4:	4644      	mov	r4, r8
100004a6:	464d      	mov	r5, r9
100004a8:	43ac      	bics	r4, r5
100004aa:	4320      	orrs	r0, r4
100004ac:	7098      	strb	r0, [r3, #2]
100004ae:	0709      	lsls	r1, r1, #28
100004b0:	0fc9      	lsrs	r1, r1, #31
100004b2:	0109      	lsls	r1, r1, #4
100004b4:	78d8      	ldrb	r0, [r3, #3]
100004b6:	4664      	mov	r4, ip
100004b8:	43a0      	bics	r0, r4
100004ba:	4301      	orrs	r1, r0
100004bc:	70d9      	strb	r1, [r3, #3]
100004be:	7811      	ldrb	r1, [r2, #0]
100004c0:	06c8      	lsls	r0, r1, #27
100004c2:	0fc0      	lsrs	r0, r0, #31
100004c4:	00c0      	lsls	r0, r0, #3
100004c6:	4684      	mov	ip, r0
100004c8:	7898      	ldrb	r0, [r3, #2]
100004ca:	43b8      	bics	r0, r7
100004cc:	4664      	mov	r4, ip
100004ce:	4320      	orrs	r0, r4
100004d0:	7098      	strb	r0, [r3, #2]
100004d2:	0688      	lsls	r0, r1, #26
100004d4:	0fc0      	lsrs	r0, r0, #31
100004d6:	0087      	lsls	r7, r0, #2
100004d8:	7898      	ldrb	r0, [r3, #2]
100004da:	43b0      	bics	r0, r6
100004dc:	4338      	orrs	r0, r7
100004de:	7098      	strb	r0, [r3, #2]
100004e0:	0648      	lsls	r0, r1, #25
100004e2:	0fc0      	lsrs	r0, r0, #31
100004e4:	789e      	ldrb	r6, [r3, #2]
100004e6:	465d      	mov	r5, fp
100004e8:	43ae      	bics	r6, r5
100004ea:	4330      	orrs	r0, r6
100004ec:	7098      	strb	r0, [r3, #2]
100004ee:	09c9      	lsrs	r1, r1, #7
100004f0:	0049      	lsls	r1, r1, #1
100004f2:	b2c0      	uxtb	r0, r0
100004f4:	2402      	movs	r4, #2
100004f6:	43a0      	bics	r0, r4
100004f8:	4301      	orrs	r1, r0
100004fa:	7099      	strb	r1, [r3, #2]
100004fc:	78d1      	ldrb	r1, [r2, #3]
100004fe:	43c9      	mvns	r1, r1
10000500:	7019      	strb	r1, [r3, #0]
10000502:	7891      	ldrb	r1, [r2, #2]
10000504:	43c9      	mvns	r1, r1
10000506:	7059      	strb	r1, [r3, #1]
10000508:	7951      	ldrb	r1, [r2, #5]
1000050a:	43c9      	mvns	r1, r1
1000050c:	7199      	strb	r1, [r3, #6]
1000050e:	7911      	ldrb	r1, [r2, #4]
10000510:	43c9      	mvns	r1, r1
10000512:	71d9      	strb	r1, [r3, #7]
10000514:	7991      	ldrb	r1, [r2, #6]
10000516:	7159      	strb	r1, [r3, #5]
10000518:	79d2      	ldrb	r2, [r2, #7]
1000051a:	711a      	strb	r2, [r3, #4]
1000051c:	bcf0      	pop	{r4, r5, r6, r7}
1000051e:	46bb      	mov	fp, r7
10000520:	46b2      	mov	sl, r6
10000522:	46a9      	mov	r9, r5
10000524:	46a0      	mov	r8, r4
10000526:	bdf8      	pop	{r3, r4, r5, r6, r7, pc}
10000528:	20001624 	.word	0x20001624
1000052c:	200024d4 	.word	0x200024d4
10000530:	10009b10 	.word	0x10009b10

10000534 <joybus_itf_enable_rumble>:
10000534:	4770      	bx	lr

10000536 <rgb_itf_update>:
10000536:	4770      	bx	lr

10000538 <joybus_itf_init>:
10000538:	b510      	push	{r4, lr}
1000053a:	201c      	movs	r0, #28
1000053c:	f002 f9fc 	bl	10002938 <gpio_init>
10000540:	2200      	movs	r2, #0
10000542:	2101      	movs	r1, #1
10000544:	201c      	movs	r0, #28
10000546:	f002 f9cd 	bl	100028e4 <gpio_set_pulls>
1000054a:	2101      	movs	r1, #1
1000054c:	201c      	movs	r0, #28
1000054e:	f002 f9e3 	bl	10002918 <gpio_set_drive_strength>
10000552:	24d0      	movs	r4, #208	; 0xd0
10000554:	0624      	lsls	r4, r4, #24
10000556:	2380      	movs	r3, #128	; 0x80
10000558:	055b      	lsls	r3, r3, #21
1000055a:	6263      	str	r3, [r4, #36]	; 0x24
1000055c:	6163      	str	r3, [r4, #20]
1000055e:	201b      	movs	r0, #27
10000560:	f002 f9ea 	bl	10002938 <gpio_init>
10000564:	2200      	movs	r2, #0
10000566:	2101      	movs	r1, #1
10000568:	201b      	movs	r0, #27
1000056a:	f002 f9bb 	bl	100028e4 <gpio_set_pulls>
1000056e:	2380      	movs	r3, #128	; 0x80
10000570:	051b      	lsls	r3, r3, #20
10000572:	62a3      	str	r3, [r4, #40]	; 0x28
10000574:	bd10      	pop	{r4, pc}

10000576 <rgb_itf_init>:
10000576:	b510      	push	{r4, lr}
10000578:	2019      	movs	r0, #25
1000057a:	f002 f9dd 	bl	10002938 <gpio_init>
1000057e:	2200      	movs	r2, #0
10000580:	2101      	movs	r1, #1
10000582:	2019      	movs	r0, #25
10000584:	f002 f9ae 	bl	100028e4 <gpio_set_pulls>
10000588:	23d0      	movs	r3, #208	; 0xd0
1000058a:	061b      	lsls	r3, r3, #24
1000058c:	2280      	movs	r2, #128	; 0x80
1000058e:	0492      	lsls	r2, r2, #18
10000590:	625a      	str	r2, [r3, #36]	; 0x24
10000592:	615a      	str	r2, [r3, #20]
10000594:	bd10      	pop	{r4, pc}

10000596 <main>:
10000596:	b510      	push	{r4, lr}
10000598:	f000 fb2a 	bl	10000bf0 <adapter_main_init>
1000059c:	f000 fb8c 	bl	10000cb8 <adapter_main_loop>
100005a0:	bd10      	pop	{r4, pc}
	...

100005a4 <_rgb_update_all>:
100005a4:	b510      	push	{r4, lr}
100005a6:	4802      	ldr	r0, [pc, #8]	; (100005b0 <_rgb_update_all+0xc>)
100005a8:	f7ff ffc5 	bl	10000536 <rgb_itf_update>
100005ac:	bd10      	pop	{r4, pc}
100005ae:	46c0      	nop			; (mov r8, r8)
100005b0:	20001668 	.word	0x20001668

100005b4 <_rgb_blend>:
100005b4:	b5f8      	push	{r3, r4, r5, r6, r7, lr}
100005b6:	46de      	mov	lr, fp
100005b8:	4657      	mov	r7, sl
100005ba:	464e      	mov	r6, r9
100005bc:	4645      	mov	r5, r8
100005be:	b5e0      	push	{r5, r6, r7, lr}
100005c0:	0006      	movs	r6, r0
100005c2:	000d      	movs	r5, r1
100005c4:	1c14      	adds	r4, r2, #0
100005c6:	7880      	ldrb	r0, [r0, #2]
100005c8:	f006 f919 	bl	100067fe <__wrap___aeabi_ui2f>
100005cc:	4680      	mov	r8, r0
100005ce:	78f0      	ldrb	r0, [r6, #3]
100005d0:	f006 f915 	bl	100067fe <__wrap___aeabi_ui2f>
100005d4:	1c07      	adds	r7, r0, #0
100005d6:	7870      	ldrb	r0, [r6, #1]
100005d8:	f006 f911 	bl	100067fe <__wrap___aeabi_ui2f>
100005dc:	1c06      	adds	r6, r0, #0
100005de:	78a8      	ldrb	r0, [r5, #2]
100005e0:	f006 f90d 	bl	100067fe <__wrap___aeabi_ui2f>
100005e4:	4683      	mov	fp, r0
100005e6:	78e8      	ldrb	r0, [r5, #3]
100005e8:	f006 f909 	bl	100067fe <__wrap___aeabi_ui2f>
100005ec:	4682      	mov	sl, r0
100005ee:	7868      	ldrb	r0, [r5, #1]
100005f0:	f006 f905 	bl	100067fe <__wrap___aeabi_ui2f>
100005f4:	4681      	mov	r9, r0
100005f6:	4641      	mov	r1, r8
100005f8:	4658      	mov	r0, fp
100005fa:	f006 f8a4 	bl	10006746 <__wrap___aeabi_fsub>
100005fe:	1c21      	adds	r1, r4, #0
10000600:	f006 f8c1 	bl	10006786 <__wrap___aeabi_fmul>
10000604:	4641      	mov	r1, r8
10000606:	f006 f8a3 	bl	10006750 <__wrap___aeabi_fadd>
1000060a:	4680      	mov	r8, r0
1000060c:	1c39      	adds	r1, r7, #0
1000060e:	4650      	mov	r0, sl
10000610:	f006 f899 	bl	10006746 <__wrap___aeabi_fsub>
10000614:	1c21      	adds	r1, r4, #0
10000616:	f006 f8b6 	bl	10006786 <__wrap___aeabi_fmul>
1000061a:	1c39      	adds	r1, r7, #0
1000061c:	f006 f898 	bl	10006750 <__wrap___aeabi_fadd>
10000620:	1c05      	adds	r5, r0, #0
10000622:	1c31      	adds	r1, r6, #0
10000624:	4648      	mov	r0, r9
10000626:	f006 f88e 	bl	10006746 <__wrap___aeabi_fsub>
1000062a:	1c21      	adds	r1, r4, #0
1000062c:	f006 f8ab 	bl	10006786 <__wrap___aeabi_fmul>
10000630:	1c31      	adds	r1, r6, #0
10000632:	f006 f88d 	bl	10006750 <__wrap___aeabi_fadd>
10000636:	f006 f93b 	bl	100068b0 <__wrap___aeabi_f2uiz>
1000063a:	b2c4      	uxtb	r4, r0
1000063c:	0224      	lsls	r4, r4, #8
1000063e:	4640      	mov	r0, r8
10000640:	f006 f936 	bl	100068b0 <__wrap___aeabi_f2uiz>
10000644:	b2c3      	uxtb	r3, r0
10000646:	041b      	lsls	r3, r3, #16
10000648:	431c      	orrs	r4, r3
1000064a:	1c28      	adds	r0, r5, #0
1000064c:	f006 f930 	bl	100068b0 <__wrap___aeabi_f2uiz>
10000650:	0600      	lsls	r0, r0, #24
10000652:	4320      	orrs	r0, r4
10000654:	bcf0      	pop	{r4, r5, r6, r7}
10000656:	46bb      	mov	fp, r7
10000658:	46b2      	mov	sl, r6
1000065a:	46a9      	mov	r9, r5
1000065c:	46a0      	mov	r8, r4
1000065e:	bdf8      	pop	{r3, r4, r5, r6, r7, pc}

10000660 <_rgb_animate_step>:
10000660:	b5f8      	push	{r3, r4, r5, r6, r7, lr}
10000662:	4b1d      	ldr	r3, [pc, #116]	; (100006d8 <_rgb_animate_step+0x78>)
10000664:	781b      	ldrb	r3, [r3, #0]
10000666:	2b00      	cmp	r3, #0
10000668:	d01d      	beq.n	100006a6 <_rgb_animate_step+0x46>
1000066a:	4b1c      	ldr	r3, [pc, #112]	; (100006dc <_rgb_animate_step+0x7c>)
1000066c:	681a      	ldr	r2, [r3, #0]
1000066e:	4b1c      	ldr	r3, [pc, #112]	; (100006e0 <_rgb_animate_step+0x80>)
10000670:	601a      	str	r2, [r3, #0]
10000672:	2300      	movs	r3, #0
10000674:	4a1b      	ldr	r2, [pc, #108]	; (100006e4 <_rgb_animate_step+0x84>)
10000676:	7013      	strb	r3, [r2, #0]
10000678:	4a17      	ldr	r2, [pc, #92]	; (100006d8 <_rgb_animate_step+0x78>)
1000067a:	7013      	strb	r3, [r2, #0]
1000067c:	2200      	movs	r2, #0
1000067e:	4b19      	ldr	r3, [pc, #100]	; (100006e4 <_rgb_animate_step+0x84>)
10000680:	781c      	ldrb	r4, [r3, #0]
10000682:	2c15      	cmp	r4, #21
10000684:	d81e      	bhi.n	100006c4 <_rgb_animate_step+0x64>
10000686:	0020      	movs	r0, r4
10000688:	f006 f8b9 	bl	100067fe <__wrap___aeabi_ui2f>
1000068c:	4916      	ldr	r1, [pc, #88]	; (100006e8 <_rgb_animate_step+0x88>)
1000068e:	f006 f87a 	bl	10006786 <__wrap___aeabi_fmul>
10000692:	1c06      	adds	r6, r0, #0
10000694:	2500      	movs	r5, #0
10000696:	2d00      	cmp	r5, #0
10000698:	d007      	beq.n	100006aa <_rgb_animate_step+0x4a>
1000069a:	3401      	adds	r4, #1
1000069c:	4b11      	ldr	r3, [pc, #68]	; (100006e4 <_rgb_animate_step+0x84>)
1000069e:	701c      	strb	r4, [r3, #0]
100006a0:	f7ff ff80 	bl	100005a4 <_rgb_update_all>
100006a4:	bdf8      	pop	{r3, r4, r5, r6, r7, pc}
100006a6:	2201      	movs	r2, #1
100006a8:	e7e9      	b.n	1000067e <_rgb_animate_step+0x1e>
100006aa:	00af      	lsls	r7, r5, #2
100006ac:	490f      	ldr	r1, [pc, #60]	; (100006ec <_rgb_animate_step+0x8c>)
100006ae:	19c9      	adds	r1, r1, r7
100006b0:	480b      	ldr	r0, [pc, #44]	; (100006e0 <_rgb_animate_step+0x80>)
100006b2:	19c0      	adds	r0, r0, r7
100006b4:	1c32      	adds	r2, r6, #0
100006b6:	f7ff ff7d 	bl	100005b4 <_rgb_blend>
100006ba:	4b08      	ldr	r3, [pc, #32]	; (100006dc <_rgb_animate_step+0x7c>)
100006bc:	51d8      	str	r0, [r3, r7]
100006be:	3501      	adds	r5, #1
100006c0:	b2ed      	uxtb	r5, r5
100006c2:	e7e8      	b.n	10000696 <_rgb_animate_step+0x36>
100006c4:	2a00      	cmp	r2, #0
100006c6:	d1ed      	bne.n	100006a4 <_rgb_animate_step+0x44>
100006c8:	4b08      	ldr	r3, [pc, #32]	; (100006ec <_rgb_animate_step+0x8c>)
100006ca:	681a      	ldr	r2, [r3, #0]
100006cc:	4b03      	ldr	r3, [pc, #12]	; (100006dc <_rgb_animate_step+0x7c>)
100006ce:	601a      	str	r2, [r3, #0]
100006d0:	f7ff ff68 	bl	100005a4 <_rgb_update_all>
100006d4:	e7e6      	b.n	100006a4 <_rgb_animate_step+0x44>
100006d6:	46c0      	nop			; (mov r8, r8)
100006d8:	20002730 	.word	0x20002730
100006dc:	20001668 	.word	0x20001668
100006e0:	2000166c 	.word	0x2000166c
100006e4:	20000d2c 	.word	0x20000d2c
100006e8:	3d430c31 	.word	0x3d430c31
100006ec:	20001670 	.word	0x20001670

100006f0 <rgb_set_dirty>:
100006f0:	4b01      	ldr	r3, [pc, #4]	; (100006f8 <rgb_set_dirty+0x8>)
100006f2:	2201      	movs	r2, #1
100006f4:	701a      	strb	r2, [r3, #0]
100006f6:	4770      	bx	lr
100006f8:	20002730 	.word	0x20002730

100006fc <rgb_set_all>:
100006fc:	2300      	movs	r3, #0
100006fe:	2b00      	cmp	r3, #0
10000700:	d000      	beq.n	10000704 <rgb_set_all+0x8>
10000702:	4770      	bx	lr
10000704:	0099      	lsls	r1, r3, #2
10000706:	4a02      	ldr	r2, [pc, #8]	; (10000710 <rgb_set_all+0x14>)
10000708:	5088      	str	r0, [r1, r2]
1000070a:	3301      	adds	r3, #1
1000070c:	b2db      	uxtb	r3, r3
1000070e:	e7f6      	b.n	100006fe <rgb_set_all+0x2>
10000710:	20001670 	.word	0x20001670

10000714 <rgb_set_single>:
10000714:	0089      	lsls	r1, r1, #2
10000716:	4b01      	ldr	r3, [pc, #4]	; (1000071c <rgb_set_single+0x8>)
10000718:	5058      	str	r0, [r3, r1]
1000071a:	4770      	bx	lr
1000071c:	20001670 	.word	0x20001670

10000720 <rgb_init>:
10000720:	b510      	push	{r4, lr}
10000722:	f7ff ff28 	bl	10000576 <rgb_itf_init>
10000726:	bd10      	pop	{r4, pc}

10000728 <rgb_task>:
10000728:	b510      	push	{r4, lr}
1000072a:	4b05      	ldr	r3, [pc, #20]	; (10000740 <rgb_task+0x18>)
1000072c:	6819      	ldr	r1, [r3, #0]
1000072e:	4a05      	ldr	r2, [pc, #20]	; (10000744 <rgb_task+0x1c>)
10000730:	f000 f80e 	bl	10000750 <interval_run>
10000734:	2800      	cmp	r0, #0
10000736:	d100      	bne.n	1000073a <rgb_task+0x12>
10000738:	bd10      	pop	{r4, pc}
1000073a:	f7ff ff91 	bl	10000660 <_rgb_animate_step>
1000073e:	e7fb      	b.n	10000738 <rgb_task+0x10>
10000740:	20000d28 	.word	0x20000d28
10000744:	20001600 	.word	0x20001600

10000748 <joybus_init>:
10000748:	b510      	push	{r4, lr}
1000074a:	f7ff fef5 	bl	10000538 <joybus_itf_init>
1000074e:	bd10      	pop	{r4, pc}

10000750 <interval_run>:
10000750:	6010      	str	r0, [r2, #0]
10000752:	6853      	ldr	r3, [r2, #4]
10000754:	4283      	cmp	r3, r0
10000756:	d905      	bls.n	10000764 <interval_run+0x14>
10000758:	1ac3      	subs	r3, r0, r3
1000075a:	3b01      	subs	r3, #1
1000075c:	428b      	cmp	r3, r1
1000075e:	d205      	bcs.n	1000076c <interval_run+0x1c>
10000760:	2000      	movs	r0, #0
10000762:	4770      	bx	lr
10000764:	4283      	cmp	r3, r0
10000766:	d204      	bcs.n	10000772 <interval_run+0x22>
10000768:	1ac3      	subs	r3, r0, r3
1000076a:	e7f7      	b.n	1000075c <interval_run+0xc>
1000076c:	6050      	str	r0, [r2, #4]
1000076e:	2001      	movs	r0, #1
10000770:	e7f7      	b.n	10000762 <interval_run+0x12>
10000772:	2000      	movs	r0, #0
10000774:	e7f5      	b.n	10000762 <interval_run+0x12>

10000776 <interval_resettable_run>:
10000776:	b530      	push	{r4, r5, lr}
10000778:	6018      	str	r0, [r3, #0]
1000077a:	2a00      	cmp	r2, #0
1000077c:	d10b      	bne.n	10000796 <interval_resettable_run+0x20>
1000077e:	685c      	ldr	r4, [r3, #4]
10000780:	4284      	cmp	r4, r0
10000782:	d90b      	bls.n	1000079c <interval_resettable_run+0x26>
10000784:	1b04      	subs	r4, r0, r4
10000786:	3c01      	subs	r4, #1
10000788:	2500      	movs	r5, #0
1000078a:	2d00      	cmp	r5, #0
1000078c:	d10b      	bne.n	100007a6 <interval_resettable_run+0x30>
1000078e:	42a1      	cmp	r1, r4
10000790:	d909      	bls.n	100007a6 <interval_resettable_run+0x30>
10000792:	0010      	movs	r0, r2
10000794:	bd30      	pop	{r4, r5, pc}
10000796:	6058      	str	r0, [r3, #4]
10000798:	2000      	movs	r0, #0
1000079a:	e7fb      	b.n	10000794 <interval_resettable_run+0x1e>
1000079c:	4284      	cmp	r4, r0
1000079e:	d205      	bcs.n	100007ac <interval_resettable_run+0x36>
100007a0:	1b04      	subs	r4, r0, r4
100007a2:	2500      	movs	r5, #0
100007a4:	e7f1      	b.n	1000078a <interval_resettable_run+0x14>
100007a6:	6058      	str	r0, [r3, #4]
100007a8:	2001      	movs	r0, #1
100007aa:	e7f3      	b.n	10000794 <interval_resettable_run+0x1e>
100007ac:	0010      	movs	r0, r2
100007ae:	e7f1      	b.n	10000794 <interval_resettable_run+0x1e>

100007b0 <adapter_ll_write_settings_to_memory>:
100007b0:	4b02      	ldr	r3, [pc, #8]	; (100007bc <adapter_ll_write_settings_to_memory+0xc>)
100007b2:	6018      	str	r0, [r3, #0]
100007b4:	4b02      	ldr	r3, [pc, #8]	; (100007c0 <adapter_ll_write_settings_to_memory+0x10>)
100007b6:	2201      	movs	r2, #1
100007b8:	701a      	strb	r2, [r3, #0]
100007ba:	4770      	bx	lr
100007bc:	20001620 	.word	0x20001620
100007c0:	20002731 	.word	0x20002731

100007c4 <adapter_ll_load_settings_from_memory>:
100007c4:	b510      	push	{r4, lr}
100007c6:	221c      	movs	r2, #28
100007c8:	4901      	ldr	r1, [pc, #4]	; (100007d0 <adapter_ll_load_settings_from_memory+0xc>)
100007ca:	f006 f94d 	bl	10006a68 <__wrap___aeabi_memcpy>
100007ce:	bd10      	pop	{r4, pc}
100007d0:	1012d000 	.word	0x1012d000

100007d4 <adapter_ll_save_check>:
100007d4:	b5f0      	push	{r4, r5, r6, r7, lr}
100007d6:	4c16      	ldr	r4, [pc, #88]	; (10000830 <adapter_ll_save_check+0x5c>)
100007d8:	44a5      	add	sp, r4
100007da:	4b16      	ldr	r3, [pc, #88]	; (10000834 <adapter_ll_save_check+0x60>)
100007dc:	781b      	ldrb	r3, [r3, #0]
100007de:	2b00      	cmp	r3, #0
100007e0:	d102      	bne.n	100007e8 <adapter_ll_save_check+0x14>
100007e2:	4b15      	ldr	r3, [pc, #84]	; (10000838 <adapter_ll_save_check+0x64>)
100007e4:	449d      	add	sp, r3
100007e6:	bdf0      	pop	{r4, r5, r6, r7, pc}
100007e8:	f3ef 8710 	mrs	r7, PRIMASK
100007ec:	b672      	cpsid	i
100007ee:	2400      	movs	r4, #0
100007f0:	9400      	str	r4, [sp, #0]
100007f2:	4a12      	ldr	r2, [pc, #72]	; (1000083c <adapter_ll_save_check+0x68>)
100007f4:	2100      	movs	r1, #0
100007f6:	a801      	add	r0, sp, #4
100007f8:	f006 f930 	bl	10006a5c <__wrap_memset>
100007fc:	4b10      	ldr	r3, [pc, #64]	; (10000840 <adapter_ll_save_check+0x6c>)
100007fe:	6819      	ldr	r1, [r3, #0]
10000800:	221c      	movs	r2, #28
10000802:	4668      	mov	r0, sp
10000804:	f006 f930 	bl	10006a68 <__wrap___aeabi_memcpy>
10000808:	2680      	movs	r6, #128	; 0x80
1000080a:	0176      	lsls	r6, r6, #5
1000080c:	4d0d      	ldr	r5, [pc, #52]	; (10000844 <adapter_ll_save_check+0x70>)
1000080e:	0031      	movs	r1, r6
10000810:	0028      	movs	r0, r5
10000812:	f009 f93d 	bl	10009a90 <__flash_range_erase_veneer>
10000816:	0032      	movs	r2, r6
10000818:	4669      	mov	r1, sp
1000081a:	0028      	movs	r0, r5
1000081c:	f009 f928 	bl	10009a70 <__flash_range_program_veneer>
10000820:	f387 8810 	msr	PRIMASK, r7
10000824:	f001 ff12 	bl	1000264c <webusb_save_confirm>
10000828:	4b02      	ldr	r3, [pc, #8]	; (10000834 <adapter_ll_save_check+0x60>)
1000082a:	701c      	strb	r4, [r3, #0]
1000082c:	e7d9      	b.n	100007e2 <adapter_ll_save_check+0xe>
1000082e:	46c0      	nop			; (mov r8, r8)
10000830:	ffffeffc 	.word	0xffffeffc
10000834:	20002731 	.word	0x20002731
10000838:	00001004 	.word	0x00001004
1000083c:	00000ffc 	.word	0x00000ffc
10000840:	20001620 	.word	0x20001620
10000844:	0012d000 	.word	0x0012d000

10000848 <adapter_ll_generate_random_8>:
10000848:	b510      	push	{r4, lr}
1000084a:	f006 fd13 	bl	10007274 <get_rand_32>
1000084e:	b2c0      	uxtb	r0, r0
10000850:	bd10      	pop	{r4, pc}
	...

10000854 <_scratch_get>:
10000854:	2807      	cmp	r0, #7
10000856:	d805      	bhi.n	10000864 <_scratch_get+0x10>
10000858:	0080      	lsls	r0, r0, #2
1000085a:	4b03      	ldr	r3, [pc, #12]	; (10000868 <_scratch_get+0x14>)
1000085c:	469c      	mov	ip, r3
1000085e:	4460      	add	r0, ip
10000860:	6800      	ldr	r0, [r0, #0]
10000862:	4770      	bx	lr
10000864:	2000      	movs	r0, #0
10000866:	e7fc      	b.n	10000862 <_scratch_get+0xe>
10000868:	4005800c 	.word	0x4005800c

1000086c <adapter_ll_get_reboot_memory>:
1000086c:	b510      	push	{r4, lr}
1000086e:	0004      	movs	r4, r0
10000870:	2005      	movs	r0, #5
10000872:	f7ff ffef 	bl	10000854 <_scratch_get>
10000876:	6020      	str	r0, [r4, #0]
10000878:	bd10      	pop	{r4, pc}
	...

1000087c <adapter_ll_reboot_bootloader>:
1000087c:	b510      	push	{r4, lr}
1000087e:	4803      	ldr	r0, [pc, #12]	; (1000088c <adapter_ll_reboot_bootloader+0x10>)
10000880:	f005 f87a 	bl	10005978 <rom_func_lookup>
10000884:	0003      	movs	r3, r0
10000886:	2100      	movs	r1, #0
10000888:	2000      	movs	r0, #0
1000088a:	4798      	blx	r3
1000088c:	00004255 	.word	0x00004255

10000890 <adapter_ll_hardware_setup>:
10000890:	b510      	push	{r4, lr}
10000892:	f006 fa45 	bl	10006d20 <stdio_init_all>
10000896:	bd10      	pop	{r4, pc}

10000898 <adapter_ll_get_timestamp_us>:
10000898:	4b01      	ldr	r3, [pc, #4]	; (100008a0 <adapter_ll_get_timestamp_us+0x8>)
1000089a:	6a98      	ldr	r0, [r3, #40]	; 0x28
1000089c:	4770      	bx	lr
1000089e:	46c0      	nop			; (mov r8, r8)
100008a0:	40054000 	.word	0x40054000

100008a4 <adapter_ll_usb_task_start>:
100008a4:	4770      	bx	lr
	...

100008a8 <adapter_ll_usb_set_clear>:
100008a8:	b510      	push	{r4, lr}
100008aa:	2300      	movs	r3, #0
100008ac:	e000      	b.n	100008b0 <adapter_ll_usb_set_clear+0x8>
100008ae:	3301      	adds	r3, #1
100008b0:	2b03      	cmp	r3, #3
100008b2:	d807      	bhi.n	100008c4 <adapter_ll_usb_set_clear+0x1c>
100008b4:	011a      	lsls	r2, r3, #4
100008b6:	188a      	adds	r2, r1, r2
100008b8:	6894      	ldr	r4, [r2, #8]
100008ba:	4284      	cmp	r4, r0
100008bc:	d1f7      	bne.n	100008ae <adapter_ll_usb_set_clear+0x6>
100008be:	2401      	movs	r4, #1
100008c0:	7354      	strb	r4, [r2, #13]
100008c2:	e7f4      	b.n	100008ae <adapter_ll_usb_set_clear+0x6>
100008c4:	2200      	movs	r2, #0
100008c6:	2300      	movs	r3, #0
100008c8:	e004      	b.n	100008d4 <adapter_ll_usb_set_clear+0x2c>
100008ca:	2001      	movs	r0, #1
100008cc:	4090      	lsls	r0, r2
100008ce:	4303      	orrs	r3, r0
100008d0:	b2db      	uxtb	r3, r3
100008d2:	3201      	adds	r2, #1
100008d4:	2a03      	cmp	r2, #3
100008d6:	d809      	bhi.n	100008ec <adapter_ll_usb_set_clear+0x44>
100008d8:	0110      	lsls	r0, r2, #4
100008da:	1808      	adds	r0, r1, r0
100008dc:	6884      	ldr	r4, [r0, #8]
100008de:	2c00      	cmp	r4, #0
100008e0:	dbf3      	blt.n	100008ca <adapter_ll_usb_set_clear+0x22>
100008e2:	7b40      	ldrb	r0, [r0, #13]
100008e4:	4090      	lsls	r0, r2
100008e6:	4303      	orrs	r3, r0
100008e8:	b2db      	uxtb	r3, r3
100008ea:	e7f2      	b.n	100008d2 <adapter_ll_usb_set_clear+0x2a>
100008ec:	3b0f      	subs	r3, #15
100008ee:	425a      	negs	r2, r3
100008f0:	4153      	adcs	r3, r2
100008f2:	b2db      	uxtb	r3, r3
100008f4:	4a01      	ldr	r2, [pc, #4]	; (100008fc <adapter_ll_usb_set_clear+0x54>)
100008f6:	7013      	strb	r3, [r2, #0]
100008f8:	bd10      	pop	{r4, pc}
100008fa:	46c0      	nop			; (mov r8, r8)
100008fc:	2000272f 	.word	0x2000272f

10000900 <adapter_ll_usb_unset_clear>:
10000900:	2300      	movs	r3, #0
10000902:	e004      	b.n	1000090e <adapter_ll_usb_unset_clear+0xe>
10000904:	011a      	lsls	r2, r3, #4
10000906:	1882      	adds	r2, r0, r2
10000908:	2100      	movs	r1, #0
1000090a:	7351      	strb	r1, [r2, #13]
1000090c:	3301      	adds	r3, #1
1000090e:	2b03      	cmp	r3, #3
10000910:	d9f8      	bls.n	10000904 <adapter_ll_usb_unset_clear+0x4>
10000912:	4b02      	ldr	r3, [pc, #8]	; (1000091c <adapter_ll_usb_unset_clear+0x1c>)
10000914:	2200      	movs	r2, #0
10000916:	701a      	strb	r2, [r3, #0]
10000918:	4770      	bx	lr
1000091a:	46c0      	nop			; (mov r8, r8)
1000091c:	2000272f 	.word	0x2000272f

10000920 <adapter_ll_usb_get_clear>:
10000920:	4b01      	ldr	r3, [pc, #4]	; (10000928 <adapter_ll_usb_get_clear+0x8>)
10000922:	7818      	ldrb	r0, [r3, #0]
10000924:	b2c0      	uxtb	r0, r0
10000926:	4770      	bx	lr
10000928:	2000272f 	.word	0x2000272f

1000092c <tud_descriptor_bos_cb>:
1000092c:	4800      	ldr	r0, [pc, #0]	; (10000930 <tud_descriptor_bos_cb+0x4>)
1000092e:	4770      	bx	lr
10000930:	10009c10 	.word	0x10009c10

10000934 <adapter_usb_is_clear>:
10000934:	b570      	push	{r4, r5, r6, lr}
10000936:	0004      	movs	r4, r0
10000938:	f7ff fff2 	bl	10000920 <adapter_ll_usb_get_clear>
1000093c:	0002      	movs	r2, r0
1000093e:	0005      	movs	r5, r0
10000940:	4b07      	ldr	r3, [pc, #28]	; (10000960 <adapter_usb_is_clear+0x2c>)
10000942:	4908      	ldr	r1, [pc, #32]	; (10000964 <adapter_usb_is_clear+0x30>)
10000944:	0020      	movs	r0, r4
10000946:	f7ff ff16 	bl	10000776 <interval_resettable_run>
1000094a:	1e04      	subs	r4, r0, #0
1000094c:	d101      	bne.n	10000952 <adapter_usb_is_clear+0x1e>
1000094e:	0028      	movs	r0, r5
10000950:	bd70      	pop	{r4, r5, r6, pc}
10000952:	4b05      	ldr	r3, [pc, #20]	; (10000968 <adapter_usb_is_clear+0x34>)
10000954:	6818      	ldr	r0, [r3, #0]
10000956:	f7ff ffd3 	bl	10000900 <adapter_ll_usb_unset_clear>
1000095a:	0025      	movs	r5, r4
1000095c:	e7f7      	b.n	1000094e <adapter_usb_is_clear+0x1a>
1000095e:	46c0      	nop			; (mov r8, r8)
10000960:	200024f4 	.word	0x200024f4
10000964:	00007530 	.word	0x00007530
10000968:	20001068 	.word	0x20001068

1000096c <adapter_usb_set_clear>:
1000096c:	b510      	push	{r4, lr}
1000096e:	4b03      	ldr	r3, [pc, #12]	; (1000097c <adapter_usb_set_clear+0x10>)
10000970:	6819      	ldr	r1, [r3, #0]
10000972:	b240      	sxtb	r0, r0
10000974:	f7ff ff98 	bl	100008a8 <adapter_ll_usb_set_clear>
10000978:	bd10      	pop	{r4, pc}
1000097a:	46c0      	nop			; (mov r8, r8)
1000097c:	20001068 	.word	0x20001068

10000980 <adapter_usb_unset_clear>:
10000980:	b510      	push	{r4, lr}
10000982:	4b02      	ldr	r3, [pc, #8]	; (1000098c <adapter_usb_unset_clear+0xc>)
10000984:	6818      	ldr	r0, [r3, #0]
10000986:	f7ff ffbb 	bl	10000900 <adapter_ll_usb_unset_clear>
1000098a:	bd10      	pop	{r4, pc}
1000098c:	20001068 	.word	0x20001068

10000990 <adapter_set_interval>:
10000990:	b510      	push	{r4, lr}
10000992:	23fa      	movs	r3, #250	; 0xfa
10000994:	009b      	lsls	r3, r3, #2
10000996:	4298      	cmp	r0, r3
10000998:	d80f      	bhi.n	100009ba <adapter_set_interval+0x2a>
1000099a:	4b0e      	ldr	r3, [pc, #56]	; (100009d4 <adapter_set_interval+0x44>)
1000099c:	4a0e      	ldr	r2, [pc, #56]	; (100009d8 <adapter_set_interval+0x48>)
1000099e:	601a      	str	r2, [r3, #0]
100009a0:	4b0e      	ldr	r3, [pc, #56]	; (100009dc <adapter_set_interval+0x4c>)
100009a2:	2201      	movs	r2, #1
100009a4:	701a      	strb	r2, [r3, #0]
100009a6:	4b0e      	ldr	r3, [pc, #56]	; (100009e0 <adapter_set_interval+0x50>)
100009a8:	2200      	movs	r2, #0
100009aa:	701a      	strb	r2, [r3, #0]
100009ac:	4b0b      	ldr	r3, [pc, #44]	; (100009dc <adapter_set_interval+0x4c>)
100009ae:	2201      	movs	r2, #1
100009b0:	701a      	strb	r2, [r3, #0]
100009b2:	4b08      	ldr	r3, [pc, #32]	; (100009d4 <adapter_set_interval+0x44>)
100009b4:	4a0b      	ldr	r2, [pc, #44]	; (100009e4 <adapter_set_interval+0x54>)
100009b6:	601a      	str	r2, [r3, #0]
100009b8:	bd10      	pop	{r4, pc}
100009ba:	4b08      	ldr	r3, [pc, #32]	; (100009dc <adapter_set_interval+0x4c>)
100009bc:	7019      	strb	r1, [r3, #0]
100009be:	387d      	subs	r0, #125	; 0x7d
100009c0:	38ff      	subs	r0, #255	; 0xff
100009c2:	f005 f82d 	bl	10005a20 <__wrap___aeabi_uidiv>
100009c6:	4b03      	ldr	r3, [pc, #12]	; (100009d4 <adapter_set_interval+0x44>)
100009c8:	6018      	str	r0, [r3, #0]
100009ca:	4b05      	ldr	r3, [pc, #20]	; (100009e0 <adapter_set_interval+0x50>)
100009cc:	2200      	movs	r2, #0
100009ce:	701a      	strb	r2, [r3, #0]
100009d0:	e7ec      	b.n	100009ac <adapter_set_interval+0x1c>
100009d2:	46c0      	nop			; (mov r8, r8)
100009d4:	20000d30 	.word	0x20000d30
100009d8:	00002710 	.word	0x00002710
100009dc:	20000d34 	.word	0x20000d34
100009e0:	2000272b 	.word	0x2000272b
100009e4:	00001dc4 	.word	0x00001dc4

100009e8 <adapter_mode_cycle_task>:
100009e8:	b510      	push	{r4, lr}
100009ea:	21fa      	movs	r1, #250	; 0xfa
100009ec:	4a02      	ldr	r2, [pc, #8]	; (100009f8 <adapter_mode_cycle_task+0x10>)
100009ee:	0189      	lsls	r1, r1, #6
100009f0:	f7ff feae 	bl	10000750 <interval_run>
100009f4:	bd10      	pop	{r4, pc}
100009f6:	46c0      	nop			; (mov r8, r8)
100009f8:	20001610 	.word	0x20001610

100009fc <adapter_get_current_mode>:
100009fc:	4b01      	ldr	r3, [pc, #4]	; (10000a04 <adapter_get_current_mode+0x8>)
100009fe:	7818      	ldrb	r0, [r3, #0]
10000a00:	4770      	bx	lr
10000a02:	46c0      	nop			; (mov r8, r8)
10000a04:	2000272a 	.word	0x2000272a

10000a08 <adapter_usb_start>:
10000a08:	b510      	push	{r4, lr}
10000a0a:	4b20      	ldr	r3, [pc, #128]	; (10000a8c <adapter_usb_start+0x84>)
10000a0c:	7018      	strb	r0, [r3, #0]
10000a0e:	2802      	cmp	r0, #2
10000a10:	d023      	beq.n	10000a5a <adapter_usb_start+0x52>
10000a12:	d80f      	bhi.n	10000a34 <adapter_usb_start+0x2c>
10000a14:	2800      	cmp	r0, #0
10000a16:	d02c      	beq.n	10000a72 <adapter_usb_start+0x6a>
10000a18:	2801      	cmp	r0, #1
10000a1a:	d116      	bne.n	10000a4a <adapter_usb_start+0x42>
10000a1c:	4b1c      	ldr	r3, [pc, #112]	; (10000a90 <adapter_usb_start+0x88>)
10000a1e:	4a1d      	ldr	r2, [pc, #116]	; (10000a94 <adapter_usb_start+0x8c>)
10000a20:	601a      	str	r2, [r3, #0]
10000a22:	4b1d      	ldr	r3, [pc, #116]	; (10000a98 <adapter_usb_start+0x90>)
10000a24:	4a1d      	ldr	r2, [pc, #116]	; (10000a9c <adapter_usb_start+0x94>)
10000a26:	601a      	str	r2, [r3, #0]
10000a28:	20fa      	movs	r0, #250	; 0xfa
10000a2a:	2101      	movs	r1, #1
10000a2c:	0140      	lsls	r0, r0, #5
10000a2e:	f7ff ffaf 	bl	10000990 <adapter_set_interval>
10000a32:	e00f      	b.n	10000a54 <adapter_usb_start+0x4c>
10000a34:	2803      	cmp	r0, #3
10000a36:	d108      	bne.n	10000a4a <adapter_usb_start+0x42>
10000a38:	4b15      	ldr	r3, [pc, #84]	; (10000a90 <adapter_usb_start+0x88>)
10000a3a:	4a19      	ldr	r2, [pc, #100]	; (10000aa0 <adapter_usb_start+0x98>)
10000a3c:	601a      	str	r2, [r3, #0]
10000a3e:	20fa      	movs	r0, #250	; 0xfa
10000a40:	2101      	movs	r1, #1
10000a42:	0080      	lsls	r0, r0, #2
10000a44:	f7ff ffa4 	bl	10000990 <adapter_set_interval>
10000a48:	e004      	b.n	10000a54 <adapter_usb_start+0x4c>
10000a4a:	2300      	movs	r3, #0
10000a4c:	4a10      	ldr	r2, [pc, #64]	; (10000a90 <adapter_usb_start+0x88>)
10000a4e:	6013      	str	r3, [r2, #0]
10000a50:	4a11      	ldr	r2, [pc, #68]	; (10000a98 <adapter_usb_start+0x90>)
10000a52:	6013      	str	r3, [r2, #0]
10000a54:	f008 fb96 	bl	10009184 <tusb_init>
10000a58:	bd10      	pop	{r4, pc}
10000a5a:	4b0d      	ldr	r3, [pc, #52]	; (10000a90 <adapter_usb_start+0x88>)
10000a5c:	4a10      	ldr	r2, [pc, #64]	; (10000aa0 <adapter_usb_start+0x98>)
10000a5e:	601a      	str	r2, [r3, #0]
10000a60:	4b0d      	ldr	r3, [pc, #52]	; (10000a98 <adapter_usb_start+0x90>)
10000a62:	4a10      	ldr	r2, [pc, #64]	; (10000aa4 <adapter_usb_start+0x9c>)
10000a64:	601a      	str	r2, [r3, #0]
10000a66:	20fa      	movs	r0, #250	; 0xfa
10000a68:	2108      	movs	r1, #8
10000a6a:	0140      	lsls	r0, r0, #5
10000a6c:	f7ff ff90 	bl	10000990 <adapter_set_interval>
10000a70:	e7f0      	b.n	10000a54 <adapter_usb_start+0x4c>
10000a72:	4b07      	ldr	r3, [pc, #28]	; (10000a90 <adapter_usb_start+0x88>)
10000a74:	4a0c      	ldr	r2, [pc, #48]	; (10000aa8 <adapter_usb_start+0xa0>)
10000a76:	601a      	str	r2, [r3, #0]
10000a78:	4b07      	ldr	r3, [pc, #28]	; (10000a98 <adapter_usb_start+0x90>)
10000a7a:	4a0c      	ldr	r2, [pc, #48]	; (10000aac <adapter_usb_start+0xa4>)
10000a7c:	601a      	str	r2, [r3, #0]
10000a7e:	20fa      	movs	r0, #250	; 0xfa
10000a80:	2108      	movs	r1, #8
10000a82:	0140      	lsls	r0, r0, #5
10000a84:	f7ff ff84 	bl	10000990 <adapter_set_interval>
10000a88:	e7e4      	b.n	10000a54 <adapter_usb_start+0x4c>
10000a8a:	46c0      	nop			; (mov r8, r8)
10000a8c:	2000272a 	.word	0x2000272a
10000a90:	20001898 	.word	0x20001898
10000a94:	10002761 	.word	0x10002761
10000a98:	2000189c 	.word	0x2000189c
10000a9c:	10002745 	.word	0x10002745
10000aa0:	100020fd 	.word	0x100020fd
10000aa4:	100020e1 	.word	0x100020e1
10000aa8:	10002341 	.word	0x10002341
10000aac:	10002325 	.word	0x10002325

10000ab0 <adapter_usb_report>:
10000ab0:	b510      	push	{r4, lr}
10000ab2:	4b03      	ldr	r3, [pc, #12]	; (10000ac0 <adapter_usb_report+0x10>)
10000ab4:	681b      	ldr	r3, [r3, #0]
10000ab6:	2b00      	cmp	r3, #0
10000ab8:	d000      	beq.n	10000abc <adapter_usb_report+0xc>
10000aba:	4798      	blx	r3
10000abc:	bd10      	pop	{r4, pc}
10000abe:	46c0      	nop			; (mov r8, r8)
10000ac0:	20001898 	.word	0x20001898

10000ac4 <adapter_usb_idle>:
10000ac4:	b510      	push	{r4, lr}
10000ac6:	4b03      	ldr	r3, [pc, #12]	; (10000ad4 <adapter_usb_idle+0x10>)
10000ac8:	681b      	ldr	r3, [r3, #0]
10000aca:	2b00      	cmp	r3, #0
10000acc:	d000      	beq.n	10000ad0 <adapter_usb_idle+0xc>
10000ace:	4798      	blx	r3
10000ad0:	bd10      	pop	{r4, pc}
10000ad2:	46c0      	nop			; (mov r8, r8)
10000ad4:	2000189c 	.word	0x2000189c

10000ad8 <adapter_port_status_led>:
10000ad8:	b570      	push	{r4, r5, r6, lr}
10000ada:	000d      	movs	r5, r1
10000adc:	4a12      	ldr	r2, [pc, #72]	; (10000b28 <adapter_port_status_led+0x50>)
10000ade:	4913      	ldr	r1, [pc, #76]	; (10000b2c <adapter_port_status_led+0x54>)
10000ae0:	f7ff fe36 	bl	10000750 <interval_run>
10000ae4:	2800      	cmp	r0, #0
10000ae6:	d11d      	bne.n	10000b24 <adapter_port_status_led+0x4c>
10000ae8:	bd70      	pop	{r4, r5, r6, pc}
10000aea:	20ff      	movs	r0, #255	; 0xff
10000aec:	0021      	movs	r1, r4
10000aee:	0400      	lsls	r0, r0, #16
10000af0:	f7ff fe10 	bl	10000714 <rgb_set_single>
10000af4:	f7ff fdfc 	bl	100006f0 <rgb_set_dirty>
10000af8:	3401      	adds	r4, #1
10000afa:	b2e4      	uxtb	r4, r4
10000afc:	2c00      	cmp	r4, #0
10000afe:	d1f3      	bne.n	10000ae8 <adapter_port_status_led+0x10>
10000b00:	4b0b      	ldr	r3, [pc, #44]	; (10000b30 <adapter_port_status_led+0x58>)
10000b02:	5d1a      	ldrb	r2, [r3, r4]
10000b04:	0123      	lsls	r3, r4, #4
10000b06:	18eb      	adds	r3, r5, r3
10000b08:	689b      	ldr	r3, [r3, #8]
10000b0a:	43db      	mvns	r3, r3
10000b0c:	0fdb      	lsrs	r3, r3, #31
10000b0e:	429a      	cmp	r2, r3
10000b10:	d0f2      	beq.n	10000af8 <adapter_port_status_led+0x20>
10000b12:	4a07      	ldr	r2, [pc, #28]	; (10000b30 <adapter_port_status_led+0x58>)
10000b14:	5513      	strb	r3, [r2, r4]
10000b16:	2b00      	cmp	r3, #0
10000b18:	d0e7      	beq.n	10000aea <adapter_port_status_led+0x12>
10000b1a:	0021      	movs	r1, r4
10000b1c:	4805      	ldr	r0, [pc, #20]	; (10000b34 <adapter_port_status_led+0x5c>)
10000b1e:	f7ff fdf9 	bl	10000714 <rgb_set_single>
10000b22:	e7e7      	b.n	10000af4 <adapter_port_status_led+0x1c>
10000b24:	2400      	movs	r4, #0
10000b26:	e7e9      	b.n	10000afc <adapter_port_status_led+0x24>
10000b28:	20001608 	.word	0x20001608
10000b2c:	000186a0 	.word	0x000186a0
10000b30:	20001664 	.word	0x20001664
10000b34:	a1a1a100 	.word	0xa1a1a100

10000b38 <adapter_comms_task>:
10000b38:	b570      	push	{r4, r5, r6, lr}
10000b3a:	0004      	movs	r4, r0
10000b3c:	4b26      	ldr	r3, [pc, #152]	; (10000bd8 <adapter_comms_task+0xa0>)
10000b3e:	781b      	ldrb	r3, [r3, #0]
10000b40:	2b00      	cmp	r3, #0
10000b42:	d12f      	bne.n	10000ba4 <adapter_comms_task+0x6c>
10000b44:	4b24      	ldr	r3, [pc, #144]	; (10000bd8 <adapter_comms_task+0xa0>)
10000b46:	781a      	ldrb	r2, [r3, #0]
10000b48:	4b24      	ldr	r3, [pc, #144]	; (10000bdc <adapter_comms_task+0xa4>)
10000b4a:	6819      	ldr	r1, [r3, #0]
10000b4c:	4b24      	ldr	r3, [pc, #144]	; (10000be0 <adapter_comms_task+0xa8>)
10000b4e:	0020      	movs	r0, r4
10000b50:	f7ff fe11 	bl	10000776 <interval_resettable_run>
10000b54:	2800      	cmp	r0, #0
10000b56:	d009      	beq.n	10000b6c <adapter_comms_task+0x34>
10000b58:	4b22      	ldr	r3, [pc, #136]	; (10000be4 <adapter_comms_task+0xac>)
10000b5a:	781a      	ldrb	r2, [r3, #0]
10000b5c:	4b22      	ldr	r3, [pc, #136]	; (10000be8 <adapter_comms_task+0xb0>)
10000b5e:	781b      	ldrb	r3, [r3, #0]
10000b60:	429a      	cmp	r2, r3
10000b62:	d328      	bcc.n	10000bb6 <adapter_comms_task+0x7e>
10000b64:	4a1f      	ldr	r2, [pc, #124]	; (10000be4 <adapter_comms_task+0xac>)
10000b66:	7813      	ldrb	r3, [r2, #0]
10000b68:	3301      	adds	r3, #1
10000b6a:	7013      	strb	r3, [r2, #0]
10000b6c:	4b1a      	ldr	r3, [pc, #104]	; (10000bd8 <adapter_comms_task+0xa0>)
10000b6e:	2200      	movs	r2, #0
10000b70:	701a      	strb	r2, [r3, #0]
10000b72:	0020      	movs	r0, r4
10000b74:	f7ff fede 	bl	10000934 <adapter_usb_is_clear>
10000b78:	2800      	cmp	r0, #0
10000b7a:	d005      	beq.n	10000b88 <adapter_comms_task+0x50>
10000b7c:	4b19      	ldr	r3, [pc, #100]	; (10000be4 <adapter_comms_task+0xac>)
10000b7e:	781a      	ldrb	r2, [r3, #0]
10000b80:	4b19      	ldr	r3, [pc, #100]	; (10000be8 <adapter_comms_task+0xb0>)
10000b82:	781b      	ldrb	r3, [r3, #0]
10000b84:	429a      	cmp	r2, r3
10000b86:	d21a      	bcs.n	10000bbe <adapter_comms_task+0x86>
10000b88:	2001      	movs	r0, #1
10000b8a:	2100      	movs	r1, #0
10000b8c:	4240      	negs	r0, r0
10000b8e:	f007 fa81 	bl	10008094 <tud_task_ext>
10000b92:	4d16      	ldr	r5, [pc, #88]	; (10000bec <adapter_comms_task+0xb4>)
10000b94:	6828      	ldr	r0, [r5, #0]
10000b96:	f7ff ff95 	bl	10000ac4 <adapter_usb_idle>
10000b9a:	6829      	ldr	r1, [r5, #0]
10000b9c:	0020      	movs	r0, r4
10000b9e:	f7ff ff9b 	bl	10000ad8 <adapter_port_status_led>
10000ba2:	bd70      	pop	{r4, r5, r6, pc}
10000ba4:	4811      	ldr	r0, [pc, #68]	; (10000bec <adapter_comms_task+0xb4>)
10000ba6:	f7ff fbaf 	bl	10000308 <joybus_itf_poll>
10000baa:	4b0e      	ldr	r3, [pc, #56]	; (10000be4 <adapter_comms_task+0xac>)
10000bac:	2200      	movs	r2, #0
10000bae:	701a      	strb	r2, [r3, #0]
10000bb0:	3201      	adds	r2, #1
10000bb2:	701a      	strb	r2, [r3, #0]
10000bb4:	e7c6      	b.n	10000b44 <adapter_comms_task+0xc>
10000bb6:	480d      	ldr	r0, [pc, #52]	; (10000bec <adapter_comms_task+0xb4>)
10000bb8:	f7ff fba6 	bl	10000308 <joybus_itf_poll>
10000bbc:	e7d2      	b.n	10000b64 <adapter_comms_task+0x2c>
10000bbe:	4b09      	ldr	r3, [pc, #36]	; (10000be4 <adapter_comms_task+0xac>)
10000bc0:	2200      	movs	r2, #0
10000bc2:	701a      	strb	r2, [r3, #0]
10000bc4:	4b04      	ldr	r3, [pc, #16]	; (10000bd8 <adapter_comms_task+0xa0>)
10000bc6:	3201      	adds	r2, #1
10000bc8:	701a      	strb	r2, [r3, #0]
10000bca:	f7ff fed9 	bl	10000980 <adapter_usb_unset_clear>
10000bce:	4b07      	ldr	r3, [pc, #28]	; (10000bec <adapter_comms_task+0xb4>)
10000bd0:	6818      	ldr	r0, [r3, #0]
10000bd2:	f7ff ff6d 	bl	10000ab0 <adapter_usb_report>
10000bd6:	e7d7      	b.n	10000b88 <adapter_comms_task+0x50>
10000bd8:	20002733 	.word	0x20002733
10000bdc:	20000d30 	.word	0x20000d30
10000be0:	20001618 	.word	0x20001618
10000be4:	2000272b 	.word	0x2000272b
10000be8:	20000d34 	.word	0x20000d34
10000bec:	20001068 	.word	0x20001068

10000bf0 <adapter_main_init>:
10000bf0:	b500      	push	{lr}
10000bf2:	b083      	sub	sp, #12
10000bf4:	f7ff fe4c 	bl	10000890 <adapter_ll_hardware_setup>
10000bf8:	f000 fe64 	bl	100018c4 <switch_analog_calibration_init>
10000bfc:	f7ff fd90 	bl	10000720 <rgb_init>
10000c00:	f7ff fda2 	bl	10000748 <joybus_init>
10000c04:	2300      	movs	r3, #0
10000c06:	9301      	str	r3, [sp, #4]
10000c08:	a801      	add	r0, sp, #4
10000c0a:	f7ff fe2f 	bl	1000086c <adapter_ll_get_reboot_memory>
10000c0e:	f000 fa5d 	bl	100010cc <settings_load>
10000c12:	2800      	cmp	r0, #0
10000c14:	d03f      	beq.n	10000c96 <adapter_main_init+0xa6>
10000c16:	4b23      	ldr	r3, [pc, #140]	; (10000ca4 <adapter_main_init+0xb4>)
10000c18:	789b      	ldrb	r3, [r3, #2]
10000c1a:	2b00      	cmp	r3, #0
10000c1c:	d01d      	beq.n	10000c5a <adapter_main_init+0x6a>
10000c1e:	ab01      	add	r3, sp, #4
10000c20:	781b      	ldrb	r3, [r3, #0]
10000c22:	2b01      	cmp	r3, #1
10000c24:	d027      	beq.n	10000c76 <adapter_main_init+0x86>
10000c26:	4b1f      	ldr	r3, [pc, #124]	; (10000ca4 <adapter_main_init+0xb4>)
10000c28:	78db      	ldrb	r3, [r3, #3]
10000c2a:	2b02      	cmp	r3, #2
10000c2c:	d02f      	beq.n	10000c8e <adapter_main_init+0x9e>
10000c2e:	2b03      	cmp	r3, #3
10000c30:	d024      	beq.n	10000c7c <adapter_main_init+0x8c>
10000c32:	2b01      	cmp	r3, #1
10000c34:	d026      	beq.n	10000c84 <adapter_main_init+0x94>
10000c36:	481c      	ldr	r0, [pc, #112]	; (10000ca8 <adapter_main_init+0xb8>)
10000c38:	f7ff fd60 	bl	100006fc <rgb_set_all>
10000c3c:	f7ff fd58 	bl	100006f0 <rgb_set_dirty>
10000c40:	2001      	movs	r0, #1
10000c42:	f7ff fee1 	bl	10000a08 <adapter_usb_start>
10000c46:	2800      	cmp	r0, #0
10000c48:	d129      	bne.n	10000c9e <adapter_main_init+0xae>
10000c4a:	20ff      	movs	r0, #255	; 0xff
10000c4c:	0400      	lsls	r0, r0, #16
10000c4e:	f7ff fd55 	bl	100006fc <rgb_set_all>
10000c52:	f7ff fd4d 	bl	100006f0 <rgb_set_dirty>
10000c56:	b003      	add	sp, #12
10000c58:	bd00      	pop	{pc}
10000c5a:	f7ff fb53 	bl	10000304 <cb_adapter_hardware_test>
10000c5e:	2800      	cmp	r0, #0
10000c60:	d103      	bne.n	10000c6a <adapter_main_init+0x7a>
10000c62:	4812      	ldr	r0, [pc, #72]	; (10000cac <adapter_main_init+0xbc>)
10000c64:	f7ff fd4a 	bl	100006fc <rgb_set_all>
10000c68:	e7fe      	b.n	10000c68 <adapter_main_init+0x78>
10000c6a:	4b0e      	ldr	r3, [pc, #56]	; (10000ca4 <adapter_main_init+0xb4>)
10000c6c:	2201      	movs	r2, #1
10000c6e:	709a      	strb	r2, [r3, #2]
10000c70:	f000 fa08 	bl	10001084 <settings_save>
10000c74:	e7d3      	b.n	10000c1e <adapter_main_init+0x2e>
10000c76:	ab01      	add	r3, sp, #4
10000c78:	785b      	ldrb	r3, [r3, #1]
10000c7a:	e7d6      	b.n	10000c2a <adapter_main_init+0x3a>
10000c7c:	480c      	ldr	r0, [pc, #48]	; (10000cb0 <adapter_main_init+0xc0>)
10000c7e:	f7ff fd3d 	bl	100006fc <rgb_set_all>
10000c82:	e7db      	b.n	10000c3c <adapter_main_init+0x4c>
10000c84:	20ff      	movs	r0, #255	; 0xff
10000c86:	0600      	lsls	r0, r0, #24
10000c88:	f7ff fd38 	bl	100006fc <rgb_set_all>
10000c8c:	e7d6      	b.n	10000c3c <adapter_main_init+0x4c>
10000c8e:	4809      	ldr	r0, [pc, #36]	; (10000cb4 <adapter_main_init+0xc4>)
10000c90:	f7ff fd34 	bl	100006fc <rgb_set_all>
10000c94:	e7d2      	b.n	10000c3c <adapter_main_init+0x4c>
10000c96:	4805      	ldr	r0, [pc, #20]	; (10000cac <adapter_main_init+0xbc>)
10000c98:	f7ff fd30 	bl	100006fc <rgb_set_all>
10000c9c:	e7fe      	b.n	10000c9c <adapter_main_init+0xac>
10000c9e:	f7ff fe01 	bl	100008a4 <adapter_ll_usb_task_start>
10000ca2:	e7d8      	b.n	10000c56 <adapter_main_init+0x66>
10000ca4:	200020b4 	.word	0x200020b4
10000ca8:	e6ff0000 	.word	0xe6ff0000
10000cac:	4dff0000 	.word	0x4dff0000
10000cb0:	ff15f100 	.word	0xff15f100
10000cb4:	0061ff00 	.word	0x0061ff00

10000cb8 <adapter_main_loop>:
10000cb8:	b510      	push	{r4, lr}
10000cba:	f7ff fded 	bl	10000898 <adapter_ll_get_timestamp_us>
10000cbe:	0004      	movs	r4, r0
10000cc0:	f7ff fd88 	bl	100007d4 <adapter_ll_save_check>
10000cc4:	0020      	movs	r0, r4
10000cc6:	f7ff fd2f 	bl	10000728 <rgb_task>
10000cca:	0020      	movs	r0, r4
10000ccc:	f7ff ff34 	bl	10000b38 <adapter_comms_task>
10000cd0:	0020      	movs	r0, r4
10000cd2:	f7ff fe89 	bl	100009e8 <adapter_mode_cycle_task>
10000cd6:	e7f0      	b.n	10000cba <adapter_main_loop+0x2>

10000cd8 <tud_suspend_cb>:
10000cd8:	4770      	bx	lr
	...

10000cdc <tud_descriptor_device_cb>:
10000cdc:	b510      	push	{r4, lr}
10000cde:	f7ff fe8d 	bl	100009fc <adapter_get_current_mode>
10000ce2:	2801      	cmp	r0, #1
10000ce4:	d00a      	beq.n	10000cfc <tud_descriptor_device_cb+0x20>
10000ce6:	b243      	sxtb	r3, r0
10000ce8:	2b00      	cmp	r3, #0
10000cea:	d009      	beq.n	10000d00 <tud_descriptor_device_cb+0x24>
10000cec:	3802      	subs	r0, #2
10000cee:	b2c0      	uxtb	r0, r0
10000cf0:	2801      	cmp	r0, #1
10000cf2:	d801      	bhi.n	10000cf8 <tud_descriptor_device_cb+0x1c>
10000cf4:	4803      	ldr	r0, [pc, #12]	; (10000d04 <tud_descriptor_device_cb+0x28>)
10000cf6:	bd10      	pop	{r4, pc}
10000cf8:	4803      	ldr	r0, [pc, #12]	; (10000d08 <tud_descriptor_device_cb+0x2c>)
10000cfa:	e7fc      	b.n	10000cf6 <tud_descriptor_device_cb+0x1a>
10000cfc:	4803      	ldr	r0, [pc, #12]	; (10000d0c <tud_descriptor_device_cb+0x30>)
10000cfe:	e7fa      	b.n	10000cf6 <tud_descriptor_device_cb+0x1a>
10000d00:	4801      	ldr	r0, [pc, #4]	; (10000d08 <tud_descriptor_device_cb+0x2c>)
10000d02:	e7f8      	b.n	10000cf6 <tud_descriptor_device_cb+0x1a>
10000d04:	10009f00 	.word	0x10009f00
10000d08:	1000a4e8 	.word	0x1000a4e8
10000d0c:	10009e24 	.word	0x10009e24

10000d10 <tud_descriptor_configuration_cb>:
10000d10:	b510      	push	{r4, lr}
10000d12:	f7ff fe73 	bl	100009fc <adapter_get_current_mode>
10000d16:	2802      	cmp	r0, #2
10000d18:	d007      	beq.n	10000d2a <tud_descriptor_configuration_cb+0x1a>
10000d1a:	2803      	cmp	r0, #3
10000d1c:	d007      	beq.n	10000d2e <tud_descriptor_configuration_cb+0x1e>
10000d1e:	2801      	cmp	r0, #1
10000d20:	d001      	beq.n	10000d26 <tud_descriptor_configuration_cb+0x16>
10000d22:	4804      	ldr	r0, [pc, #16]	; (10000d34 <tud_descriptor_configuration_cb+0x24>)
10000d24:	bd10      	pop	{r4, pc}
10000d26:	4804      	ldr	r0, [pc, #16]	; (10000d38 <tud_descriptor_configuration_cb+0x28>)
10000d28:	e7fc      	b.n	10000d24 <tud_descriptor_configuration_cb+0x14>
10000d2a:	4804      	ldr	r0, [pc, #16]	; (10000d3c <tud_descriptor_configuration_cb+0x2c>)
10000d2c:	e7fa      	b.n	10000d24 <tud_descriptor_configuration_cb+0x14>
10000d2e:	4804      	ldr	r0, [pc, #16]	; (10000d40 <tud_descriptor_configuration_cb+0x30>)
10000d30:	e7f8      	b.n	10000d24 <tud_descriptor_configuration_cb+0x14>
10000d32:	46c0      	nop			; (mov r8, r8)
10000d34:	1000a4a8 	.word	0x1000a4a8
10000d38:	10009df4 	.word	0x10009df4
10000d3c:	10009ed4 	.word	0x10009ed4
10000d40:	10009f14 	.word	0x10009f14

10000d44 <tud_hid_get_report_cb>:
10000d44:	2000      	movs	r0, #0
10000d46:	4770      	bx	lr

10000d48 <tud_hid_report_complete_cb>:
10000d48:	b570      	push	{r4, r5, r6, lr}
10000d4a:	0004      	movs	r4, r0
10000d4c:	000d      	movs	r5, r1
10000d4e:	f7ff fe55 	bl	100009fc <adapter_get_current_mode>
10000d52:	2800      	cmp	r0, #0
10000d54:	d014      	beq.n	10000d80 <tud_hid_report_complete_cb+0x38>
10000d56:	3802      	subs	r0, #2
10000d58:	b2c0      	uxtb	r0, r0
10000d5a:	2801      	cmp	r0, #1
10000d5c:	d819      	bhi.n	10000d92 <tud_hid_report_complete_cb+0x4a>
10000d5e:	782b      	ldrb	r3, [r5, #0]
10000d60:	2b21      	cmp	r3, #33	; 0x21
10000d62:	d000      	beq.n	10000d66 <tud_hid_report_complete_cb+0x1e>
10000d64:	bd70      	pop	{r4, r5, r6, pc}
10000d66:	2000      	movs	r0, #0
10000d68:	f7ff fe00 	bl	1000096c <adapter_usb_set_clear>
10000d6c:	2001      	movs	r0, #1
10000d6e:	f7ff fdfd 	bl	1000096c <adapter_usb_set_clear>
10000d72:	2002      	movs	r0, #2
10000d74:	f7ff fdfa 	bl	1000096c <adapter_usb_set_clear>
10000d78:	2003      	movs	r0, #3
10000d7a:	f7ff fdf7 	bl	1000096c <adapter_usb_set_clear>
10000d7e:	e7f1      	b.n	10000d64 <tud_hid_report_complete_cb+0x1c>
10000d80:	782b      	ldrb	r3, [r5, #0]
10000d82:	2b30      	cmp	r3, #48	; 0x30
10000d84:	d001      	beq.n	10000d8a <tud_hid_report_complete_cb+0x42>
10000d86:	2b21      	cmp	r3, #33	; 0x21
10000d88:	d1ec      	bne.n	10000d64 <tud_hid_report_complete_cb+0x1c>
10000d8a:	0020      	movs	r0, r4
10000d8c:	f7ff fdee 	bl	1000096c <adapter_usb_set_clear>
10000d90:	e7e8      	b.n	10000d64 <tud_hid_report_complete_cb+0x1c>
10000d92:	782b      	ldrb	r3, [r5, #0]
10000d94:	2b00      	cmp	r3, #0
10000d96:	d1e5      	bne.n	10000d64 <tud_hid_report_complete_cb+0x1c>
10000d98:	0020      	movs	r0, r4
10000d9a:	f7ff fde7 	bl	1000096c <adapter_usb_set_clear>
10000d9e:	e7e1      	b.n	10000d64 <tud_hid_report_complete_cb+0x1c>

10000da0 <tud_hid_set_report_cb>:
10000da0:	b5f0      	push	{r4, r5, r6, r7, lr}
10000da2:	b083      	sub	sp, #12
10000da4:	9001      	str	r0, [sp, #4]
10000da6:	000f      	movs	r7, r1
10000da8:	0015      	movs	r5, r2
10000daa:	001c      	movs	r4, r3
10000dac:	ab08      	add	r3, sp, #32
10000dae:	881e      	ldrh	r6, [r3, #0]
10000db0:	f7ff fe24 	bl	100009fc <adapter_get_current_mode>
10000db4:	2801      	cmp	r0, #1
10000db6:	d03e      	beq.n	10000e36 <tud_hid_set_report_cb+0x96>
10000db8:	d80e      	bhi.n	10000dd8 <tud_hid_set_report_cb+0x38>
10000dba:	2800      	cmp	r0, #0
10000dbc:	d117      	bne.n	10000dee <tud_hid_set_report_cb+0x4e>
10000dbe:	2f00      	cmp	r7, #0
10000dc0:	d115      	bne.n	10000dee <tud_hid_set_report_cb+0x4e>
10000dc2:	2d00      	cmp	r5, #0
10000dc4:	d113      	bne.n	10000dee <tud_hid_set_report_cb+0x4e>
10000dc6:	7821      	ldrb	r1, [r4, #0]
10000dc8:	2910      	cmp	r1, #16
10000dca:	d02f      	beq.n	10000e2c <tud_hid_set_report_cb+0x8c>
10000dcc:	0033      	movs	r3, r6
10000dce:	0022      	movs	r2, r4
10000dd0:	9801      	ldr	r0, [sp, #4]
10000dd2:	f001 f87b 	bl	10001ecc <switch_commands_future_handle>
10000dd6:	e00a      	b.n	10000dee <tud_hid_set_report_cb+0x4e>
10000dd8:	3802      	subs	r0, #2
10000dda:	b2c0      	uxtb	r0, r0
10000ddc:	2801      	cmp	r0, #1
10000dde:	d806      	bhi.n	10000dee <tud_hid_set_report_cb+0x4e>
10000de0:	2f00      	cmp	r7, #0
10000de2:	d104      	bne.n	10000dee <tud_hid_set_report_cb+0x4e>
10000de4:	2d00      	cmp	r5, #0
10000de6:	d102      	bne.n	10000dee <tud_hid_set_report_cb+0x4e>
10000de8:	7823      	ldrb	r3, [r4, #0]
10000dea:	2b11      	cmp	r3, #17
10000dec:	d001      	beq.n	10000df2 <tud_hid_set_report_cb+0x52>
10000dee:	b003      	add	sp, #12
10000df0:	bdf0      	pop	{r4, r5, r6, r7, pc}
10000df2:	7861      	ldrb	r1, [r4, #1]
10000df4:	1e4b      	subs	r3, r1, #1
10000df6:	4199      	sbcs	r1, r3
10000df8:	b2c9      	uxtb	r1, r1
10000dfa:	2000      	movs	r0, #0
10000dfc:	f7ff fb9a 	bl	10000534 <joybus_itf_enable_rumble>
10000e00:	78a1      	ldrb	r1, [r4, #2]
10000e02:	1e4b      	subs	r3, r1, #1
10000e04:	4199      	sbcs	r1, r3
10000e06:	b2c9      	uxtb	r1, r1
10000e08:	2001      	movs	r0, #1
10000e0a:	f7ff fb93 	bl	10000534 <joybus_itf_enable_rumble>
10000e0e:	78e1      	ldrb	r1, [r4, #3]
10000e10:	1e4b      	subs	r3, r1, #1
10000e12:	4199      	sbcs	r1, r3
10000e14:	b2c9      	uxtb	r1, r1
10000e16:	2002      	movs	r0, #2
10000e18:	f7ff fb8c 	bl	10000534 <joybus_itf_enable_rumble>
10000e1c:	7921      	ldrb	r1, [r4, #4]
10000e1e:	1e4b      	subs	r3, r1, #1
10000e20:	4199      	sbcs	r1, r3
10000e22:	b2c9      	uxtb	r1, r1
10000e24:	2003      	movs	r0, #3
10000e26:	f7ff fb85 	bl	10000534 <joybus_itf_enable_rumble>
10000e2a:	e7e0      	b.n	10000dee <tud_hid_set_report_cb+0x4e>
10000e2c:	1ca1      	adds	r1, r4, #2
10000e2e:	9801      	ldr	r0, [sp, #4]
10000e30:	f000 fdf1 	bl	10001a16 <rumble_translate>
10000e34:	e7db      	b.n	10000dee <tud_hid_set_report_cb+0x4e>
10000e36:	2f00      	cmp	r7, #0
10000e38:	d1d9      	bne.n	10000dee <tud_hid_set_report_cb+0x4e>
10000e3a:	2d00      	cmp	r5, #0
10000e3c:	d1d7      	bne.n	10000dee <tud_hid_set_report_cb+0x4e>
10000e3e:	7823      	ldrb	r3, [r4, #0]
10000e40:	2b00      	cmp	r3, #0
10000e42:	d1d4      	bne.n	10000dee <tud_hid_set_report_cb+0x4e>
10000e44:	7863      	ldrb	r3, [r4, #1]
10000e46:	2b08      	cmp	r3, #8
10000e48:	d1d1      	bne.n	10000dee <tud_hid_set_report_cb+0x4e>
10000e4a:	78e3      	ldrb	r3, [r4, #3]
10000e4c:	2b00      	cmp	r3, #0
10000e4e:	d102      	bne.n	10000e56 <tud_hid_set_report_cb+0xb6>
10000e50:	7923      	ldrb	r3, [r4, #4]
10000e52:	2b00      	cmp	r3, #0
10000e54:	d004      	beq.n	10000e60 <tud_hid_set_report_cb+0xc0>
10000e56:	2101      	movs	r1, #1
10000e58:	9801      	ldr	r0, [sp, #4]
10000e5a:	f7ff fb6b 	bl	10000534 <joybus_itf_enable_rumble>
10000e5e:	e7c6      	b.n	10000dee <tud_hid_set_report_cb+0x4e>
10000e60:	2100      	movs	r1, #0
10000e62:	9801      	ldr	r0, [sp, #4]
10000e64:	f7ff fb66 	bl	10000534 <joybus_itf_enable_rumble>
10000e68:	e7c1      	b.n	10000dee <tud_hid_set_report_cb+0x4e>
	...

10000e6c <tud_hid_descriptor_report_cb>:
10000e6c:	b510      	push	{r4, lr}
10000e6e:	f7ff fdc5 	bl	100009fc <adapter_get_current_mode>
10000e72:	2800      	cmp	r0, #0
10000e74:	d007      	beq.n	10000e86 <tud_hid_descriptor_report_cb+0x1a>
10000e76:	3802      	subs	r0, #2
10000e78:	b2c0      	uxtb	r0, r0
10000e7a:	2801      	cmp	r0, #1
10000e7c:	d801      	bhi.n	10000e82 <tud_hid_descriptor_report_cb+0x16>
10000e7e:	4803      	ldr	r0, [pc, #12]	; (10000e8c <tud_hid_descriptor_report_cb+0x20>)
10000e80:	bd10      	pop	{r4, pc}
10000e82:	2000      	movs	r0, #0
10000e84:	e7fc      	b.n	10000e80 <tud_hid_descriptor_report_cb+0x14>
10000e86:	4802      	ldr	r0, [pc, #8]	; (10000e90 <tud_hid_descriptor_report_cb+0x24>)
10000e88:	e7fa      	b.n	10000e80 <tud_hid_descriptor_report_cb+0x14>
10000e8a:	46c0      	nop			; (mov r8, r8)
10000e8c:	10009e68 	.word	0x10009e68
10000e90:	1000a4fc 	.word	0x1000a4fc

10000e94 <usbd_app_driver_get_cb>:
10000e94:	b510      	push	{r4, lr}
10000e96:	7803      	ldrb	r3, [r0, #0]
10000e98:	3301      	adds	r3, #1
10000e9a:	7003      	strb	r3, [r0, #0]
10000e9c:	f7ff fdae 	bl	100009fc <adapter_get_current_mode>
10000ea0:	2801      	cmp	r0, #1
10000ea2:	d001      	beq.n	10000ea8 <usbd_app_driver_get_cb+0x14>
10000ea4:	4801      	ldr	r0, [pc, #4]	; (10000eac <usbd_app_driver_get_cb+0x18>)
10000ea6:	bd10      	pop	{r4, pc}
10000ea8:	4801      	ldr	r0, [pc, #4]	; (10000eb0 <usbd_app_driver_get_cb+0x1c>)
10000eaa:	e7fc      	b.n	10000ea6 <usbd_app_driver_get_cb+0x12>
10000eac:	10009f40 	.word	0x10009f40
10000eb0:	10009ddc 	.word	0x10009ddc

10000eb4 <tud_descriptor_string_cb>:
10000eb4:	b570      	push	{r4, r5, r6, lr}
10000eb6:	28ee      	cmp	r0, #238	; 0xee
10000eb8:	d024      	beq.n	10000f04 <tud_descriptor_string_cb+0x50>
10000eba:	2800      	cmp	r0, #0
10000ebc:	d025      	beq.n	10000f0a <tud_descriptor_string_cb+0x56>
10000ebe:	0080      	lsls	r0, r0, #2
10000ec0:	4b1e      	ldr	r3, [pc, #120]	; (10000f3c <tud_descriptor_string_cb+0x88>)
10000ec2:	58c5      	ldr	r5, [r0, r3]
10000ec4:	0028      	movs	r0, r5
10000ec6:	f008 fd83 	bl	100099d0 <strlen>
10000eca:	b2c0      	uxtb	r0, r0
10000ecc:	281f      	cmp	r0, #31
10000ece:	d900      	bls.n	10000ed2 <tud_descriptor_string_cb+0x1e>
10000ed0:	201f      	movs	r0, #31
10000ed2:	2300      	movs	r3, #0
10000ed4:	e027      	b.n	10000f26 <tud_descriptor_string_cb+0x72>
10000ed6:	1c5a      	adds	r2, r3, #1
10000ed8:	4c19      	ldr	r4, [pc, #100]	; (10000f40 <tud_descriptor_string_cb+0x8c>)
10000eda:	5ca1      	ldrb	r1, [r4, r2]
10000edc:	0209      	lsls	r1, r1, #8
10000ede:	5ce2      	ldrb	r2, [r4, r3]
10000ee0:	430a      	orrs	r2, r1
10000ee2:	0044      	lsls	r4, r0, #1
10000ee4:	4917      	ldr	r1, [pc, #92]	; (10000f44 <tud_descriptor_string_cb+0x90>)
10000ee6:	5262      	strh	r2, [r4, r1]
10000ee8:	3302      	adds	r3, #2
10000eea:	3001      	adds	r0, #1
10000eec:	2b11      	cmp	r3, #17
10000eee:	d9f2      	bls.n	10000ed6 <tud_descriptor_string_cb+0x22>
10000ef0:	4a15      	ldr	r2, [pc, #84]	; (10000f48 <tud_descriptor_string_cb+0x94>)
10000ef2:	4b14      	ldr	r3, [pc, #80]	; (10000f44 <tud_descriptor_string_cb+0x90>)
10000ef4:	cb13      	ldmia	r3!, {r0, r1, r4}
10000ef6:	c213      	stmia	r2!, {r0, r1, r4}
10000ef8:	0011      	movs	r1, r2
10000efa:	681a      	ldr	r2, [r3, #0]
10000efc:	600a      	str	r2, [r1, #0]
10000efe:	889b      	ldrh	r3, [r3, #4]
10000f00:	808b      	strh	r3, [r1, #4]
10000f02:	e019      	b.n	10000f38 <tud_descriptor_string_cb+0x84>
10000f04:	2000      	movs	r0, #0
10000f06:	2300      	movs	r3, #0
10000f08:	e7f0      	b.n	10000eec <tud_descriptor_string_cb+0x38>
10000f0a:	4b0c      	ldr	r3, [pc, #48]	; (10000f3c <tud_descriptor_string_cb+0x88>)
10000f0c:	6819      	ldr	r1, [r3, #0]
10000f0e:	2202      	movs	r2, #2
10000f10:	480e      	ldr	r0, [pc, #56]	; (10000f4c <tud_descriptor_string_cb+0x98>)
10000f12:	f005 fda9 	bl	10006a68 <__wrap___aeabi_memcpy>
10000f16:	2001      	movs	r0, #1
10000f18:	e007      	b.n	10000f2a <tud_descriptor_string_cb+0x76>
10000f1a:	1c5a      	adds	r2, r3, #1
10000f1c:	5cec      	ldrb	r4, [r5, r3]
10000f1e:	0051      	lsls	r1, r2, #1
10000f20:	4b09      	ldr	r3, [pc, #36]	; (10000f48 <tud_descriptor_string_cb+0x94>)
10000f22:	52cc      	strh	r4, [r1, r3]
10000f24:	b2d3      	uxtb	r3, r2
10000f26:	4298      	cmp	r0, r3
10000f28:	d8f7      	bhi.n	10000f1a <tud_descriptor_string_cb+0x66>
10000f2a:	3001      	adds	r0, #1
10000f2c:	0040      	lsls	r0, r0, #1
10000f2e:	23c0      	movs	r3, #192	; 0xc0
10000f30:	009b      	lsls	r3, r3, #2
10000f32:	4318      	orrs	r0, r3
10000f34:	4b04      	ldr	r3, [pc, #16]	; (10000f48 <tud_descriptor_string_cb+0x94>)
10000f36:	8018      	strh	r0, [r3, #0]
10000f38:	4803      	ldr	r0, [pc, #12]	; (10000f48 <tud_descriptor_string_cb+0x94>)
10000f3a:	bd70      	pop	{r4, r5, r6, pc}
10000f3c:	20000df8 	.word	0x20000df8
10000f40:	10009d2c 	.word	0x10009d2c
10000f44:	20001054 	.word	0x20001054
10000f48:	20001314 	.word	0x20001314
10000f4c:	20001316 	.word	0x20001316

10000f50 <tud_vendor_rx_cb>:
10000f50:	b510      	push	{r4, lr}
10000f52:	b090      	sub	sp, #64	; 0x40
10000f54:	0004      	movs	r4, r0
10000f56:	480a      	ldr	r0, [pc, #40]	; (10000f80 <tud_vendor_rx_cb+0x30>)
10000f58:	f005 fea6 	bl	10006ca8 <__wrap_puts>
10000f5c:	2300      	movs	r3, #0
10000f5e:	9300      	str	r3, [sp, #0]
10000f60:	223c      	movs	r2, #60	; 0x3c
10000f62:	2100      	movs	r1, #0
10000f64:	a801      	add	r0, sp, #4
10000f66:	f005 fd79 	bl	10006a5c <__wrap_memset>
10000f6a:	2240      	movs	r2, #64	; 0x40
10000f6c:	4669      	mov	r1, sp
10000f6e:	0020      	movs	r0, r4
10000f70:	f007 ffaa 	bl	10008ec8 <tud_vendor_n_read>
10000f74:	4668      	mov	r0, sp
10000f76:	f001 fb8d 	bl	10002694 <webusb_command_processor>
10000f7a:	b010      	add	sp, #64	; 0x40
10000f7c:	bd10      	pop	{r4, pc}
10000f7e:	46c0      	nop			; (mov r8, r8)
10000f80:	10009d00 	.word	0x10009d00

10000f84 <tud_vendor_control_xfer_cb>:
10000f84:	b5f0      	push	{r4, r5, r6, r7, lr}
10000f86:	b083      	sub	sp, #12
10000f88:	0005      	movs	r5, r0
10000f8a:	0014      	movs	r4, r2
10000f8c:	2901      	cmp	r1, #1
10000f8e:	d153      	bne.n	10001038 <tud_vendor_control_xfer_cb+0xb4>
10000f90:	7813      	ldrb	r3, [r2, #0]
10000f92:	065b      	lsls	r3, r3, #25
10000f94:	0f9b      	lsrs	r3, r3, #30
10000f96:	2b01      	cmp	r3, #1
10000f98:	d045      	beq.n	10001026 <tud_vendor_control_xfer_cb+0xa2>
10000f9a:	2b02      	cmp	r3, #2
10000f9c:	d003      	beq.n	10000fa6 <tud_vendor_control_xfer_cb+0x22>
10000f9e:	2b00      	cmp	r3, #0
10000fa0:	d001      	beq.n	10000fa6 <tud_vendor_control_xfer_cb+0x22>
10000fa2:	2000      	movs	r0, #0
10000fa4:	e049      	b.n	1000103a <tud_vendor_control_xfer_cb+0xb6>
10000fa6:	7863      	ldrb	r3, [r4, #1]
10000fa8:	2b02      	cmp	r3, #2
10000faa:	d024      	beq.n	10000ff6 <tud_vendor_control_xfer_cb+0x72>
10000fac:	2b07      	cmp	r3, #7
10000fae:	d003      	beq.n	10000fb8 <tud_vendor_control_xfer_cb+0x34>
10000fb0:	2b01      	cmp	r3, #1
10000fb2:	d019      	beq.n	10000fe8 <tud_vendor_control_xfer_cb+0x64>
10000fb4:	2000      	movs	r0, #0
10000fb6:	e040      	b.n	1000103a <tud_vendor_control_xfer_cb+0xb6>
10000fb8:	7922      	ldrb	r2, [r4, #4]
10000fba:	7963      	ldrb	r3, [r4, #5]
10000fbc:	021b      	lsls	r3, r3, #8
10000fbe:	4313      	orrs	r3, r2
10000fc0:	2b04      	cmp	r3, #4
10000fc2:	d003      	beq.n	10000fcc <tud_vendor_control_xfer_cb+0x48>
10000fc4:	2b05      	cmp	r3, #5
10000fc6:	d008      	beq.n	10000fda <tud_vendor_control_xfer_cb+0x56>
10000fc8:	2000      	movs	r0, #0
10000fca:	e036      	b.n	1000103a <tud_vendor_control_xfer_cb+0xb6>
10000fcc:	3324      	adds	r3, #36	; 0x24
10000fce:	4a1c      	ldr	r2, [pc, #112]	; (10001040 <tud_vendor_control_xfer_cb+0xbc>)
10000fd0:	0021      	movs	r1, r4
10000fd2:	0028      	movs	r0, r5
10000fd4:	f007 f982 	bl	100082dc <tud_control_xfer>
10000fd8:	e02f      	b.n	1000103a <tud_vendor_control_xfer_cb+0xb6>
10000fda:	338d      	adds	r3, #141	; 0x8d
10000fdc:	4a19      	ldr	r2, [pc, #100]	; (10001044 <tud_vendor_control_xfer_cb+0xc0>)
10000fde:	0021      	movs	r1, r4
10000fe0:	0028      	movs	r0, r5
10000fe2:	f007 f97b 	bl	100082dc <tud_control_xfer>
10000fe6:	e028      	b.n	1000103a <tud_vendor_control_xfer_cb+0xb6>
10000fe8:	231f      	movs	r3, #31
10000fea:	4a17      	ldr	r2, [pc, #92]	; (10001048 <tud_vendor_control_xfer_cb+0xc4>)
10000fec:	0021      	movs	r1, r4
10000fee:	0028      	movs	r0, r5
10000ff0:	f007 f974 	bl	100082dc <tud_control_xfer>
10000ff4:	e021      	b.n	1000103a <tud_vendor_control_xfer_cb+0xb6>
10000ff6:	7922      	ldrb	r2, [r4, #4]
10000ff8:	7963      	ldrb	r3, [r4, #5]
10000ffa:	021b      	lsls	r3, r3, #8
10000ffc:	4313      	orrs	r3, r2
10000ffe:	2b07      	cmp	r3, #7
10001000:	d001      	beq.n	10001006 <tud_vendor_control_xfer_cb+0x82>
10001002:	2000      	movs	r0, #0
10001004:	e019      	b.n	1000103a <tud_vendor_control_xfer_cb+0xb6>
10001006:	466b      	mov	r3, sp
10001008:	1d9f      	adds	r7, r3, #6
1000100a:	4e10      	ldr	r6, [pc, #64]	; (1000104c <tud_vendor_control_xfer_cb+0xc8>)
1000100c:	2202      	movs	r2, #2
1000100e:	0031      	movs	r1, r6
10001010:	0038      	movs	r0, r7
10001012:	f005 fd29 	bl	10006a68 <__wrap___aeabi_memcpy>
10001016:	883b      	ldrh	r3, [r7, #0]
10001018:	0032      	movs	r2, r6
1000101a:	3a08      	subs	r2, #8
1000101c:	0021      	movs	r1, r4
1000101e:	0028      	movs	r0, r5
10001020:	f007 f95c 	bl	100082dc <tud_control_xfer>
10001024:	e009      	b.n	1000103a <tud_vendor_control_xfer_cb+0xb6>
10001026:	7851      	ldrb	r1, [r2, #1]
10001028:	4809      	ldr	r0, [pc, #36]	; (10001050 <tud_vendor_control_xfer_cb+0xcc>)
1000102a:	f005 fe6d 	bl	10006d08 <__wrap_printf>
1000102e:	0021      	movs	r1, r4
10001030:	0028      	movs	r0, r5
10001032:	f007 f937 	bl	100082a4 <tud_control_status>
10001036:	e000      	b.n	1000103a <tud_vendor_control_xfer_cb+0xb6>
10001038:	2001      	movs	r0, #1
1000103a:	b003      	add	sp, #12
1000103c:	bdf0      	pop	{r4, r5, r6, r7, pc}
1000103e:	46c0      	nop			; (mov r8, r8)
10001040:	20000dcc 	.word	0x20000dcc
10001044:	20000d38 	.word	0x20000d38
10001048:	10009d40 	.word	0x10009d40
1000104c:	10009c54 	.word	0x10009c54
10001050:	10009d18 	.word	0x10009d18

10001054 <_generate_mac>:
10001054:	b570      	push	{r4, r5, r6, lr}
10001056:	2500      	movs	r5, #0
10001058:	e00f      	b.n	1000107a <_generate_mac+0x26>
1000105a:	f7ff fbf5 	bl	10000848 <adapter_ll_generate_random_8>
1000105e:	4c08      	ldr	r4, [pc, #32]	; (10001080 <_generate_mac+0x2c>)
10001060:	1964      	adds	r4, r4, r5
10001062:	7120      	strb	r0, [r4, #4]
10001064:	f7ff fbf0 	bl	10000848 <adapter_ll_generate_random_8>
10001068:	72a0      	strb	r0, [r4, #10]
1000106a:	f7ff fbed 	bl	10000848 <adapter_ll_generate_random_8>
1000106e:	7420      	strb	r0, [r4, #16]
10001070:	f7ff fbea 	bl	10000848 <adapter_ll_generate_random_8>
10001074:	75a0      	strb	r0, [r4, #22]
10001076:	3501      	adds	r5, #1
10001078:	b2ed      	uxtb	r5, r5
1000107a:	2d05      	cmp	r5, #5
1000107c:	d9ed      	bls.n	1000105a <_generate_mac+0x6>
1000107e:	bd70      	pop	{r4, r5, r6, pc}
10001080:	200020b4 	.word	0x200020b4

10001084 <settings_save>:
10001084:	b510      	push	{r4, lr}
10001086:	4802      	ldr	r0, [pc, #8]	; (10001090 <settings_save+0xc>)
10001088:	f7ff fb92 	bl	100007b0 <adapter_ll_write_settings_to_memory>
1000108c:	bd10      	pop	{r4, pc}
1000108e:	46c0      	nop			; (mov r8, r8)
10001090:	200020b4 	.word	0x200020b4

10001094 <settings_reset_to_default>:
10001094:	b530      	push	{r4, r5, lr}
10001096:	b089      	sub	sp, #36	; 0x24
10001098:	ac01      	add	r4, sp, #4
1000109a:	221c      	movs	r2, #28
1000109c:	2100      	movs	r1, #0
1000109e:	0020      	movs	r0, r4
100010a0:	f005 fcdc 	bl	10006a5c <__wrap_memset>
100010a4:	2303      	movs	r3, #3
100010a6:	8023      	strh	r3, [r4, #0]
100010a8:	4d07      	ldr	r5, [pc, #28]	; (100010c8 <settings_reset_to_default+0x34>)
100010aa:	002b      	movs	r3, r5
100010ac:	cc07      	ldmia	r4!, {r0, r1, r2}
100010ae:	c307      	stmia	r3!, {r0, r1, r2}
100010b0:	cc07      	ldmia	r4!, {r0, r1, r2}
100010b2:	c307      	stmia	r3!, {r0, r1, r2}
100010b4:	6822      	ldr	r2, [r4, #0]
100010b6:	601a      	str	r2, [r3, #0]
100010b8:	f7ff ffcc 	bl	10001054 <_generate_mac>
100010bc:	f7ff f922 	bl	10000304 <cb_adapter_hardware_test>
100010c0:	70a8      	strb	r0, [r5, #2]
100010c2:	b009      	add	sp, #36	; 0x24
100010c4:	bd30      	pop	{r4, r5, pc}
100010c6:	46c0      	nop			; (mov r8, r8)
100010c8:	200020b4 	.word	0x200020b4

100010cc <settings_load>:
100010cc:	b510      	push	{r4, lr}
100010ce:	4c08      	ldr	r4, [pc, #32]	; (100010f0 <settings_load+0x24>)
100010d0:	0020      	movs	r0, r4
100010d2:	f7ff fb77 	bl	100007c4 <adapter_ll_load_settings_from_memory>
100010d6:	8823      	ldrh	r3, [r4, #0]
100010d8:	2b03      	cmp	r3, #3
100010da:	d101      	bne.n	100010e0 <settings_load+0x14>
100010dc:	2001      	movs	r0, #1
100010de:	bd10      	pop	{r4, pc}
100010e0:	4804      	ldr	r0, [pc, #16]	; (100010f4 <settings_load+0x28>)
100010e2:	f005 fde1 	bl	10006ca8 <__wrap_puts>
100010e6:	f7ff ffd5 	bl	10001094 <settings_reset_to_default>
100010ea:	f7ff ffcb 	bl	10001084 <settings_save>
100010ee:	e7f5      	b.n	100010dc <settings_load+0x10>
100010f0:	200020b4 	.word	0x200020b4
100010f4:	10009dac 	.word	0x10009dac

100010f8 <xinputd_control_xfer_cb>:
100010f8:	2001      	movs	r0, #1
100010fa:	4770      	bx	lr

100010fc <xinputd_reset>:
100010fc:	b510      	push	{r4, lr}
100010fe:	2284      	movs	r2, #132	; 0x84
10001100:	0092      	lsls	r2, r2, #2
10001102:	2100      	movs	r1, #0
10001104:	4801      	ldr	r0, [pc, #4]	; (1000110c <xinputd_reset+0x10>)
10001106:	f005 fca9 	bl	10006a5c <__wrap_memset>
1000110a:	bd10      	pop	{r4, pc}
1000110c:	20001cb4 	.word	0x20001cb4

10001110 <xinputd_init>:
10001110:	b510      	push	{r4, lr}
10001112:	2000      	movs	r0, #0
10001114:	f7ff fff2 	bl	100010fc <xinputd_reset>
10001118:	bd10      	pop	{r4, pc}
	...

1000111c <xinputd_open>:
1000111c:	b5f0      	push	{r4, r5, r6, r7, lr}
1000111e:	b083      	sub	sp, #12
10001120:	0005      	movs	r5, r0
10001122:	000e      	movs	r6, r1
10001124:	0017      	movs	r7, r2
10001126:	f7ff fc69 	bl	100009fc <adapter_get_current_mode>
1000112a:	2801      	cmp	r0, #1
1000112c:	d138      	bne.n	100011a0 <xinputd_open+0x84>
1000112e:	7932      	ldrb	r2, [r6, #4]
10001130:	00d4      	lsls	r4, r2, #3
10001132:	1aa4      	subs	r4, r4, r2
10001134:	b2a4      	uxth	r4, r4
10001136:	3419      	adds	r4, #25
10001138:	b2a4      	uxth	r4, r4
1000113a:	42bc      	cmp	r4, r7
1000113c:	d834      	bhi.n	100011a8 <xinputd_open+0x8c>
1000113e:	2300      	movs	r3, #0
10001140:	2b03      	cmp	r3, #3
10001142:	d810      	bhi.n	10001166 <xinputd_open+0x4a>
10001144:	0158      	lsls	r0, r3, #5
10001146:	18c0      	adds	r0, r0, r3
10001148:	0080      	lsls	r0, r0, #2
1000114a:	4f1a      	ldr	r7, [pc, #104]	; (100011b4 <xinputd_open+0x98>)
1000114c:	1838      	adds	r0, r7, r0
1000114e:	7840      	ldrb	r0, [r0, #1]
10001150:	2800      	cmp	r0, #0
10001152:	d002      	beq.n	1000115a <xinputd_open+0x3e>
10001154:	3301      	adds	r3, #1
10001156:	b2db      	uxtb	r3, r3
10001158:	e7f2      	b.n	10001140 <xinputd_open+0x24>
1000115a:	015f      	lsls	r7, r3, #5
1000115c:	18ff      	adds	r7, r7, r3
1000115e:	00bf      	lsls	r7, r7, #2
10001160:	4914      	ldr	r1, [pc, #80]	; (100011b4 <xinputd_open+0x98>)
10001162:	187f      	adds	r7, r7, r1
10001164:	e000      	b.n	10001168 <xinputd_open+0x4c>
10001166:	2700      	movs	r7, #0
10001168:	2f00      	cmp	r7, #0
1000116a:	d01f      	beq.n	100011ac <xinputd_open+0x90>
1000116c:	7833      	ldrb	r3, [r6, #0]
1000116e:	18f1      	adds	r1, r6, r3
10001170:	5cf3      	ldrb	r3, [r6, r3]
10001172:	18c9      	adds	r1, r1, r3
10001174:	1c7b      	adds	r3, r7, #1
10001176:	9301      	str	r3, [sp, #4]
10001178:	1cbb      	adds	r3, r7, #2
1000117a:	9300      	str	r3, [sp, #0]
1000117c:	2303      	movs	r3, #3
1000117e:	0028      	movs	r0, r5
10001180:	f006 fcd0 	bl	10007b24 <usbd_open_edpt_pair>
10001184:	2800      	cmp	r0, #0
10001186:	d013      	beq.n	100011b0 <xinputd_open+0x94>
10001188:	78b3      	ldrb	r3, [r6, #2]
1000118a:	703b      	strb	r3, [r7, #0]
1000118c:	78b9      	ldrb	r1, [r7, #2]
1000118e:	2900      	cmp	r1, #0
10001190:	d007      	beq.n	100011a2 <xinputd_open+0x86>
10001192:	003a      	movs	r2, r7
10001194:	3244      	adds	r2, #68	; 0x44
10001196:	2340      	movs	r3, #64	; 0x40
10001198:	0028      	movs	r0, r5
1000119a:	f006 fd1d 	bl	10007bd8 <usbd_edpt_xfer>
1000119e:	e000      	b.n	100011a2 <xinputd_open+0x86>
100011a0:	2400      	movs	r4, #0
100011a2:	0020      	movs	r0, r4
100011a4:	b003      	add	sp, #12
100011a6:	bdf0      	pop	{r4, r5, r6, r7, pc}
100011a8:	2400      	movs	r4, #0
100011aa:	e7fa      	b.n	100011a2 <xinputd_open+0x86>
100011ac:	2400      	movs	r4, #0
100011ae:	e7f8      	b.n	100011a2 <xinputd_open+0x86>
100011b0:	2400      	movs	r4, #0
100011b2:	e7f6      	b.n	100011a2 <xinputd_open+0x86>
100011b4:	20001cb4 	.word	0x20001cb4

100011b8 <xinputd_xfer_cb>:
100011b8:	b5f0      	push	{r4, r5, r6, r7, lr}
100011ba:	46c6      	mov	lr, r8
100011bc:	b500      	push	{lr}
100011be:	b082      	sub	sp, #8
100011c0:	0004      	movs	r4, r0
100011c2:	2000      	movs	r0, #0
100011c4:	2803      	cmp	r0, #3
100011c6:	d811      	bhi.n	100011ec <xinputd_xfer_cb+0x34>
100011c8:	0142      	lsls	r2, r0, #5
100011ca:	1812      	adds	r2, r2, r0
100011cc:	0092      	lsls	r2, r2, #2
100011ce:	4d28      	ldr	r5, [pc, #160]	; (10001270 <xinputd_xfer_cb+0xb8>)
100011d0:	18aa      	adds	r2, r5, r2
100011d2:	7892      	ldrb	r2, [r2, #2]
100011d4:	428a      	cmp	r2, r1
100011d6:	d009      	beq.n	100011ec <xinputd_xfer_cb+0x34>
100011d8:	0142      	lsls	r2, r0, #5
100011da:	1812      	adds	r2, r2, r0
100011dc:	0092      	lsls	r2, r2, #2
100011de:	18aa      	adds	r2, r5, r2
100011e0:	7852      	ldrb	r2, [r2, #1]
100011e2:	428a      	cmp	r2, r1
100011e4:	d002      	beq.n	100011ec <xinputd_xfer_cb+0x34>
100011e6:	3001      	adds	r0, #1
100011e8:	b2c0      	uxtb	r0, r0
100011ea:	e7eb      	b.n	100011c4 <xinputd_xfer_cb+0xc>
100011ec:	2803      	cmp	r0, #3
100011ee:	d83b      	bhi.n	10001268 <xinputd_xfer_cb+0xb0>
100011f0:	0005      	movs	r5, r0
100011f2:	0142      	lsls	r2, r0, #5
100011f4:	1812      	adds	r2, r2, r0
100011f6:	0092      	lsls	r2, r2, #2
100011f8:	4e1d      	ldr	r6, [pc, #116]	; (10001270 <xinputd_xfer_cb+0xb8>)
100011fa:	18b2      	adds	r2, r6, r2
100011fc:	7852      	ldrb	r2, [r2, #1]
100011fe:	428a      	cmp	r2, r1
10001200:	d00c      	beq.n	1000121c <xinputd_xfer_cb+0x64>
10001202:	0142      	lsls	r2, r0, #5
10001204:	1812      	adds	r2, r2, r0
10001206:	0092      	lsls	r2, r2, #2
10001208:	4e19      	ldr	r6, [pc, #100]	; (10001270 <xinputd_xfer_cb+0xb8>)
1000120a:	18b2      	adds	r2, r6, r2
1000120c:	7892      	ldrb	r2, [r2, #2]
1000120e:	428a      	cmp	r2, r1
10001210:	d011      	beq.n	10001236 <xinputd_xfer_cb+0x7e>
10001212:	2001      	movs	r0, #1
10001214:	b002      	add	sp, #8
10001216:	bc80      	pop	{r7}
10001218:	46b8      	mov	r8, r7
1000121a:	bdf0      	pop	{r4, r5, r6, r7, pc}
1000121c:	4a15      	ldr	r2, [pc, #84]	; (10001274 <xinputd_xfer_cb+0xbc>)
1000121e:	2a00      	cmp	r2, #0
10001220:	d024      	beq.n	1000126c <xinputd_xfer_cb+0xb4>
10001222:	0141      	lsls	r1, r0, #5
10001224:	1809      	adds	r1, r1, r0
10001226:	0089      	lsls	r1, r1, #2
10001228:	1989      	adds	r1, r1, r6
1000122a:	3104      	adds	r1, #4
1000122c:	b29a      	uxth	r2, r3
1000122e:	f7ff fd8b 	bl	10000d48 <tud_hid_report_complete_cb>
10001232:	2001      	movs	r0, #1
10001234:	e7ee      	b.n	10001214 <xinputd_xfer_cb+0x5c>
10001236:	0147      	lsls	r7, r0, #5
10001238:	183e      	adds	r6, r7, r0
1000123a:	00b6      	lsls	r6, r6, #2
1000123c:	3640      	adds	r6, #64	; 0x40
1000123e:	4a0c      	ldr	r2, [pc, #48]	; (10001270 <xinputd_xfer_cb+0xb8>)
10001240:	4690      	mov	r8, r2
10001242:	4446      	add	r6, r8
10001244:	3604      	adds	r6, #4
10001246:	b29b      	uxth	r3, r3
10001248:	9300      	str	r3, [sp, #0]
1000124a:	0033      	movs	r3, r6
1000124c:	2200      	movs	r2, #0
1000124e:	2100      	movs	r1, #0
10001250:	f7ff fda6 	bl	10000da0 <tud_hid_set_report_cb>
10001254:	197f      	adds	r7, r7, r5
10001256:	00bf      	lsls	r7, r7, #2
10001258:	4447      	add	r7, r8
1000125a:	78b9      	ldrb	r1, [r7, #2]
1000125c:	2340      	movs	r3, #64	; 0x40
1000125e:	0032      	movs	r2, r6
10001260:	0020      	movs	r0, r4
10001262:	f006 fcb9 	bl	10007bd8 <usbd_edpt_xfer>
10001266:	e7d5      	b.n	10001214 <xinputd_xfer_cb+0x5c>
10001268:	2000      	movs	r0, #0
1000126a:	e7d3      	b.n	10001214 <xinputd_xfer_cb+0x5c>
1000126c:	2001      	movs	r0, #1
1000126e:	e7d1      	b.n	10001214 <xinputd_xfer_cb+0x5c>
10001270:	20001cb4 	.word	0x20001cb4
10001274:	10000d49 	.word	0x10000d49

10001278 <tud_xinput_n_getout>:
10001278:	b5f8      	push	{r3, r4, r5, r6, r7, lr}
1000127a:	0004      	movs	r4, r0
1000127c:	f006 fb9c 	bl	100079b8 <tud_mounted>
10001280:	2800      	cmp	r0, #0
10001282:	d103      	bne.n	1000128c <tud_xinput_n_getout+0x14>
10001284:	2300      	movs	r3, #0
10001286:	2b00      	cmp	r3, #0
10001288:	d108      	bne.n	1000129c <tud_xinput_n_getout+0x24>
1000128a:	bdf8      	pop	{r3, r4, r5, r6, r7, pc}
1000128c:	f006 fb9c 	bl	100079c8 <tud_suspended>
10001290:	2800      	cmp	r0, #0
10001292:	d101      	bne.n	10001298 <tud_xinput_n_getout+0x20>
10001294:	2301      	movs	r3, #1
10001296:	e7f6      	b.n	10001286 <tud_xinput_n_getout+0xe>
10001298:	2300      	movs	r3, #0
1000129a:	e7f4      	b.n	10001286 <tud_xinput_n_getout+0xe>
1000129c:	0163      	lsls	r3, r4, #5
1000129e:	191b      	adds	r3, r3, r4
100012a0:	009b      	lsls	r3, r3, #2
100012a2:	4a0f      	ldr	r2, [pc, #60]	; (100012e0 <tud_xinput_n_getout+0x68>)
100012a4:	18d3      	adds	r3, r2, r3
100012a6:	7899      	ldrb	r1, [r3, #2]
100012a8:	2000      	movs	r0, #0
100012aa:	f006 fcd1 	bl	10007c50 <usbd_edpt_busy>
100012ae:	2800      	cmp	r0, #0
100012b0:	d1eb      	bne.n	1000128a <tud_xinput_n_getout+0x12>
100012b2:	4f0b      	ldr	r7, [pc, #44]	; (100012e0 <tud_xinput_n_getout+0x68>)
100012b4:	0165      	lsls	r5, r4, #5
100012b6:	192e      	adds	r6, r5, r4
100012b8:	00b6      	lsls	r6, r6, #2
100012ba:	19be      	adds	r6, r7, r6
100012bc:	78b1      	ldrb	r1, [r6, #2]
100012be:	f006 fc63 	bl	10007b88 <usbd_edpt_claim>
100012c2:	192a      	adds	r2, r5, r4
100012c4:	0092      	lsls	r2, r2, #2
100012c6:	3240      	adds	r2, #64	; 0x40
100012c8:	19d2      	adds	r2, r2, r7
100012ca:	3204      	adds	r2, #4
100012cc:	78b1      	ldrb	r1, [r6, #2]
100012ce:	2340      	movs	r3, #64	; 0x40
100012d0:	2000      	movs	r0, #0
100012d2:	f006 fc81 	bl	10007bd8 <usbd_edpt_xfer>
100012d6:	78b1      	ldrb	r1, [r6, #2]
100012d8:	2000      	movs	r0, #0
100012da:	f006 fc69 	bl	10007bb0 <usbd_edpt_release>
100012de:	e7d4      	b.n	1000128a <tud_xinput_n_getout+0x12>
100012e0:	20001cb4 	.word	0x20001cb4

100012e4 <tud_xinput_n_report>:
100012e4:	b5f0      	push	{r4, r5, r6, r7, lr}
100012e6:	b083      	sub	sp, #12
100012e8:	0007      	movs	r7, r0
100012ea:	9101      	str	r1, [sp, #4]
100012ec:	0015      	movs	r5, r2
100012ee:	f006 fb6b 	bl	100079c8 <tud_suspended>
100012f2:	2800      	cmp	r0, #0
100012f4:	d10e      	bne.n	10001314 <tud_xinput_n_report+0x30>
100012f6:	017b      	lsls	r3, r7, #5
100012f8:	19db      	adds	r3, r3, r7
100012fa:	009b      	lsls	r3, r3, #2
100012fc:	4a16      	ldr	r2, [pc, #88]	; (10001358 <tud_xinput_n_report+0x74>)
100012fe:	18d3      	adds	r3, r2, r3
10001300:	785e      	ldrb	r6, [r3, #1]
10001302:	0031      	movs	r1, r6
10001304:	2000      	movs	r0, #0
10001306:	f006 fc3f 	bl	10007b88 <usbd_edpt_claim>
1000130a:	1e04      	subs	r4, r0, #0
1000130c:	d105      	bne.n	1000131a <tud_xinput_n_report+0x36>
1000130e:	0020      	movs	r0, r4
10001310:	b003      	add	sp, #12
10001312:	bdf0      	pop	{r4, r5, r6, r7, pc}
10001314:	f006 fb60 	bl	100079d8 <tud_remote_wakeup>
10001318:	e7ed      	b.n	100012f6 <tud_xinput_n_report+0x12>
1000131a:	1c2b      	adds	r3, r5, #0
1000131c:	2d40      	cmp	r5, #64	; 0x40
1000131e:	d900      	bls.n	10001322 <tud_xinput_n_report+0x3e>
10001320:	2340      	movs	r3, #64	; 0x40
10001322:	b29d      	uxth	r5, r3
10001324:	017c      	lsls	r4, r7, #5
10001326:	19e4      	adds	r4, r4, r7
10001328:	00a4      	lsls	r4, r4, #2
1000132a:	4b0b      	ldr	r3, [pc, #44]	; (10001358 <tud_xinput_n_report+0x74>)
1000132c:	18e4      	adds	r4, r4, r3
1000132e:	3404      	adds	r4, #4
10001330:	002a      	movs	r2, r5
10001332:	9901      	ldr	r1, [sp, #4]
10001334:	0020      	movs	r0, r4
10001336:	f005 fb97 	bl	10006a68 <__wrap___aeabi_memcpy>
1000133a:	002b      	movs	r3, r5
1000133c:	0022      	movs	r2, r4
1000133e:	0031      	movs	r1, r6
10001340:	2000      	movs	r0, #0
10001342:	f006 fc49 	bl	10007bd8 <usbd_edpt_xfer>
10001346:	0004      	movs	r4, r0
10001348:	0031      	movs	r1, r6
1000134a:	2000      	movs	r0, #0
1000134c:	f006 fc30 	bl	10007bb0 <usbd_edpt_release>
10001350:	0038      	movs	r0, r7
10001352:	f7ff ff91 	bl	10001278 <tud_xinput_n_getout>
10001356:	e7da      	b.n	1000130e <tud_xinput_n_report+0x2a>
10001358:	20001cb4 	.word	0x20001cb4

1000135c <tud_xinput_n_ready>:
1000135c:	b510      	push	{r4, lr}
1000135e:	0003      	movs	r3, r0
10001360:	0140      	lsls	r0, r0, #5
10001362:	18c0      	adds	r0, r0, r3
10001364:	0080      	lsls	r0, r0, #2
10001366:	4b11      	ldr	r3, [pc, #68]	; (100013ac <tud_xinput_n_ready+0x50>)
10001368:	1818      	adds	r0, r3, r0
1000136a:	7844      	ldrb	r4, [r0, #1]
1000136c:	f006 fb24 	bl	100079b8 <tud_mounted>
10001370:	2800      	cmp	r0, #0
10001372:	d106      	bne.n	10001382 <tud_xinput_n_ready+0x26>
10001374:	2300      	movs	r3, #0
10001376:	2b00      	cmp	r3, #0
10001378:	d013      	beq.n	100013a2 <tud_xinput_n_ready+0x46>
1000137a:	2c00      	cmp	r4, #0
1000137c:	d109      	bne.n	10001392 <tud_xinput_n_ready+0x36>
1000137e:	2000      	movs	r0, #0
10001380:	e010      	b.n	100013a4 <tud_xinput_n_ready+0x48>
10001382:	f006 fb21 	bl	100079c8 <tud_suspended>
10001386:	2800      	cmp	r0, #0
10001388:	d101      	bne.n	1000138e <tud_xinput_n_ready+0x32>
1000138a:	2301      	movs	r3, #1
1000138c:	e7f3      	b.n	10001376 <tud_xinput_n_ready+0x1a>
1000138e:	2300      	movs	r3, #0
10001390:	e7f1      	b.n	10001376 <tud_xinput_n_ready+0x1a>
10001392:	0021      	movs	r1, r4
10001394:	2000      	movs	r0, #0
10001396:	f006 fc5b 	bl	10007c50 <usbd_edpt_busy>
1000139a:	2800      	cmp	r0, #0
1000139c:	d103      	bne.n	100013a6 <tud_xinput_n_ready+0x4a>
1000139e:	3001      	adds	r0, #1
100013a0:	e000      	b.n	100013a4 <tud_xinput_n_ready+0x48>
100013a2:	2000      	movs	r0, #0
100013a4:	bd10      	pop	{r4, pc}
100013a6:	2000      	movs	r0, #0
100013a8:	e7fc      	b.n	100013a4 <tud_xinput_n_ready+0x48>
100013aa:	46c0      	nop			; (mov r8, r8)
100013ac:	20001cb4 	.word	0x20001cb4

100013b0 <ginputd_reset>:
100013b0:	b510      	push	{r4, lr}
100013b2:	223c      	movs	r2, #60	; 0x3c
100013b4:	2100      	movs	r1, #0
100013b6:	4802      	ldr	r0, [pc, #8]	; (100013c0 <ginputd_reset+0x10>)
100013b8:	f005 fb50 	bl	10006a5c <__wrap_memset>
100013bc:	bd10      	pop	{r4, pc}
100013be:	46c0      	nop			; (mov r8, r8)
100013c0:	20001394 	.word	0x20001394

100013c4 <ginputd_init>:
100013c4:	b510      	push	{r4, lr}
100013c6:	2000      	movs	r0, #0
100013c8:	f7ff fff2 	bl	100013b0 <ginputd_reset>
100013cc:	bd10      	pop	{r4, pc}
	...

100013d0 <ginputd_open>:
100013d0:	b5f0      	push	{r4, r5, r6, r7, lr}
100013d2:	b083      	sub	sp, #12
100013d4:	0005      	movs	r5, r0
100013d6:	000e      	movs	r6, r1
100013d8:	0017      	movs	r7, r2
100013da:	f7ff fb0f 	bl	100009fc <adapter_get_current_mode>
100013de:	2803      	cmp	r0, #3
100013e0:	d116      	bne.n	10001410 <ginputd_open+0x40>
100013e2:	7933      	ldrb	r3, [r6, #4]
100013e4:	00dc      	lsls	r4, r3, #3
100013e6:	1ae4      	subs	r4, r4, r3
100013e8:	b2a4      	uxth	r4, r4
100013ea:	3412      	adds	r4, #18
100013ec:	b2a4      	uxth	r4, r4
100013ee:	42bc      	cmp	r4, r7
100013f0:	d84c      	bhi.n	1000148c <ginputd_open+0xbc>
100013f2:	2300      	movs	r3, #0
100013f4:	2b00      	cmp	r3, #0
100013f6:	d011      	beq.n	1000141c <ginputd_open+0x4c>
100013f8:	2700      	movs	r7, #0
100013fa:	2f00      	cmp	r7, #0
100013fc:	d048      	beq.n	10001490 <ginputd_open+0xc0>
100013fe:	7831      	ldrb	r1, [r6, #0]
10001400:	1871      	adds	r1, r6, r1
10001402:	784b      	ldrb	r3, [r1, #1]
10001404:	2b21      	cmp	r3, #33	; 0x21
10001406:	d019      	beq.n	1000143c <ginputd_open+0x6c>
10001408:	2400      	movs	r4, #0
1000140a:	0020      	movs	r0, r4
1000140c:	b003      	add	sp, #12
1000140e:	bdf0      	pop	{r4, r5, r6, r7, pc}
10001410:	f7ff faf4 	bl	100009fc <adapter_get_current_mode>
10001414:	2802      	cmp	r0, #2
10001416:	d0e4      	beq.n	100013e2 <ginputd_open+0x12>
10001418:	2400      	movs	r4, #0
1000141a:	e7f6      	b.n	1000140a <ginputd_open+0x3a>
1000141c:	011a      	lsls	r2, r3, #4
1000141e:	1ad2      	subs	r2, r2, r3
10001420:	0092      	lsls	r2, r2, #2
10001422:	481d      	ldr	r0, [pc, #116]	; (10001498 <ginputd_open+0xc8>)
10001424:	1882      	adds	r2, r0, r2
10001426:	7852      	ldrb	r2, [r2, #1]
10001428:	2a00      	cmp	r2, #0
1000142a:	d002      	beq.n	10001432 <ginputd_open+0x62>
1000142c:	3301      	adds	r3, #1
1000142e:	b2db      	uxtb	r3, r3
10001430:	e7e0      	b.n	100013f4 <ginputd_open+0x24>
10001432:	011a      	lsls	r2, r3, #4
10001434:	1ad1      	subs	r1, r2, r3
10001436:	0089      	lsls	r1, r1, #2
10001438:	1847      	adds	r7, r0, r1
1000143a:	e7de      	b.n	100013fa <ginputd_open+0x2a>
1000143c:	63b9      	str	r1, [r7, #56]	; 0x38
1000143e:	780b      	ldrb	r3, [r1, #0]
10001440:	18c9      	adds	r1, r1, r3
10001442:	7932      	ldrb	r2, [r6, #4]
10001444:	1c7b      	adds	r3, r7, #1
10001446:	9301      	str	r3, [sp, #4]
10001448:	1cbb      	adds	r3, r7, #2
1000144a:	9300      	str	r3, [sp, #0]
1000144c:	2303      	movs	r3, #3
1000144e:	0028      	movs	r0, r5
10001450:	f006 fb68 	bl	10007b24 <usbd_open_edpt_pair>
10001454:	2800      	cmp	r0, #0
10001456:	d01d      	beq.n	10001494 <ginputd_open+0xc4>
10001458:	79b3      	ldrb	r3, [r6, #6]
1000145a:	2b01      	cmp	r3, #1
1000145c:	d013      	beq.n	10001486 <ginputd_open+0xb6>
1000145e:	2301      	movs	r3, #1
10001460:	713b      	strb	r3, [r7, #4]
10001462:	78b3      	ldrb	r3, [r6, #2]
10001464:	703b      	strb	r3, [r7, #0]
10001466:	6bba      	ldr	r2, [r7, #56]	; 0x38
10001468:	79d1      	ldrb	r1, [r2, #7]
1000146a:	7a13      	ldrb	r3, [r2, #8]
1000146c:	021b      	lsls	r3, r3, #8
1000146e:	430b      	orrs	r3, r1
10001470:	80fb      	strh	r3, [r7, #6]
10001472:	78b9      	ldrb	r1, [r7, #2]
10001474:	2900      	cmp	r1, #0
10001476:	d0c8      	beq.n	1000140a <ginputd_open+0x3a>
10001478:	003a      	movs	r2, r7
1000147a:	3230      	adds	r2, #48	; 0x30
1000147c:	2306      	movs	r3, #6
1000147e:	0028      	movs	r0, r5
10001480:	f006 fbaa 	bl	10007bd8 <usbd_edpt_xfer>
10001484:	e7c1      	b.n	1000140a <ginputd_open+0x3a>
10001486:	79f3      	ldrb	r3, [r6, #7]
10001488:	70fb      	strb	r3, [r7, #3]
1000148a:	e7e8      	b.n	1000145e <ginputd_open+0x8e>
1000148c:	2400      	movs	r4, #0
1000148e:	e7bc      	b.n	1000140a <ginputd_open+0x3a>
10001490:	2400      	movs	r4, #0
10001492:	e7ba      	b.n	1000140a <ginputd_open+0x3a>
10001494:	2400      	movs	r4, #0
10001496:	e7b8      	b.n	1000140a <ginputd_open+0x3a>
10001498:	20001394 	.word	0x20001394

1000149c <ginputd_xfer_cb>:
1000149c:	b570      	push	{r4, r5, r6, lr}
1000149e:	b082      	sub	sp, #8
100014a0:	0005      	movs	r5, r0
100014a2:	4c1d      	ldr	r4, [pc, #116]	; (10001518 <ginputd_xfer_cb+0x7c>)
100014a4:	2000      	movs	r0, #0
100014a6:	2800      	cmp	r0, #0
100014a8:	d00a      	beq.n	100014c0 <ginputd_xfer_cb+0x24>
100014aa:	2800      	cmp	r0, #0
100014ac:	d130      	bne.n	10001510 <ginputd_xfer_cb+0x74>
100014ae:	7862      	ldrb	r2, [r4, #1]
100014b0:	428a      	cmp	r2, r1
100014b2:	d013      	beq.n	100014dc <ginputd_xfer_cb+0x40>
100014b4:	78a2      	ldrb	r2, [r4, #2]
100014b6:	428a      	cmp	r2, r1
100014b8:	d01a      	beq.n	100014f0 <ginputd_xfer_cb+0x54>
100014ba:	2001      	movs	r0, #1
100014bc:	b002      	add	sp, #8
100014be:	bd70      	pop	{r4, r5, r6, pc}
100014c0:	0104      	lsls	r4, r0, #4
100014c2:	1a24      	subs	r4, r4, r0
100014c4:	00a4      	lsls	r4, r4, #2
100014c6:	4a14      	ldr	r2, [pc, #80]	; (10001518 <ginputd_xfer_cb+0x7c>)
100014c8:	1914      	adds	r4, r2, r4
100014ca:	78a2      	ldrb	r2, [r4, #2]
100014cc:	428a      	cmp	r2, r1
100014ce:	d0ec      	beq.n	100014aa <ginputd_xfer_cb+0xe>
100014d0:	7862      	ldrb	r2, [r4, #1]
100014d2:	428a      	cmp	r2, r1
100014d4:	d0e9      	beq.n	100014aa <ginputd_xfer_cb+0xe>
100014d6:	3001      	adds	r0, #1
100014d8:	b2c0      	uxtb	r0, r0
100014da:	e7e4      	b.n	100014a6 <ginputd_xfer_cb+0xa>
100014dc:	4a0f      	ldr	r2, [pc, #60]	; (1000151c <ginputd_xfer_cb+0x80>)
100014de:	2a00      	cmp	r2, #0
100014e0:	d018      	beq.n	10001514 <ginputd_xfer_cb+0x78>
100014e2:	0021      	movs	r1, r4
100014e4:	3108      	adds	r1, #8
100014e6:	b29a      	uxth	r2, r3
100014e8:	f7ff fc2e 	bl	10000d48 <tud_hid_report_complete_cb>
100014ec:	2001      	movs	r0, #1
100014ee:	e7e5      	b.n	100014bc <ginputd_xfer_cb+0x20>
100014f0:	0026      	movs	r6, r4
100014f2:	3630      	adds	r6, #48	; 0x30
100014f4:	b29b      	uxth	r3, r3
100014f6:	9300      	str	r3, [sp, #0]
100014f8:	0033      	movs	r3, r6
100014fa:	2200      	movs	r2, #0
100014fc:	2100      	movs	r1, #0
100014fe:	f7ff fc4f 	bl	10000da0 <tud_hid_set_report_cb>
10001502:	78a1      	ldrb	r1, [r4, #2]
10001504:	2306      	movs	r3, #6
10001506:	0032      	movs	r2, r6
10001508:	0028      	movs	r0, r5
1000150a:	f006 fb65 	bl	10007bd8 <usbd_edpt_xfer>
1000150e:	e7d5      	b.n	100014bc <ginputd_xfer_cb+0x20>
10001510:	2000      	movs	r0, #0
10001512:	e7d3      	b.n	100014bc <ginputd_xfer_cb+0x20>
10001514:	2001      	movs	r0, #1
10001516:	e7d1      	b.n	100014bc <ginputd_xfer_cb+0x20>
10001518:	20001394 	.word	0x20001394
1000151c:	10000d49 	.word	0x10000d49

10001520 <ginputd_control_xfer_cb>:
10001520:	b5f0      	push	{r4, r5, r6, r7, lr}
10001522:	46c6      	mov	lr, r8
10001524:	b500      	push	{lr}
10001526:	b082      	sub	sp, #8
10001528:	0006      	movs	r6, r0
1000152a:	0015      	movs	r5, r2
1000152c:	7812      	ldrb	r2, [r2, #0]
1000152e:	231f      	movs	r3, #31
10001530:	4013      	ands	r3, r2
10001532:	2b01      	cmp	r3, #1
10001534:	d000      	beq.n	10001538 <ginputd_control_xfer_cb+0x18>
10001536:	e11f      	b.n	10001778 <ginputd_control_xfer_cb+0x258>
10001538:	7928      	ldrb	r0, [r5, #4]
1000153a:	2400      	movs	r4, #0
1000153c:	2c00      	cmp	r4, #0
1000153e:	d00d      	beq.n	1000155c <ginputd_control_xfer_cb+0x3c>
10001540:	24ff      	movs	r4, #255	; 0xff
10001542:	2c00      	cmp	r4, #0
10001544:	d000      	beq.n	10001548 <ginputd_control_xfer_cb+0x28>
10001546:	e11c      	b.n	10001782 <ginputd_control_xfer_cb+0x262>
10001548:	0027      	movs	r7, r4
1000154a:	2360      	movs	r3, #96	; 0x60
1000154c:	0018      	movs	r0, r3
1000154e:	4010      	ands	r0, r2
10001550:	4213      	tst	r3, r2
10001552:	d139      	bne.n	100015c8 <ginputd_control_xfer_cb+0xa8>
10001554:	2901      	cmp	r1, #1
10001556:	d00b      	beq.n	10001570 <ginputd_control_xfer_cb+0x50>
10001558:	2001      	movs	r0, #1
1000155a:	e10e      	b.n	1000177a <ginputd_control_xfer_cb+0x25a>
1000155c:	0123      	lsls	r3, r4, #4
1000155e:	1b1b      	subs	r3, r3, r4
10001560:	009b      	lsls	r3, r3, #2
10001562:	4f8e      	ldr	r7, [pc, #568]	; (1000179c <ginputd_control_xfer_cb+0x27c>)
10001564:	5ddb      	ldrb	r3, [r3, r7]
10001566:	4298      	cmp	r0, r3
10001568:	d0eb      	beq.n	10001542 <ginputd_control_xfer_cb+0x22>
1000156a:	3401      	adds	r4, #1
1000156c:	b2e4      	uxtb	r4, r4
1000156e:	e7e5      	b.n	1000153c <ginputd_control_xfer_cb+0x1c>
10001570:	78ea      	ldrb	r2, [r5, #3]
10001572:	786b      	ldrb	r3, [r5, #1]
10001574:	2b06      	cmp	r3, #6
10001576:	d006      	beq.n	10001586 <ginputd_control_xfer_cb+0x66>
10001578:	2b06      	cmp	r3, #6
1000157a:	d000      	beq.n	1000157e <ginputd_control_xfer_cb+0x5e>
1000157c:	e105      	b.n	1000178a <ginputd_control_xfer_cb+0x26a>
1000157e:	2a22      	cmp	r2, #34	; 0x22
10001580:	d012      	beq.n	100015a8 <ginputd_control_xfer_cb+0x88>
10001582:	2000      	movs	r0, #0
10001584:	e0f9      	b.n	1000177a <ginputd_control_xfer_cb+0x25a>
10001586:	2a21      	cmp	r2, #33	; 0x21
10001588:	d1f6      	bne.n	10001578 <ginputd_control_xfer_cb+0x58>
1000158a:	0123      	lsls	r3, r4, #4
1000158c:	1b1f      	subs	r7, r3, r4
1000158e:	00bf      	lsls	r7, r7, #2
10001590:	4b82      	ldr	r3, [pc, #520]	; (1000179c <ginputd_control_xfer_cb+0x27c>)
10001592:	19df      	adds	r7, r3, r7
10001594:	6bba      	ldr	r2, [r7, #56]	; 0x38
10001596:	2a00      	cmp	r2, #0
10001598:	d100      	bne.n	1000159c <ginputd_control_xfer_cb+0x7c>
1000159a:	e0f4      	b.n	10001786 <ginputd_control_xfer_cb+0x266>
1000159c:	7813      	ldrb	r3, [r2, #0]
1000159e:	0029      	movs	r1, r5
100015a0:	0030      	movs	r0, r6
100015a2:	f006 fe9b 	bl	100082dc <tud_control_xfer>
100015a6:	e0e8      	b.n	1000177a <ginputd_control_xfer_cb+0x25a>
100015a8:	0020      	movs	r0, r4
100015aa:	f7ff fc5f 	bl	10000e6c <tud_hid_descriptor_report_cb>
100015ae:	0002      	movs	r2, r0
100015b0:	013b      	lsls	r3, r7, #4
100015b2:	1bdf      	subs	r7, r3, r7
100015b4:	00bf      	lsls	r7, r7, #2
100015b6:	4b79      	ldr	r3, [pc, #484]	; (1000179c <ginputd_control_xfer_cb+0x27c>)
100015b8:	19df      	adds	r7, r3, r7
100015ba:	88fb      	ldrh	r3, [r7, #6]
100015bc:	0029      	movs	r1, r5
100015be:	0030      	movs	r0, r6
100015c0:	f006 fe8c 	bl	100082dc <tud_control_xfer>
100015c4:	2001      	movs	r0, #1
100015c6:	e0d8      	b.n	1000177a <ginputd_control_xfer_cb+0x25a>
100015c8:	2820      	cmp	r0, #32
100015ca:	d000      	beq.n	100015ce <ginputd_control_xfer_cb+0xae>
100015cc:	e0df      	b.n	1000178e <ginputd_control_xfer_cb+0x26e>
100015ce:	786b      	ldrb	r3, [r5, #1]
100015d0:	2b0b      	cmp	r3, #11
100015d2:	d900      	bls.n	100015d6 <ginputd_control_xfer_cb+0xb6>
100015d4:	e0dd      	b.n	10001792 <ginputd_control_xfer_cb+0x272>
100015d6:	009b      	lsls	r3, r3, #2
100015d8:	4a71      	ldr	r2, [pc, #452]	; (100017a0 <ginputd_control_xfer_cb+0x280>)
100015da:	58d3      	ldr	r3, [r2, r3]
100015dc:	469f      	mov	pc, r3
100015de:	2901      	cmp	r1, #1
100015e0:	d001      	beq.n	100015e6 <ginputd_control_xfer_cb+0xc6>
100015e2:	2001      	movs	r0, #1
100015e4:	e0c9      	b.n	1000177a <ginputd_control_xfer_cb+0x25a>
100015e6:	78ea      	ldrb	r2, [r5, #3]
100015e8:	78a9      	ldrb	r1, [r5, #2]
100015ea:	0123      	lsls	r3, r4, #4
100015ec:	1b1b      	subs	r3, r3, r4
100015ee:	009b      	lsls	r3, r3, #2
100015f0:	3308      	adds	r3, #8
100015f2:	4f6a      	ldr	r7, [pc, #424]	; (1000179c <ginputd_control_xfer_cb+0x27c>)
100015f4:	18ff      	adds	r7, r7, r3
100015f6:	79a8      	ldrb	r0, [r5, #6]
100015f8:	79eb      	ldrb	r3, [r5, #7]
100015fa:	021b      	lsls	r3, r3, #8
100015fc:	4303      	orrs	r3, r0
100015fe:	1c18      	adds	r0, r3, #0
10001600:	2b25      	cmp	r3, #37	; 0x25
10001602:	d900      	bls.n	10001606 <ginputd_control_xfer_cb+0xe6>
10001604:	2025      	movs	r0, #37	; 0x25
10001606:	b280      	uxth	r0, r0
10001608:	2900      	cmp	r1, #0
1000160a:	d009      	beq.n	10001620 <ginputd_control_xfer_cb+0x100>
1000160c:	2b01      	cmp	r3, #1
1000160e:	d916      	bls.n	1000163e <ginputd_control_xfer_cb+0x11e>
10001610:	1c7b      	adds	r3, r7, #1
10001612:	469c      	mov	ip, r3
10001614:	7039      	strb	r1, [r7, #0]
10001616:	3801      	subs	r0, #1
10001618:	b280      	uxth	r0, r0
1000161a:	2301      	movs	r3, #1
1000161c:	4698      	mov	r8, r3
1000161e:	e002      	b.n	10001626 <ginputd_control_xfer_cb+0x106>
10001620:	46bc      	mov	ip, r7
10001622:	2300      	movs	r3, #0
10001624:	4698      	mov	r8, r3
10001626:	9000      	str	r0, [sp, #0]
10001628:	4663      	mov	r3, ip
1000162a:	0020      	movs	r0, r4
1000162c:	f7ff fb8a 	bl	10000d44 <tud_hid_get_report_cb>
10001630:	0003      	movs	r3, r0
10001632:	4443      	add	r3, r8
10001634:	b29b      	uxth	r3, r3
10001636:	2b00      	cmp	r3, #0
10001638:	d105      	bne.n	10001646 <ginputd_control_xfer_cb+0x126>
1000163a:	2000      	movs	r0, #0
1000163c:	e09d      	b.n	1000177a <ginputd_control_xfer_cb+0x25a>
1000163e:	46bc      	mov	ip, r7
10001640:	2300      	movs	r3, #0
10001642:	4698      	mov	r8, r3
10001644:	e7ef      	b.n	10001626 <ginputd_control_xfer_cb+0x106>
10001646:	003a      	movs	r2, r7
10001648:	0029      	movs	r1, r5
1000164a:	0030      	movs	r0, r6
1000164c:	f006 fe46 	bl	100082dc <tud_control_xfer>
10001650:	2001      	movs	r0, #1
10001652:	e092      	b.n	1000177a <ginputd_control_xfer_cb+0x25a>
10001654:	2901      	cmp	r1, #1
10001656:	d003      	beq.n	10001660 <ginputd_control_xfer_cb+0x140>
10001658:	2903      	cmp	r1, #3
1000165a:	d015      	beq.n	10001688 <ginputd_control_xfer_cb+0x168>
1000165c:	2001      	movs	r0, #1
1000165e:	e08c      	b.n	1000177a <ginputd_control_xfer_cb+0x25a>
10001660:	79aa      	ldrb	r2, [r5, #6]
10001662:	79eb      	ldrb	r3, [r5, #7]
10001664:	021b      	lsls	r3, r3, #8
10001666:	4313      	orrs	r3, r2
10001668:	2b06      	cmp	r3, #6
1000166a:	d901      	bls.n	10001670 <ginputd_control_xfer_cb+0x150>
1000166c:	2000      	movs	r0, #0
1000166e:	e084      	b.n	1000177a <ginputd_control_xfer_cb+0x25a>
10001670:	0122      	lsls	r2, r4, #4
10001672:	1b12      	subs	r2, r2, r4
10001674:	0092      	lsls	r2, r2, #2
10001676:	3230      	adds	r2, #48	; 0x30
10001678:	4948      	ldr	r1, [pc, #288]	; (1000179c <ginputd_control_xfer_cb+0x27c>)
1000167a:	188a      	adds	r2, r1, r2
1000167c:	0029      	movs	r1, r5
1000167e:	0030      	movs	r0, r6
10001680:	f006 fe2c 	bl	100082dc <tud_control_xfer>
10001684:	2001      	movs	r0, #1
10001686:	e078      	b.n	1000177a <ginputd_control_xfer_cb+0x25a>
10001688:	78ea      	ldrb	r2, [r5, #3]
1000168a:	78a9      	ldrb	r1, [r5, #2]
1000168c:	0123      	lsls	r3, r4, #4
1000168e:	1b1b      	subs	r3, r3, r4
10001690:	009b      	lsls	r3, r3, #2
10001692:	3330      	adds	r3, #48	; 0x30
10001694:	4841      	ldr	r0, [pc, #260]	; (1000179c <ginputd_control_xfer_cb+0x27c>)
10001696:	18c3      	adds	r3, r0, r3
10001698:	79ae      	ldrb	r6, [r5, #6]
1000169a:	79e8      	ldrb	r0, [r5, #7]
1000169c:	0200      	lsls	r0, r0, #8
1000169e:	4330      	orrs	r0, r6
100016a0:	1c05      	adds	r5, r0, #0
100016a2:	2806      	cmp	r0, #6
100016a4:	d900      	bls.n	100016a8 <ginputd_control_xfer_cb+0x188>
100016a6:	2506      	movs	r5, #6
100016a8:	b2ad      	uxth	r5, r5
100016aa:	2900      	cmp	r1, #0
100016ac:	d004      	beq.n	100016b8 <ginputd_control_xfer_cb+0x198>
100016ae:	2801      	cmp	r0, #1
100016b0:	d902      	bls.n	100016b8 <ginputd_control_xfer_cb+0x198>
100016b2:	7818      	ldrb	r0, [r3, #0]
100016b4:	4288      	cmp	r0, r1
100016b6:	d005      	beq.n	100016c4 <ginputd_control_xfer_cb+0x1a4>
100016b8:	9500      	str	r5, [sp, #0]
100016ba:	0020      	movs	r0, r4
100016bc:	f7ff fb70 	bl	10000da0 <tud_hid_set_report_cb>
100016c0:	2001      	movs	r0, #1
100016c2:	e05a      	b.n	1000177a <ginputd_control_xfer_cb+0x25a>
100016c4:	3301      	adds	r3, #1
100016c6:	3d01      	subs	r5, #1
100016c8:	b2ad      	uxth	r5, r5
100016ca:	e7f5      	b.n	100016b8 <ginputd_control_xfer_cb+0x198>
100016cc:	2901      	cmp	r1, #1
100016ce:	d001      	beq.n	100016d4 <ginputd_control_xfer_cb+0x1b4>
100016d0:	2001      	movs	r0, #1
100016d2:	e052      	b.n	1000177a <ginputd_control_xfer_cb+0x25a>
100016d4:	78e9      	ldrb	r1, [r5, #3]
100016d6:	0123      	lsls	r3, r4, #4
100016d8:	1b1f      	subs	r7, r3, r4
100016da:	00bf      	lsls	r7, r7, #2
100016dc:	4b2f      	ldr	r3, [pc, #188]	; (1000179c <ginputd_control_xfer_cb+0x27c>)
100016de:	19df      	adds	r7, r3, r7
100016e0:	7179      	strb	r1, [r7, #5]
100016e2:	4b30      	ldr	r3, [pc, #192]	; (100017a4 <ginputd_control_xfer_cb+0x284>)
100016e4:	2b00      	cmp	r3, #0
100016e6:	d004      	beq.n	100016f2 <ginputd_control_xfer_cb+0x1d2>
100016e8:	0020      	movs	r0, r4
100016ea:	e000      	b.n	100016ee <ginputd_control_xfer_cb+0x1ce>
100016ec:	bf00      	nop
100016ee:	2800      	cmp	r0, #0
100016f0:	d043      	beq.n	1000177a <ginputd_control_xfer_cb+0x25a>
100016f2:	0029      	movs	r1, r5
100016f4:	0030      	movs	r0, r6
100016f6:	f006 fdd5 	bl	100082a4 <tud_control_status>
100016fa:	2001      	movs	r0, #1
100016fc:	e03d      	b.n	1000177a <ginputd_control_xfer_cb+0x25a>
100016fe:	2901      	cmp	r1, #1
10001700:	d001      	beq.n	10001706 <ginputd_control_xfer_cb+0x1e6>
10001702:	2001      	movs	r0, #1
10001704:	e039      	b.n	1000177a <ginputd_control_xfer_cb+0x25a>
10001706:	0122      	lsls	r2, r4, #4
10001708:	1b17      	subs	r7, r2, r4
1000170a:	00bf      	lsls	r7, r7, #2
1000170c:	4a23      	ldr	r2, [pc, #140]	; (1000179c <ginputd_control_xfer_cb+0x27c>)
1000170e:	19d2      	adds	r2, r2, r7
10001710:	3205      	adds	r2, #5
10001712:	2301      	movs	r3, #1
10001714:	0029      	movs	r1, r5
10001716:	0030      	movs	r0, r6
10001718:	f006 fde0 	bl	100082dc <tud_control_xfer>
1000171c:	2001      	movs	r0, #1
1000171e:	e02c      	b.n	1000177a <ginputd_control_xfer_cb+0x25a>
10001720:	2901      	cmp	r1, #1
10001722:	d001      	beq.n	10001728 <ginputd_control_xfer_cb+0x208>
10001724:	2001      	movs	r0, #1
10001726:	e028      	b.n	1000177a <ginputd_control_xfer_cb+0x25a>
10001728:	0122      	lsls	r2, r4, #4
1000172a:	1b17      	subs	r7, r2, r4
1000172c:	00bf      	lsls	r7, r7, #2
1000172e:	4a1b      	ldr	r2, [pc, #108]	; (1000179c <ginputd_control_xfer_cb+0x27c>)
10001730:	19d2      	adds	r2, r2, r7
10001732:	3204      	adds	r2, #4
10001734:	2301      	movs	r3, #1
10001736:	0029      	movs	r1, r5
10001738:	0030      	movs	r0, r6
1000173a:	f006 fdcf 	bl	100082dc <tud_control_xfer>
1000173e:	2001      	movs	r0, #1
10001740:	e01b      	b.n	1000177a <ginputd_control_xfer_cb+0x25a>
10001742:	2901      	cmp	r1, #1
10001744:	d003      	beq.n	1000174e <ginputd_control_xfer_cb+0x22e>
10001746:	2903      	cmp	r1, #3
10001748:	d007      	beq.n	1000175a <ginputd_control_xfer_cb+0x23a>
1000174a:	2001      	movs	r0, #1
1000174c:	e015      	b.n	1000177a <ginputd_control_xfer_cb+0x25a>
1000174e:	0029      	movs	r1, r5
10001750:	0030      	movs	r0, r6
10001752:	f006 fda7 	bl	100082a4 <tud_control_status>
10001756:	2001      	movs	r0, #1
10001758:	e00f      	b.n	1000177a <ginputd_control_xfer_cb+0x25a>
1000175a:	78a9      	ldrb	r1, [r5, #2]
1000175c:	0123      	lsls	r3, r4, #4
1000175e:	1b1f      	subs	r7, r3, r4
10001760:	00bf      	lsls	r7, r7, #2
10001762:	4b0e      	ldr	r3, [pc, #56]	; (1000179c <ginputd_control_xfer_cb+0x27c>)
10001764:	19df      	adds	r7, r3, r7
10001766:	7139      	strb	r1, [r7, #4]
10001768:	4b0f      	ldr	r3, [pc, #60]	; (100017a8 <ginputd_control_xfer_cb+0x288>)
1000176a:	2b00      	cmp	r3, #0
1000176c:	d013      	beq.n	10001796 <ginputd_control_xfer_cb+0x276>
1000176e:	0020      	movs	r0, r4
10001770:	e000      	b.n	10001774 <ginputd_control_xfer_cb+0x254>
10001772:	bf00      	nop
10001774:	2001      	movs	r0, #1
10001776:	e000      	b.n	1000177a <ginputd_control_xfer_cb+0x25a>
10001778:	2000      	movs	r0, #0
1000177a:	b002      	add	sp, #8
1000177c:	bc80      	pop	{r7}
1000177e:	46b8      	mov	r8, r7
10001780:	bdf0      	pop	{r4, r5, r6, r7, pc}
10001782:	2000      	movs	r0, #0
10001784:	e7f9      	b.n	1000177a <ginputd_control_xfer_cb+0x25a>
10001786:	2000      	movs	r0, #0
10001788:	e7f7      	b.n	1000177a <ginputd_control_xfer_cb+0x25a>
1000178a:	2000      	movs	r0, #0
1000178c:	e7f5      	b.n	1000177a <ginputd_control_xfer_cb+0x25a>
1000178e:	2000      	movs	r0, #0
10001790:	e7f3      	b.n	1000177a <ginputd_control_xfer_cb+0x25a>
10001792:	2000      	movs	r0, #0
10001794:	e7f1      	b.n	1000177a <ginputd_control_xfer_cb+0x25a>
10001796:	2001      	movs	r0, #1
10001798:	e7ef      	b.n	1000177a <ginputd_control_xfer_cb+0x25a>
1000179a:	46c0      	nop			; (mov r8, r8)
1000179c:	20001394 	.word	0x20001394
100017a0:	10009e38 	.word	0x10009e38
	...

100017ac <tud_ginput_n_ready>:
100017ac:	b510      	push	{r4, lr}
100017ae:	0103      	lsls	r3, r0, #4
100017b0:	1a18      	subs	r0, r3, r0
100017b2:	0080      	lsls	r0, r0, #2
100017b4:	4b10      	ldr	r3, [pc, #64]	; (100017f8 <tud_ginput_n_ready+0x4c>)
100017b6:	1818      	adds	r0, r3, r0
100017b8:	7844      	ldrb	r4, [r0, #1]
100017ba:	f006 f8fd 	bl	100079b8 <tud_mounted>
100017be:	2800      	cmp	r0, #0
100017c0:	d106      	bne.n	100017d0 <tud_ginput_n_ready+0x24>
100017c2:	2300      	movs	r3, #0
100017c4:	2b00      	cmp	r3, #0
100017c6:	d013      	beq.n	100017f0 <tud_ginput_n_ready+0x44>
100017c8:	2c00      	cmp	r4, #0
100017ca:	d109      	bne.n	100017e0 <tud_ginput_n_ready+0x34>
100017cc:	2000      	movs	r0, #0
100017ce:	e010      	b.n	100017f2 <tud_ginput_n_ready+0x46>
100017d0:	f006 f8fa 	bl	100079c8 <tud_suspended>
100017d4:	2800      	cmp	r0, #0
100017d6:	d101      	bne.n	100017dc <tud_ginput_n_ready+0x30>
100017d8:	2301      	movs	r3, #1
100017da:	e7f3      	b.n	100017c4 <tud_ginput_n_ready+0x18>
100017dc:	2300      	movs	r3, #0
100017de:	e7f1      	b.n	100017c4 <tud_ginput_n_ready+0x18>
100017e0:	0021      	movs	r1, r4
100017e2:	2000      	movs	r0, #0
100017e4:	f006 fa34 	bl	10007c50 <usbd_edpt_busy>
100017e8:	2800      	cmp	r0, #0
100017ea:	d103      	bne.n	100017f4 <tud_ginput_n_ready+0x48>
100017ec:	3001      	adds	r0, #1
100017ee:	e000      	b.n	100017f2 <tud_ginput_n_ready+0x46>
100017f0:	2000      	movs	r0, #0
100017f2:	bd10      	pop	{r4, pc}
100017f4:	2000      	movs	r0, #0
100017f6:	e7fc      	b.n	100017f2 <tud_ginput_n_ready+0x46>
100017f8:	20001394 	.word	0x20001394

100017fc <tud_ginput_ready>:
100017fc:	b510      	push	{r4, lr}
100017fe:	2000      	movs	r0, #0
10001800:	f7ff ffd4 	bl	100017ac <tud_ginput_n_ready>
10001804:	bd10      	pop	{r4, pc}
	...

10001808 <tud_ginput_n_report>:
10001808:	b5f8      	push	{r3, r4, r5, r6, r7, lr}
1000180a:	0004      	movs	r4, r0
1000180c:	000f      	movs	r7, r1
1000180e:	0016      	movs	r6, r2
10001810:	001d      	movs	r5, r3
10001812:	0103      	lsls	r3, r0, #4
10001814:	1a1b      	subs	r3, r3, r0
10001816:	009b      	lsls	r3, r3, #2
10001818:	4a1f      	ldr	r2, [pc, #124]	; (10001898 <tud_ginput_n_report+0x90>)
1000181a:	18d3      	adds	r3, r2, r3
1000181c:	7859      	ldrb	r1, [r3, #1]
1000181e:	2000      	movs	r0, #0
10001820:	f006 f9b2 	bl	10007b88 <usbd_edpt_claim>
10001824:	2800      	cmp	r0, #0
10001826:	d025      	beq.n	10001874 <tud_ginput_n_report+0x6c>
10001828:	2f00      	cmp	r7, #0
1000182a:	d024      	beq.n	10001876 <tud_ginput_n_report+0x6e>
1000182c:	1c2b      	adds	r3, r5, #0
1000182e:	2d24      	cmp	r5, #36	; 0x24
10001830:	d900      	bls.n	10001834 <tud_ginput_n_report+0x2c>
10001832:	2324      	movs	r3, #36	; 0x24
10001834:	b29d      	uxth	r5, r3
10001836:	4a18      	ldr	r2, [pc, #96]	; (10001898 <tud_ginput_n_report+0x90>)
10001838:	0123      	lsls	r3, r4, #4
1000183a:	1b19      	subs	r1, r3, r4
1000183c:	0089      	lsls	r1, r1, #2
1000183e:	1851      	adds	r1, r2, r1
10001840:	720f      	strb	r7, [r1, #8]
10001842:	1b1b      	subs	r3, r3, r4
10001844:	009b      	lsls	r3, r3, #2
10001846:	3308      	adds	r3, #8
10001848:	18d0      	adds	r0, r2, r3
1000184a:	3001      	adds	r0, #1
1000184c:	002a      	movs	r2, r5
1000184e:	0031      	movs	r1, r6
10001850:	f005 f90a 	bl	10006a68 <__wrap___aeabi_memcpy>
10001854:	3501      	adds	r5, #1
10001856:	b2ad      	uxth	r5, r5
10001858:	4b0f      	ldr	r3, [pc, #60]	; (10001898 <tud_ginput_n_report+0x90>)
1000185a:	0120      	lsls	r0, r4, #4
1000185c:	1b02      	subs	r2, r0, r4
1000185e:	0092      	lsls	r2, r2, #2
10001860:	3208      	adds	r2, #8
10001862:	189a      	adds	r2, r3, r2
10001864:	1b00      	subs	r0, r0, r4
10001866:	0080      	lsls	r0, r0, #2
10001868:	1818      	adds	r0, r3, r0
1000186a:	7841      	ldrb	r1, [r0, #1]
1000186c:	002b      	movs	r3, r5
1000186e:	2000      	movs	r0, #0
10001870:	f006 f9b2 	bl	10007bd8 <usbd_edpt_xfer>
10001874:	bdf8      	pop	{r3, r4, r5, r6, r7, pc}
10001876:	1c2b      	adds	r3, r5, #0
10001878:	2d25      	cmp	r5, #37	; 0x25
1000187a:	d900      	bls.n	1000187e <tud_ginput_n_report+0x76>
1000187c:	2325      	movs	r3, #37	; 0x25
1000187e:	b29d      	uxth	r5, r3
10001880:	0120      	lsls	r0, r4, #4
10001882:	1b00      	subs	r0, r0, r4
10001884:	0080      	lsls	r0, r0, #2
10001886:	3008      	adds	r0, #8
10001888:	4b03      	ldr	r3, [pc, #12]	; (10001898 <tud_ginput_n_report+0x90>)
1000188a:	1818      	adds	r0, r3, r0
1000188c:	002a      	movs	r2, r5
1000188e:	0031      	movs	r1, r6
10001890:	f005 f8ea 	bl	10006a68 <__wrap___aeabi_memcpy>
10001894:	e7e0      	b.n	10001858 <tud_ginput_n_report+0x50>
10001896:	46c0      	nop			; (mov r8, r8)
10001898:	20001394 	.word	0x20001394

1000189c <tud_ginput_report>:
1000189c:	b510      	push	{r4, lr}
1000189e:	0013      	movs	r3, r2
100018a0:	000a      	movs	r2, r1
100018a2:	0001      	movs	r1, r0
100018a4:	2000      	movs	r0, #0
100018a6:	f7ff ffaf 	bl	10001808 <tud_ginput_n_report>
100018aa:	bd10      	pop	{r4, pc}

100018ac <switch_analog_encode>:
100018ac:	7010      	strb	r0, [r2, #0]
100018ae:	1203      	asrs	r3, r0, #8
100018b0:	200f      	movs	r0, #15
100018b2:	4018      	ands	r0, r3
100018b4:	7050      	strb	r0, [r2, #1]
100018b6:	010b      	lsls	r3, r1, #4
100018b8:	4318      	orrs	r0, r3
100018ba:	7050      	strb	r0, [r2, #1]
100018bc:	1109      	asrs	r1, r1, #4
100018be:	7091      	strb	r1, [r2, #2]
100018c0:	4770      	bx	lr
	...

100018c4 <switch_analog_calibration_init>:
100018c4:	b570      	push	{r4, r5, r6, lr}
100018c6:	4d12      	ldr	r5, [pc, #72]	; (10001910 <switch_analog_calibration_init+0x4c>)
100018c8:	2480      	movs	r4, #128	; 0x80
100018ca:	0124      	lsls	r4, r4, #4
100018cc:	002a      	movs	r2, r5
100018ce:	0021      	movs	r1, r4
100018d0:	0020      	movs	r0, r4
100018d2:	f7ff ffeb 	bl	100018ac <switch_analog_encode>
100018d6:	1cea      	adds	r2, r5, #3
100018d8:	0021      	movs	r1, r4
100018da:	0020      	movs	r0, r4
100018dc:	f7ff ffe6 	bl	100018ac <switch_analog_encode>
100018e0:	1daa      	adds	r2, r5, #6
100018e2:	0021      	movs	r1, r4
100018e4:	0020      	movs	r0, r4
100018e6:	f7ff ffe1 	bl	100018ac <switch_analog_encode>
100018ea:	002a      	movs	r2, r5
100018ec:	3209      	adds	r2, #9
100018ee:	0021      	movs	r1, r4
100018f0:	0020      	movs	r0, r4
100018f2:	f7ff ffdb 	bl	100018ac <switch_analog_encode>
100018f6:	002a      	movs	r2, r5
100018f8:	320c      	adds	r2, #12
100018fa:	0021      	movs	r1, r4
100018fc:	0020      	movs	r0, r4
100018fe:	f7ff ffd5 	bl	100018ac <switch_analog_encode>
10001902:	002a      	movs	r2, r5
10001904:	320f      	adds	r2, #15
10001906:	0021      	movs	r1, r4
10001908:	0020      	movs	r0, r4
1000190a:	f7ff ffcf 	bl	100018ac <switch_analog_encode>
1000190e:	bd70      	pop	{r4, r5, r6, pc}
10001910:	20002704 	.word	0x20002704

10001914 <clear_report>:
10001914:	b510      	push	{r4, lr}
10001916:	0180      	lsls	r0, r0, #6
10001918:	4b03      	ldr	r3, [pc, #12]	; (10001928 <clear_report+0x14>)
1000191a:	18c0      	adds	r0, r0, r3
1000191c:	2240      	movs	r2, #64	; 0x40
1000191e:	2100      	movs	r1, #0
10001920:	f005 f89c 	bl	10006a5c <__wrap_memset>
10001924:	bd10      	pop	{r4, pc}
10001926:	46c0      	nop			; (mov r8, r8)
10001928:	20001674 	.word	0x20001674

1000192c <set_report_id>:
1000192c:	4b01      	ldr	r3, [pc, #4]	; (10001934 <set_report_id+0x8>)
1000192e:	5419      	strb	r1, [r3, r0]
10001930:	4770      	bx	lr
10001932:	46c0      	nop			; (mov r8, r8)
10001934:	20001774 	.word	0x20001774

10001938 <set_ack>:
10001938:	0183      	lsls	r3, r0, #6
1000193a:	4802      	ldr	r0, [pc, #8]	; (10001944 <set_ack+0xc>)
1000193c:	18c0      	adds	r0, r0, r3
1000193e:	7301      	strb	r1, [r0, #12]
10001940:	4770      	bx	lr
10001942:	46c0      	nop			; (mov r8, r8)
10001944:	20001674 	.word	0x20001674

10001948 <set_command>:
10001948:	0183      	lsls	r3, r0, #6
1000194a:	4802      	ldr	r0, [pc, #8]	; (10001954 <set_command+0xc>)
1000194c:	18c0      	adds	r0, r0, r3
1000194e:	7341      	strb	r1, [r0, #13]
10001950:	4770      	bx	lr
10001952:	46c0      	nop			; (mov r8, r8)
10001954:	20001674 	.word	0x20001674

10001958 <set_timer>:
10001958:	b510      	push	{r4, lr}
1000195a:	4a08      	ldr	r2, [pc, #32]	; (1000197c <set_timer+0x24>)
1000195c:	2100      	movs	r1, #0
1000195e:	5e53      	ldrsh	r3, [r2, r1]
10001960:	7814      	ldrb	r4, [r2, #0]
10001962:	0180      	lsls	r0, r0, #6
10001964:	4906      	ldr	r1, [pc, #24]	; (10001980 <set_timer+0x28>)
10001966:	5444      	strb	r4, [r0, r1]
10001968:	3303      	adds	r3, #3
1000196a:	b299      	uxth	r1, r3
1000196c:	b21b      	sxth	r3, r3
1000196e:	8013      	strh	r3, [r2, #0]
10001970:	2bff      	cmp	r3, #255	; 0xff
10001972:	dd01      	ble.n	10001978 <set_timer+0x20>
10001974:	39ff      	subs	r1, #255	; 0xff
10001976:	8011      	strh	r1, [r2, #0]
10001978:	bd10      	pop	{r4, pc}
1000197a:	46c0      	nop			; (mov r8, r8)
1000197c:	20002728 	.word	0x20002728
10001980:	20001674 	.word	0x20001674

10001984 <set_battconn>:
10001984:	0183      	lsls	r3, r0, #6
10001986:	4802      	ldr	r0, [pc, #8]	; (10001990 <set_battconn+0xc>)
10001988:	18c0      	adds	r0, r0, r3
1000198a:	2301      	movs	r3, #1
1000198c:	7043      	strb	r3, [r0, #1]
1000198e:	4770      	bx	lr
10001990:	20001674 	.word	0x20001674

10001994 <set_devinfo>:
10001994:	0183      	lsls	r3, r0, #6
10001996:	4806      	ldr	r0, [pc, #24]	; (100019b0 <set_devinfo+0x1c>)
10001998:	18c0      	adds	r0, r0, r3
1000199a:	2303      	movs	r3, #3
1000199c:	7383      	strb	r3, [r0, #14]
1000199e:	2248      	movs	r2, #72	; 0x48
100019a0:	73c2      	strb	r2, [r0, #15]
100019a2:	7403      	strb	r3, [r0, #16]
100019a4:	3b01      	subs	r3, #1
100019a6:	7443      	strb	r3, [r0, #17]
100019a8:	3a47      	subs	r2, #71	; 0x47
100019aa:	7602      	strb	r2, [r0, #24]
100019ac:	7643      	strb	r3, [r0, #25]
100019ae:	4770      	bx	lr
100019b0:	20001674 	.word	0x20001674

100019b4 <set_sub_triggertime>:
100019b4:	b570      	push	{r4, r5, r6, lr}
100019b6:	b2ce      	uxtb	r6, r1
100019b8:	0a0d      	lsrs	r5, r1, #8
100019ba:	2300      	movs	r3, #0
100019bc:	e00a      	b.n	100019d4 <set_sub_triggertime+0x20>
100019be:	001c      	movs	r4, r3
100019c0:	340e      	adds	r4, #14
100019c2:	0181      	lsls	r1, r0, #6
100019c4:	4a05      	ldr	r2, [pc, #20]	; (100019dc <set_sub_triggertime+0x28>)
100019c6:	1852      	adds	r2, r2, r1
100019c8:	5516      	strb	r6, [r2, r4]
100019ca:	0019      	movs	r1, r3
100019cc:	310f      	adds	r1, #15
100019ce:	5455      	strb	r5, [r2, r1]
100019d0:	3302      	adds	r3, #2
100019d2:	b2db      	uxtb	r3, r3
100019d4:	2b0d      	cmp	r3, #13
100019d6:	d9f2      	bls.n	100019be <set_sub_triggertime+0xa>
100019d8:	bd70      	pop	{r4, r5, r6, pc}
100019da:	46c0      	nop			; (mov r8, r8)
100019dc:	20001674 	.word	0x20001674

100019e0 <shouldControllerRumble>:
100019e0:	b530      	push	{r4, r5, lr}
100019e2:	78c4      	ldrb	r4, [r0, #3]
100019e4:	2503      	movs	r5, #3
100019e6:	5745      	ldrsb	r5, [r0, r5]
100019e8:	7843      	ldrb	r3, [r0, #1]
100019ea:	2108      	movs	r1, #8
100019ec:	4019      	ands	r1, r3
100019ee:	2201      	movs	r2, #1
100019f0:	4393      	bics	r3, r2
100019f2:	327e      	adds	r2, #126	; 0x7e
100019f4:	4022      	ands	r2, r4
100019f6:	2b01      	cmp	r3, #1
100019f8:	d901      	bls.n	100019fe <shouldControllerRumble+0x1e>
100019fa:	2900      	cmp	r1, #0
100019fc:	d007      	beq.n	10001a0e <shouldControllerRumble+0x2e>
100019fe:	2a40      	cmp	r2, #64	; 0x40
10001a00:	d907      	bls.n	10001a12 <shouldControllerRumble+0x32>
10001a02:	2d00      	cmp	r5, #0
10001a04:	db01      	blt.n	10001a0a <shouldControllerRumble+0x2a>
10001a06:	2001      	movs	r0, #1
10001a08:	e004      	b.n	10001a14 <shouldControllerRumble+0x34>
10001a0a:	2000      	movs	r0, #0
10001a0c:	e002      	b.n	10001a14 <shouldControllerRumble+0x34>
10001a0e:	2001      	movs	r0, #1
10001a10:	e000      	b.n	10001a14 <shouldControllerRumble+0x34>
10001a12:	2000      	movs	r0, #0
10001a14:	bd30      	pop	{r4, r5, pc}

10001a16 <rumble_translate>:
10001a16:	b510      	push	{r4, lr}
10001a18:	0004      	movs	r4, r0
10001a1a:	0008      	movs	r0, r1
10001a1c:	f7ff ffe0 	bl	100019e0 <shouldControllerRumble>
10001a20:	0001      	movs	r1, r0
10001a22:	0020      	movs	r0, r4
10001a24:	f7fe fd86 	bl	10000534 <joybus_itf_enable_rumble>
10001a28:	bd10      	pop	{r4, pc}
	...

10001a2c <info_set_mac>:
10001a2c:	b530      	push	{r4, r5, lr}
10001a2e:	4b0d      	ldr	r3, [pc, #52]	; (10001a64 <info_set_mac+0x38>)
10001a30:	0182      	lsls	r2, r0, #6
10001a32:	2101      	movs	r1, #1
10001a34:	54d1      	strb	r1, [r2, r3]
10001a36:	189b      	adds	r3, r3, r2
10001a38:	2200      	movs	r2, #0
10001a3a:	705a      	strb	r2, [r3, #1]
10001a3c:	3203      	adds	r2, #3
10001a3e:	709a      	strb	r2, [r3, #2]
10001a40:	2100      	movs	r1, #0
10001a42:	e00c      	b.n	10001a5e <info_set_mac+0x32>
10001a44:	1ccc      	adds	r4, r1, #3
10001a46:	0043      	lsls	r3, r0, #1
10001a48:	181b      	adds	r3, r3, r0
10001a4a:	005a      	lsls	r2, r3, #1
10001a4c:	4b06      	ldr	r3, [pc, #24]	; (10001a68 <info_set_mac+0x3c>)
10001a4e:	189b      	adds	r3, r3, r2
10001a50:	185b      	adds	r3, r3, r1
10001a52:	791d      	ldrb	r5, [r3, #4]
10001a54:	0182      	lsls	r2, r0, #6
10001a56:	4b03      	ldr	r3, [pc, #12]	; (10001a64 <info_set_mac+0x38>)
10001a58:	189b      	adds	r3, r3, r2
10001a5a:	551d      	strb	r5, [r3, r4]
10001a5c:	3101      	adds	r1, #1
10001a5e:	2905      	cmp	r1, #5
10001a60:	d9f0      	bls.n	10001a44 <info_set_mac+0x18>
10001a62:	bd30      	pop	{r4, r5, pc}
10001a64:	20001674 	.word	0x20001674
10001a68:	200020b4 	.word	0x200020b4

10001a6c <info_handler>:
10001a6c:	b570      	push	{r4, r5, r6, lr}
10001a6e:	0004      	movs	r4, r0
10001a70:	000d      	movs	r5, r1
10001a72:	f7ff ff4f 	bl	10001914 <clear_report>
10001a76:	2181      	movs	r1, #129	; 0x81
10001a78:	0020      	movs	r0, r4
10001a7a:	f7ff ff57 	bl	1000192c <set_report_id>
10001a7e:	2d01      	cmp	r5, #1
10001a80:	d010      	beq.n	10001aa4 <info_handler+0x38>
10001a82:	0029      	movs	r1, r5
10001a84:	480b      	ldr	r0, [pc, #44]	; (10001ab4 <info_handler+0x48>)
10001a86:	f005 f93f 	bl	10006d08 <__wrap_printf>
10001a8a:	01a3      	lsls	r3, r4, #6
10001a8c:	4a0a      	ldr	r2, [pc, #40]	; (10001ab8 <info_handler+0x4c>)
10001a8e:	549d      	strb	r5, [r3, r2]
10001a90:	01a2      	lsls	r2, r4, #6
10001a92:	4b09      	ldr	r3, [pc, #36]	; (10001ab8 <info_handler+0x4c>)
10001a94:	18d2      	adds	r2, r2, r3
10001a96:	4b09      	ldr	r3, [pc, #36]	; (10001abc <info_handler+0x50>)
10001a98:	5d19      	ldrb	r1, [r3, r4]
10001a9a:	2340      	movs	r3, #64	; 0x40
10001a9c:	0020      	movs	r0, r4
10001a9e:	f006 ffad 	bl	100089fc <tud_hid_n_report>
10001aa2:	bd70      	pop	{r4, r5, r6, pc}
10001aa4:	4806      	ldr	r0, [pc, #24]	; (10001ac0 <info_handler+0x54>)
10001aa6:	f005 f92f 	bl	10006d08 <__wrap_printf>
10001aaa:	0020      	movs	r0, r4
10001aac:	f7ff ffbe 	bl	10001a2c <info_set_mac>
10001ab0:	e7ee      	b.n	10001a90 <info_handler+0x24>
10001ab2:	46c0      	nop			; (mov r8, r8)
10001ab4:	10009f70 	.word	0x10009f70
10001ab8:	20001674 	.word	0x20001674
10001abc:	20001774 	.word	0x20001774
10001ac0:	10009f58 	.word	0x10009f58

10001ac4 <pairing_set>:
10001ac4:	b570      	push	{r4, r5, r6, lr}
10001ac6:	b086      	sub	sp, #24
10001ac8:	0004      	movs	r4, r0
10001aca:	4668      	mov	r0, sp
10001acc:	4b20      	ldr	r3, [pc, #128]	; (10001b50 <pairing_set+0x8c>)
10001ace:	0002      	movs	r2, r0
10001ad0:	cb61      	ldmia	r3!, {r0, r5, r6}
10001ad2:	c261      	stmia	r2!, {r0, r5, r6}
10001ad4:	cb61      	ldmia	r3!, {r0, r5, r6}
10001ad6:	c261      	stmia	r2!, {r0, r5, r6}
10001ad8:	2902      	cmp	r1, #2
10001ada:	d01f      	beq.n	10001b1c <pairing_set+0x58>
10001adc:	2903      	cmp	r1, #3
10001ade:	d02d      	beq.n	10001b3c <pairing_set+0x78>
10001ae0:	2181      	movs	r1, #129	; 0x81
10001ae2:	0020      	movs	r0, r4
10001ae4:	f7ff ff28 	bl	10001938 <set_ack>
10001ae8:	4e1a      	ldr	r6, [pc, #104]	; (10001b54 <pairing_set+0x90>)
10001aea:	01a5      	lsls	r5, r4, #6
10001aec:	1973      	adds	r3, r6, r5
10001aee:	2201      	movs	r2, #1
10001af0:	739a      	strb	r2, [r3, #14]
10001af2:	0028      	movs	r0, r5
10001af4:	300f      	adds	r0, #15
10001af6:	1980      	adds	r0, r0, r6
10001af8:	0061      	lsls	r1, r4, #1
10001afa:	1909      	adds	r1, r1, r4
10001afc:	0049      	lsls	r1, r1, #1
10001afe:	4c16      	ldr	r4, [pc, #88]	; (10001b58 <pairing_set+0x94>)
10001b00:	1909      	adds	r1, r1, r4
10001b02:	3104      	adds	r1, #4
10001b04:	3205      	adds	r2, #5
10001b06:	f004 ffaf 	bl	10006a68 <__wrap___aeabi_memcpy>
10001b0a:	0028      	movs	r0, r5
10001b0c:	3015      	adds	r0, #21
10001b0e:	1980      	adds	r0, r0, r6
10001b10:	2218      	movs	r2, #24
10001b12:	4669      	mov	r1, sp
10001b14:	f004 ffa8 	bl	10006a68 <__wrap___aeabi_memcpy>
10001b18:	b006      	add	sp, #24
10001b1a:	bd70      	pop	{r4, r5, r6, pc}
10001b1c:	2181      	movs	r1, #129	; 0x81
10001b1e:	0020      	movs	r0, r4
10001b20:	f7ff ff0a 	bl	10001938 <set_ack>
10001b24:	480b      	ldr	r0, [pc, #44]	; (10001b54 <pairing_set+0x90>)
10001b26:	01a4      	lsls	r4, r4, #6
10001b28:	1903      	adds	r3, r0, r4
10001b2a:	2202      	movs	r2, #2
10001b2c:	739a      	strb	r2, [r3, #14]
10001b2e:	340f      	adds	r4, #15
10001b30:	1820      	adds	r0, r4, r0
10001b32:	320e      	adds	r2, #14
10001b34:	4909      	ldr	r1, [pc, #36]	; (10001b5c <pairing_set+0x98>)
10001b36:	f004 ff97 	bl	10006a68 <__wrap___aeabi_memcpy>
10001b3a:	e7ed      	b.n	10001b18 <pairing_set+0x54>
10001b3c:	2181      	movs	r1, #129	; 0x81
10001b3e:	0020      	movs	r0, r4
10001b40:	f7ff fefa 	bl	10001938 <set_ack>
10001b44:	01a4      	lsls	r4, r4, #6
10001b46:	4803      	ldr	r0, [pc, #12]	; (10001b54 <pairing_set+0x90>)
10001b48:	1904      	adds	r4, r0, r4
10001b4a:	2303      	movs	r3, #3
10001b4c:	73a3      	strb	r3, [r4, #14]
10001b4e:	e7e3      	b.n	10001b18 <pairing_set+0x54>
10001b50:	1000a1e8 	.word	0x1000a1e8
10001b54:	20001674 	.word	0x20001674
10001b58:	200020b4 	.word	0x200020b4
10001b5c:	20001880 	.word	0x20001880

10001b60 <command_handler>:
10001b60:	b5f8      	push	{r3, r4, r5, r6, r7, lr}
10001b62:	0005      	movs	r5, r0
10001b64:	000c      	movs	r4, r1
10001b66:	0016      	movs	r6, r2
10001b68:	001f      	movs	r7, r3
10001b6a:	f7ff fed3 	bl	10001914 <clear_report>
10001b6e:	2121      	movs	r1, #33	; 0x21
10001b70:	0028      	movs	r0, r5
10001b72:	f7ff fedb 	bl	1000192c <set_report_id>
10001b76:	0028      	movs	r0, r5
10001b78:	f7ff feee 	bl	10001958 <set_timer>
10001b7c:	0028      	movs	r0, r5
10001b7e:	f7ff ff01 	bl	10001984 <set_battconn>
10001b82:	0021      	movs	r1, r4
10001b84:	0028      	movs	r0, r5
10001b86:	f7ff fedf 	bl	10001948 <set_command>
10001b8a:	486d      	ldr	r0, [pc, #436]	; (10001d40 <command_handler+0x1e0>)
10001b8c:	f005 f8bc 	bl	10006d08 <__wrap_printf>
10001b90:	2c48      	cmp	r4, #72	; 0x48
10001b92:	d900      	bls.n	10001b96 <command_handler+0x36>
10001b94:	e0a8      	b.n	10001ce8 <command_handler+0x188>
10001b96:	00a1      	lsls	r1, r4, #2
10001b98:	4b6a      	ldr	r3, [pc, #424]	; (10001d44 <command_handler+0x1e4>)
10001b9a:	585b      	ldr	r3, [r3, r1]
10001b9c:	469f      	mov	pc, r3
10001b9e:	486a      	ldr	r0, [pc, #424]	; (10001d48 <command_handler+0x1e8>)
10001ba0:	f005 f882 	bl	10006ca8 <__wrap_puts>
10001ba4:	2180      	movs	r1, #128	; 0x80
10001ba6:	0028      	movs	r0, r5
10001ba8:	f7ff fec6 	bl	10001938 <set_ack>
10001bac:	4867      	ldr	r0, [pc, #412]	; (10001d4c <command_handler+0x1ec>)
10001bae:	f005 f8ab 	bl	10006d08 <__wrap_printf>
10001bb2:	2400      	movs	r4, #0
10001bb4:	e0b6      	b.n	10001d24 <command_handler+0x1c4>
10001bb6:	7af1      	ldrb	r1, [r6, #11]
10001bb8:	4865      	ldr	r0, [pc, #404]	; (10001d50 <command_handler+0x1f0>)
10001bba:	f005 f8a5 	bl	10006d08 <__wrap_printf>
10001bbe:	2180      	movs	r1, #128	; 0x80
10001bc0:	0028      	movs	r0, r5
10001bc2:	f7ff feb9 	bl	10001938 <set_ack>
10001bc6:	e7f1      	b.n	10001bac <command_handler+0x4c>
10001bc8:	4862      	ldr	r0, [pc, #392]	; (10001d54 <command_handler+0x1f4>)
10001bca:	f005 f86d 	bl	10006ca8 <__wrap_puts>
10001bce:	7af1      	ldrb	r1, [r6, #11]
10001bd0:	0028      	movs	r0, r5
10001bd2:	f7ff ff77 	bl	10001ac4 <pairing_set>
10001bd6:	e7e9      	b.n	10001bac <command_handler+0x4c>
10001bd8:	7af1      	ldrb	r1, [r6, #11]
10001bda:	485f      	ldr	r0, [pc, #380]	; (10001d58 <command_handler+0x1f8>)
10001bdc:	f005 f894 	bl	10006d08 <__wrap_printf>
10001be0:	2180      	movs	r1, #128	; 0x80
10001be2:	0028      	movs	r0, r5
10001be4:	f7ff fea8 	bl	10001938 <set_ack>
10001be8:	7af2      	ldrb	r2, [r6, #11]
10001bea:	4b5c      	ldr	r3, [pc, #368]	; (10001d5c <command_handler+0x1fc>)
10001bec:	555a      	strb	r2, [r3, r5]
10001bee:	e7dd      	b.n	10001bac <command_handler+0x4c>
10001bf0:	485b      	ldr	r0, [pc, #364]	; (10001d60 <command_handler+0x200>)
10001bf2:	f005 f859 	bl	10006ca8 <__wrap_puts>
10001bf6:	2182      	movs	r1, #130	; 0x82
10001bf8:	0028      	movs	r0, r5
10001bfa:	f7ff fe9d 	bl	10001938 <set_ack>
10001bfe:	0028      	movs	r0, r5
10001c00:	f7ff fec8 	bl	10001994 <set_devinfo>
10001c04:	e7d2      	b.n	10001bac <command_handler+0x4c>
10001c06:	7af1      	ldrb	r1, [r6, #11]
10001c08:	4856      	ldr	r0, [pc, #344]	; (10001d64 <command_handler+0x204>)
10001c0a:	f005 f87d 	bl	10006d08 <__wrap_printf>
10001c0e:	2180      	movs	r1, #128	; 0x80
10001c10:	0028      	movs	r0, r5
10001c12:	f7ff fe91 	bl	10001938 <set_ack>
10001c16:	e7c9      	b.n	10001bac <command_handler+0x4c>
10001c18:	7b31      	ldrb	r1, [r6, #12]
10001c1a:	7af2      	ldrb	r2, [r6, #11]
10001c1c:	7bf3      	ldrb	r3, [r6, #15]
10001c1e:	4852      	ldr	r0, [pc, #328]	; (10001d68 <command_handler+0x208>)
10001c20:	f005 f872 	bl	10006d08 <__wrap_printf>
10001c24:	2190      	movs	r1, #144	; 0x90
10001c26:	0028      	movs	r0, r5
10001c28:	f7ff fe86 	bl	10001938 <set_ack>
10001c2c:	7bf3      	ldrb	r3, [r6, #15]
10001c2e:	7af2      	ldrb	r2, [r6, #11]
10001c30:	7b31      	ldrb	r1, [r6, #12]
10001c32:	0028      	movs	r0, r5
10001c34:	f000 fa26 	bl	10002084 <sw_spi_readfromaddress>
10001c38:	e7b8      	b.n	10001bac <command_handler+0x4c>
10001c3a:	7b31      	ldrb	r1, [r6, #12]
10001c3c:	7af2      	ldrb	r2, [r6, #11]
10001c3e:	7bf3      	ldrb	r3, [r6, #15]
10001c40:	484a      	ldr	r0, [pc, #296]	; (10001d6c <command_handler+0x20c>)
10001c42:	f005 f861 	bl	10006d08 <__wrap_printf>
10001c46:	2180      	movs	r1, #128	; 0x80
10001c48:	0028      	movs	r0, r5
10001c4a:	f7ff fe75 	bl	10001938 <set_ack>
10001c4e:	7b33      	ldrb	r3, [r6, #12]
10001c50:	2b80      	cmp	r3, #128	; 0x80
10001c52:	d1ab      	bne.n	10001bac <command_handler+0x4c>
10001c54:	7af3      	ldrb	r3, [r6, #11]
10001c56:	2b26      	cmp	r3, #38	; 0x26
10001c58:	d1a8      	bne.n	10001bac <command_handler+0x4c>
10001c5a:	2400      	movs	r4, #0
10001c5c:	2c19      	cmp	r4, #25
10001c5e:	d80b      	bhi.n	10001c78 <command_handler+0x118>
10001c60:	0023      	movs	r3, r4
10001c62:	3310      	adds	r3, #16
10001c64:	5cf1      	ldrb	r1, [r6, r3]
10001c66:	4842      	ldr	r0, [pc, #264]	; (10001d70 <command_handler+0x210>)
10001c68:	f005 f84e 	bl	10006d08 <__wrap_printf>
10001c6c:	200a      	movs	r0, #10
10001c6e:	f004 fffd 	bl	10006c6c <__wrap_putchar>
10001c72:	3401      	adds	r4, #1
10001c74:	b2a4      	uxth	r4, r4
10001c76:	e7f1      	b.n	10001c5c <command_handler+0xfc>
10001c78:	2000      	movs	r0, #0
10001c7a:	f7ff fa03 	bl	10001084 <settings_save>
10001c7e:	e795      	b.n	10001bac <command_handler+0x4c>
10001c80:	483c      	ldr	r0, [pc, #240]	; (10001d74 <command_handler+0x214>)
10001c82:	f005 f811 	bl	10006ca8 <__wrap_puts>
10001c86:	2183      	movs	r1, #131	; 0x83
10001c88:	0028      	movs	r0, r5
10001c8a:	f7ff fe55 	bl	10001938 <set_ack>
10001c8e:	2164      	movs	r1, #100	; 0x64
10001c90:	0028      	movs	r0, r5
10001c92:	f7ff fe8f 	bl	100019b4 <set_sub_triggertime>
10001c96:	e789      	b.n	10001bac <command_handler+0x4c>
10001c98:	4837      	ldr	r0, [pc, #220]	; (10001d78 <command_handler+0x218>)
10001c9a:	f005 f805 	bl	10006ca8 <__wrap_puts>
10001c9e:	2180      	movs	r1, #128	; 0x80
10001ca0:	0028      	movs	r0, r5
10001ca2:	f7ff fe49 	bl	10001938 <set_ack>
10001ca6:	e781      	b.n	10001bac <command_handler+0x4c>
10001ca8:	4834      	ldr	r0, [pc, #208]	; (10001d7c <command_handler+0x21c>)
10001caa:	f005 f82d 	bl	10006d08 <__wrap_printf>
10001cae:	2180      	movs	r1, #128	; 0x80
10001cb0:	0028      	movs	r0, r5
10001cb2:	f7ff fe41 	bl	10001938 <set_ack>
10001cb6:	7af2      	ldrb	r2, [r6, #11]
10001cb8:	230f      	movs	r3, #15
10001cba:	4013      	ands	r3, r2
10001cbc:	2b07      	cmp	r3, #7
10001cbe:	d00b      	beq.n	10001cd8 <command_handler+0x178>
10001cc0:	2b0f      	cmp	r3, #15
10001cc2:	d00d      	beq.n	10001ce0 <command_handler+0x180>
10001cc4:	2b03      	cmp	r3, #3
10001cc6:	d003      	beq.n	10001cd0 <command_handler+0x170>
10001cc8:	482d      	ldr	r0, [pc, #180]	; (10001d80 <command_handler+0x220>)
10001cca:	f004 ffed 	bl	10006ca8 <__wrap_puts>
10001cce:	e76d      	b.n	10001bac <command_handler+0x4c>
10001cd0:	482c      	ldr	r0, [pc, #176]	; (10001d84 <command_handler+0x224>)
10001cd2:	f004 ffe9 	bl	10006ca8 <__wrap_puts>
10001cd6:	e769      	b.n	10001bac <command_handler+0x4c>
10001cd8:	482b      	ldr	r0, [pc, #172]	; (10001d88 <command_handler+0x228>)
10001cda:	f004 ffe5 	bl	10006ca8 <__wrap_puts>
10001cde:	e765      	b.n	10001bac <command_handler+0x4c>
10001ce0:	482a      	ldr	r0, [pc, #168]	; (10001d8c <command_handler+0x22c>)
10001ce2:	f004 ffe1 	bl	10006ca8 <__wrap_puts>
10001ce6:	e761      	b.n	10001bac <command_handler+0x4c>
10001ce8:	0021      	movs	r1, r4
10001cea:	4829      	ldr	r0, [pc, #164]	; (10001d90 <command_handler+0x230>)
10001cec:	f005 f80c 	bl	10006d08 <__wrap_printf>
10001cf0:	2400      	movs	r4, #0
10001cf2:	e005      	b.n	10001d00 <command_handler+0x1a0>
10001cf4:	5d31      	ldrb	r1, [r6, r4]
10001cf6:	4827      	ldr	r0, [pc, #156]	; (10001d94 <command_handler+0x234>)
10001cf8:	f005 f806 	bl	10006d08 <__wrap_printf>
10001cfc:	3401      	adds	r4, #1
10001cfe:	b2a4      	uxth	r4, r4
10001d00:	42bc      	cmp	r4, r7
10001d02:	d3f7      	bcc.n	10001cf4 <command_handler+0x194>
10001d04:	200a      	movs	r0, #10
10001d06:	f004 ffb1 	bl	10006c6c <__wrap_putchar>
10001d0a:	2180      	movs	r1, #128	; 0x80
10001d0c:	0028      	movs	r0, r5
10001d0e:	f7ff fe13 	bl	10001938 <set_ack>
10001d12:	e74b      	b.n	10001bac <command_handler+0x4c>
10001d14:	01a1      	lsls	r1, r4, #6
10001d16:	4b20      	ldr	r3, [pc, #128]	; (10001d98 <command_handler+0x238>)
10001d18:	18c9      	adds	r1, r1, r3
10001d1a:	481e      	ldr	r0, [pc, #120]	; (10001d94 <command_handler+0x234>)
10001d1c:	f004 fff4 	bl	10006d08 <__wrap_printf>
10001d20:	3401      	adds	r4, #1
10001d22:	b2e4      	uxtb	r4, r4
10001d24:	2c1f      	cmp	r4, #31
10001d26:	d9f5      	bls.n	10001d14 <command_handler+0x1b4>
10001d28:	200a      	movs	r0, #10
10001d2a:	f004 ff9f 	bl	10006c6c <__wrap_putchar>
10001d2e:	01aa      	lsls	r2, r5, #6
10001d30:	4b19      	ldr	r3, [pc, #100]	; (10001d98 <command_handler+0x238>)
10001d32:	18d2      	adds	r2, r2, r3
10001d34:	2340      	movs	r3, #64	; 0x40
10001d36:	2121      	movs	r1, #33	; 0x21
10001d38:	0028      	movs	r0, r5
10001d3a:	f006 fe5f 	bl	100089fc <tud_hid_n_report>
10001d3e:	bdf8      	pop	{r3, r4, r5, r6, r7, pc}
10001d40:	10009f8c 	.word	0x10009f8c
10001d44:	1000a0b0 	.word	0x1000a0b0
10001d48:	10009f94 	.word	0x10009f94
10001d4c:	1000a0a8 	.word	0x1000a0a8
10001d50:	10009fa4 	.word	0x10009fa4
10001d54:	10009fb4 	.word	0x10009fb4
10001d58:	10009fc4 	.word	0x10009fc4
10001d5c:	20000e24 	.word	0x20000e24
10001d60:	10009fdc 	.word	0x10009fdc
10001d64:	10009ff0 	.word	0x10009ff0
10001d68:	1000a004 	.word	0x1000a004
10001d6c:	1000a02c 	.word	0x1000a02c
10001d70:	1000a054 	.word	0x1000a054
10001d74:	1000a05c 	.word	0x1000a05c
10001d78:	1000a06c 	.word	0x1000a06c
10001d7c:	1000a080 	.word	0x1000a080
10001d80:	10009d7c 	.word	0x10009d7c
10001d84:	10009d88 	.word	0x10009d88
10001d88:	10009d94 	.word	0x10009d94
10001d8c:	10009da0 	.word	0x10009da0
10001d90:	1000a090 	.word	0x1000a090
10001d94:	1000a0a0 	.word	0x1000a0a0
10001d98:	20001674 	.word	0x20001674

10001d9c <report_handler>:
10001d9c:	b570      	push	{r4, r5, r6, lr}
10001d9e:	0005      	movs	r5, r0
10001da0:	0014      	movs	r4, r2
10001da2:	001e      	movs	r6, r3
10001da4:	2910      	cmp	r1, #16
10001da6:	d011      	beq.n	10001dcc <report_handler+0x30>
10001da8:	2980      	cmp	r1, #128	; 0x80
10001daa:	d013      	beq.n	10001dd4 <report_handler+0x38>
10001dac:	2901      	cmp	r1, #1
10001dae:	d003      	beq.n	10001db8 <report_handler+0x1c>
10001db0:	480a      	ldr	r0, [pc, #40]	; (10001ddc <report_handler+0x40>)
10001db2:	f004 ffa9 	bl	10006d08 <__wrap_printf>
10001db6:	e008      	b.n	10001dca <report_handler+0x2e>
10001db8:	1c91      	adds	r1, r2, #2
10001dba:	f7ff fe2c 	bl	10001a16 <rumble_translate>
10001dbe:	7aa1      	ldrb	r1, [r4, #10]
10001dc0:	0033      	movs	r3, r6
10001dc2:	0022      	movs	r2, r4
10001dc4:	0028      	movs	r0, r5
10001dc6:	f7ff fecb 	bl	10001b60 <command_handler>
10001dca:	bd70      	pop	{r4, r5, r6, pc}
10001dcc:	1c91      	adds	r1, r2, #2
10001dce:	f7ff fe22 	bl	10001a16 <rumble_translate>
10001dd2:	e7fa      	b.n	10001dca <report_handler+0x2e>
10001dd4:	7851      	ldrb	r1, [r2, #1]
10001dd6:	f7ff fe49 	bl	10001a6c <info_handler>
10001dda:	e7f6      	b.n	10001dca <report_handler+0x2e>
10001ddc:	1000a1d4 	.word	0x1000a1d4

10001de0 <_unknown_thing>:
10001de0:	4b09      	ldr	r3, [pc, #36]	; (10001e08 <_unknown_thing+0x28>)
10001de2:	781b      	ldrb	r3, [r3, #0]
10001de4:	2b0a      	cmp	r3, #10
10001de6:	d007      	beq.n	10001df8 <_unknown_thing+0x18>
10001de8:	2b0b      	cmp	r3, #11
10001dea:	d009      	beq.n	10001e00 <_unknown_thing+0x20>
10001dec:	4b06      	ldr	r3, [pc, #24]	; (10001e08 <_unknown_thing+0x28>)
10001dee:	220a      	movs	r2, #10
10001df0:	701a      	strb	r2, [r3, #0]
10001df2:	4b05      	ldr	r3, [pc, #20]	; (10001e08 <_unknown_thing+0x28>)
10001df4:	7818      	ldrb	r0, [r3, #0]
10001df6:	4770      	bx	lr
10001df8:	4b03      	ldr	r3, [pc, #12]	; (10001e08 <_unknown_thing+0x28>)
10001dfa:	220b      	movs	r2, #11
10001dfc:	701a      	strb	r2, [r3, #0]
10001dfe:	e7f8      	b.n	10001df2 <_unknown_thing+0x12>
10001e00:	4b01      	ldr	r3, [pc, #4]	; (10001e08 <_unknown_thing+0x28>)
10001e02:	220c      	movs	r2, #12
10001e04:	701a      	strb	r2, [r3, #0]
10001e06:	e7f4      	b.n	10001df2 <_unknown_thing+0x12>
10001e08:	20000e28 	.word	0x20000e28

10001e0c <switch_commands_process>:
10001e0c:	b570      	push	{r4, r5, r6, lr}
10001e0e:	0004      	movs	r4, r0
10001e10:	000d      	movs	r5, r1
10001e12:	4b27      	ldr	r3, [pc, #156]	; (10001eb0 <switch_commands_process+0xa4>)
10001e14:	5c1b      	ldrb	r3, [r3, r0]
10001e16:	2b00      	cmp	r3, #0
10001e18:	d104      	bne.n	10001e24 <switch_commands_process+0x18>
10001e1a:	4b26      	ldr	r3, [pc, #152]	; (10001eb4 <switch_commands_process+0xa8>)
10001e1c:	5c1b      	ldrb	r3, [r3, r0]
10001e1e:	2b30      	cmp	r3, #48	; 0x30
10001e20:	d00e      	beq.n	10001e40 <switch_commands_process+0x34>
10001e22:	bd70      	pop	{r4, r5, r6, pc}
10001e24:	0182      	lsls	r2, r0, #6
10001e26:	4b24      	ldr	r3, [pc, #144]	; (10001eb8 <switch_commands_process+0xac>)
10001e28:	18d2      	adds	r2, r2, r3
10001e2a:	0041      	lsls	r1, r0, #1
10001e2c:	4b23      	ldr	r3, [pc, #140]	; (10001ebc <switch_commands_process+0xb0>)
10001e2e:	5acb      	ldrh	r3, [r1, r3]
10001e30:	4923      	ldr	r1, [pc, #140]	; (10001ec0 <switch_commands_process+0xb4>)
10001e32:	5c09      	ldrb	r1, [r1, r0]
10001e34:	f7ff ffb2 	bl	10001d9c <report_handler>
10001e38:	4b1d      	ldr	r3, [pc, #116]	; (10001eb0 <switch_commands_process+0xa4>)
10001e3a:	2200      	movs	r2, #0
10001e3c:	551a      	strb	r2, [r3, r4]
10001e3e:	e7f0      	b.n	10001e22 <switch_commands_process+0x16>
10001e40:	f7ff fd68 	bl	10001914 <clear_report>
10001e44:	2130      	movs	r1, #48	; 0x30
10001e46:	0020      	movs	r0, r4
10001e48:	f7ff fd70 	bl	1000192c <set_report_id>
10001e4c:	0020      	movs	r0, r4
10001e4e:	f7ff fd83 	bl	10001958 <set_timer>
10001e52:	0020      	movs	r0, r4
10001e54:	f7ff fd96 	bl	10001984 <set_battconn>
10001e58:	782b      	ldrb	r3, [r5, #0]
10001e5a:	01a2      	lsls	r2, r4, #6
10001e5c:	4e19      	ldr	r6, [pc, #100]	; (10001ec4 <switch_commands_process+0xb8>)
10001e5e:	18b6      	adds	r6, r6, r2
10001e60:	70b3      	strb	r3, [r6, #2]
10001e62:	786b      	ldrb	r3, [r5, #1]
10001e64:	70f3      	strb	r3, [r6, #3]
10001e66:	78ab      	ldrb	r3, [r5, #2]
10001e68:	7133      	strb	r3, [r6, #4]
10001e6a:	78eb      	ldrb	r3, [r5, #3]
10001e6c:	7173      	strb	r3, [r6, #5]
10001e6e:	792b      	ldrb	r3, [r5, #4]
10001e70:	210f      	movs	r1, #15
10001e72:	400b      	ands	r3, r1
10001e74:	71b3      	strb	r3, [r6, #6]
10001e76:	7968      	ldrb	r0, [r5, #5]
10001e78:	79ab      	ldrb	r3, [r5, #6]
10001e7a:	021b      	lsls	r3, r3, #8
10001e7c:	4303      	orrs	r3, r0
10001e7e:	111b      	asrs	r3, r3, #4
10001e80:	71f3      	strb	r3, [r6, #7]
10001e82:	79eb      	ldrb	r3, [r5, #7]
10001e84:	7233      	strb	r3, [r6, #8]
10001e86:	7a2b      	ldrb	r3, [r5, #8]
10001e88:	4019      	ands	r1, r3
10001e8a:	7271      	strb	r1, [r6, #9]
10001e8c:	7a69      	ldrb	r1, [r5, #9]
10001e8e:	7aab      	ldrb	r3, [r5, #10]
10001e90:	021b      	lsls	r3, r3, #8
10001e92:	430b      	orrs	r3, r1
10001e94:	111b      	asrs	r3, r3, #4
10001e96:	72b3      	strb	r3, [r6, #10]
10001e98:	f7ff ffa2 	bl	10001de0 <_unknown_thing>
10001e9c:	72f0      	strb	r0, [r6, #11]
10001e9e:	4b0a      	ldr	r3, [pc, #40]	; (10001ec8 <switch_commands_process+0xbc>)
10001ea0:	5d19      	ldrb	r1, [r3, r4]
10001ea2:	2340      	movs	r3, #64	; 0x40
10001ea4:	0032      	movs	r2, r6
10001ea6:	0020      	movs	r0, r4
10001ea8:	f006 fda8 	bl	100089fc <tud_hid_n_report>
10001eac:	e7b9      	b.n	10001e22 <switch_commands_process+0x16>
10001eae:	46c0      	nop			; (mov r8, r8)
10001eb0:	20001878 	.word	0x20001878
10001eb4:	20000e24 	.word	0x20000e24
10001eb8:	20001778 	.word	0x20001778
10001ebc:	20000e1c 	.word	0x20000e1c
10001ec0:	2000187c 	.word	0x2000187c
10001ec4:	20001674 	.word	0x20001674
10001ec8:	20001774 	.word	0x20001774

10001ecc <switch_commands_future_handle>:
10001ecc:	b570      	push	{r4, r5, r6, lr}
10001ece:	000c      	movs	r4, r1
10001ed0:	0011      	movs	r1, r2
10001ed2:	001a      	movs	r2, r3
10001ed4:	4b06      	ldr	r3, [pc, #24]	; (10001ef0 <switch_commands_future_handle+0x24>)
10001ed6:	2501      	movs	r5, #1
10001ed8:	541d      	strb	r5, [r3, r0]
10001eda:	4b06      	ldr	r3, [pc, #24]	; (10001ef4 <switch_commands_future_handle+0x28>)
10001edc:	541c      	strb	r4, [r3, r0]
10001ede:	0044      	lsls	r4, r0, #1
10001ee0:	4b05      	ldr	r3, [pc, #20]	; (10001ef8 <switch_commands_future_handle+0x2c>)
10001ee2:	52e2      	strh	r2, [r4, r3]
10001ee4:	0180      	lsls	r0, r0, #6
10001ee6:	4b05      	ldr	r3, [pc, #20]	; (10001efc <switch_commands_future_handle+0x30>)
10001ee8:	18c0      	adds	r0, r0, r3
10001eea:	f004 fdbd 	bl	10006a68 <__wrap___aeabi_memcpy>
10001eee:	bd70      	pop	{r4, r5, r6, pc}
10001ef0:	20001878 	.word	0x20001878
10001ef4:	2000187c 	.word	0x2000187c
10001ef8:	20000e1c 	.word	0x20000e1c
10001efc:	20001778 	.word	0x20001778

10001f00 <switch_commands_bulkset>:
10001f00:	b510      	push	{r4, lr}
10001f02:	0014      	movs	r4, r2
10001f04:	001a      	movs	r2, r3
10001f06:	0180      	lsls	r0, r0, #6
10001f08:	1840      	adds	r0, r0, r1
10001f0a:	4903      	ldr	r1, [pc, #12]	; (10001f18 <switch_commands_bulkset+0x18>)
10001f0c:	1840      	adds	r0, r0, r1
10001f0e:	0021      	movs	r1, r4
10001f10:	f004 fdaa 	bl	10006a68 <__wrap___aeabi_memcpy>
10001f14:	bd10      	pop	{r4, pc}
10001f16:	46c0      	nop			; (mov r8, r8)
10001f18:	20001674 	.word	0x20001674

10001f1c <sw_spi_getaddressdata>:
10001f1c:	2850      	cmp	r0, #80	; 0x50
10001f1e:	d100      	bne.n	10001f22 <sw_spi_getaddressdata+0x6>
10001f20:	e09f      	b.n	10002062 <sw_spi_getaddressdata+0x146>
10001f22:	d903      	bls.n	10001f2c <sw_spi_getaddressdata+0x10>
10001f24:	2860      	cmp	r0, #96	; 0x60
10001f26:	d01e      	beq.n	10001f66 <sw_spi_getaddressdata+0x4a>
10001f28:	20ff      	movs	r0, #255	; 0xff
10001f2a:	e013      	b.n	10001f54 <sw_spi_getaddressdata+0x38>
10001f2c:	2840      	cmp	r0, #64	; 0x40
10001f2e:	d900      	bls.n	10001f32 <sw_spi_getaddressdata+0x16>
10001f30:	e099      	b.n	10002066 <sw_spi_getaddressdata+0x14a>
10001f32:	2820      	cmp	r0, #32
10001f34:	d308      	bcc.n	10001f48 <sw_spi_getaddressdata+0x2c>
10001f36:	2924      	cmp	r1, #36	; 0x24
10001f38:	d100      	bne.n	10001f3c <sw_spi_getaddressdata+0x20>
10001f3a:	e098      	b.n	1000206e <sw_spi_getaddressdata+0x152>
10001f3c:	d80b      	bhi.n	10001f56 <sw_spi_getaddressdata+0x3a>
10001f3e:	2901      	cmp	r1, #1
10001f40:	d000      	beq.n	10001f44 <sw_spi_getaddressdata+0x28>
10001f42:	e096      	b.n	10002072 <sw_spi_getaddressdata+0x156>
10001f44:	2022      	movs	r0, #34	; 0x22
10001f46:	e005      	b.n	10001f54 <sw_spi_getaddressdata+0x38>
10001f48:	2800      	cmp	r0, #0
10001f4a:	d003      	beq.n	10001f54 <sw_spi_getaddressdata+0x38>
10001f4c:	2810      	cmp	r0, #16
10001f4e:	d000      	beq.n	10001f52 <sw_spi_getaddressdata+0x36>
10001f50:	e08b      	b.n	1000206a <sw_spi_getaddressdata+0x14e>
10001f52:	2000      	movs	r0, #0
10001f54:	4770      	bx	lr
10001f56:	3926      	subs	r1, #38	; 0x26
10001f58:	b2c9      	uxtb	r1, r1
10001f5a:	2925      	cmp	r1, #37	; 0x25
10001f5c:	d801      	bhi.n	10001f62 <sw_spi_getaddressdata+0x46>
10001f5e:	20ff      	movs	r0, #255	; 0xff
10001f60:	e7f8      	b.n	10001f54 <sw_spi_getaddressdata+0x38>
10001f62:	2000      	movs	r0, #0
10001f64:	e7f6      	b.n	10001f54 <sw_spi_getaddressdata+0x38>
10001f66:	29a9      	cmp	r1, #169	; 0xa9
10001f68:	d879      	bhi.n	1000205e <sw_spi_getaddressdata+0x142>
10001f6a:	008b      	lsls	r3, r1, #2
10001f6c:	4a43      	ldr	r2, [pc, #268]	; (1000207c <sw_spi_getaddressdata+0x160>)
10001f6e:	58d3      	ldr	r3, [r2, r3]
10001f70:	469f      	mov	pc, r3
10001f72:	20ff      	movs	r0, #255	; 0xff
10001f74:	e7ee      	b.n	10001f54 <sw_spi_getaddressdata+0x38>
10001f76:	2002      	movs	r0, #2
10001f78:	e7ec      	b.n	10001f54 <sw_spi_getaddressdata+0x38>
10001f7a:	2001      	movs	r0, #1
10001f7c:	e7ea      	b.n	10001f54 <sw_spi_getaddressdata+0x38>
10001f7e:	2023      	movs	r0, #35	; 0x23
10001f80:	e7e8      	b.n	10001f54 <sw_spi_getaddressdata+0x38>
10001f82:	2000      	movs	r0, #0
10001f84:	e7e6      	b.n	10001f54 <sw_spi_getaddressdata+0x38>
10001f86:	20b9      	movs	r0, #185	; 0xb9
10001f88:	e7e4      	b.n	10001f54 <sw_spi_getaddressdata+0x38>
10001f8a:	201a      	movs	r0, #26
10001f8c:	e7e2      	b.n	10001f54 <sw_spi_getaddressdata+0x38>
10001f8e:	2001      	movs	r0, #1
10001f90:	e7e0      	b.n	10001f54 <sw_spi_getaddressdata+0x38>
10001f92:	2000      	movs	r0, #0
10001f94:	e7de      	b.n	10001f54 <sw_spi_getaddressdata+0x38>
10001f96:	2040      	movs	r0, #64	; 0x40
10001f98:	e7dc      	b.n	10001f54 <sw_spi_getaddressdata+0x38>
10001f9a:	2000      	movs	r0, #0
10001f9c:	e7da      	b.n	10001f54 <sw_spi_getaddressdata+0x38>
10001f9e:	2040      	movs	r0, #64	; 0x40
10001fa0:	e7d8      	b.n	10001f54 <sw_spi_getaddressdata+0x38>
10001fa2:	2000      	movs	r0, #0
10001fa4:	e7d6      	b.n	10001f54 <sw_spi_getaddressdata+0x38>
10001fa6:	2040      	movs	r0, #64	; 0x40
10001fa8:	e7d4      	b.n	10001f54 <sw_spi_getaddressdata+0x38>
10001faa:	2001      	movs	r0, #1
10001fac:	e7d2      	b.n	10001f54 <sw_spi_getaddressdata+0x38>
10001fae:	2000      	movs	r0, #0
10001fb0:	e7d0      	b.n	10001f54 <sw_spi_getaddressdata+0x38>
10001fb2:	2001      	movs	r0, #1
10001fb4:	e7ce      	b.n	10001f54 <sw_spi_getaddressdata+0x38>
10001fb6:	2000      	movs	r0, #0
10001fb8:	e7cc      	b.n	10001f54 <sw_spi_getaddressdata+0x38>
10001fba:	2001      	movs	r0, #1
10001fbc:	e7ca      	b.n	10001f54 <sw_spi_getaddressdata+0x38>
10001fbe:	2000      	movs	r0, #0
10001fc0:	e7c8      	b.n	10001f54 <sw_spi_getaddressdata+0x38>
10001fc2:	203b      	movs	r0, #59	; 0x3b
10001fc4:	e7c6      	b.n	10001f54 <sw_spi_getaddressdata+0x38>
10001fc6:	2034      	movs	r0, #52	; 0x34
10001fc8:	e7c4      	b.n	10001f54 <sw_spi_getaddressdata+0x38>
10001fca:	203b      	movs	r0, #59	; 0x3b
10001fcc:	e7c2      	b.n	10001f54 <sw_spi_getaddressdata+0x38>
10001fce:	2034      	movs	r0, #52	; 0x34
10001fd0:	e7c0      	b.n	10001f54 <sw_spi_getaddressdata+0x38>
10001fd2:	203b      	movs	r0, #59	; 0x3b
10001fd4:	e7be      	b.n	10001f54 <sw_spi_getaddressdata+0x38>
10001fd6:	2034      	movs	r0, #52	; 0x34
10001fd8:	e7bc      	b.n	10001f54 <sw_spi_getaddressdata+0x38>
10001fda:	393d      	subs	r1, #61	; 0x3d
10001fdc:	4b28      	ldr	r3, [pc, #160]	; (10002080 <sw_spi_getaddressdata+0x164>)
10001fde:	5c58      	ldrb	r0, [r3, r1]
10001fe0:	e7b8      	b.n	10001f54 <sw_spi_getaddressdata+0x38>
10001fe2:	393d      	subs	r1, #61	; 0x3d
10001fe4:	4b26      	ldr	r3, [pc, #152]	; (10002080 <sw_spi_getaddressdata+0x164>)
10001fe6:	5c58      	ldrb	r0, [r3, r1]
10001fe8:	e7b4      	b.n	10001f54 <sw_spi_getaddressdata+0x38>
10001fea:	201a      	movs	r0, #26
10001fec:	e7b2      	b.n	10001f54 <sw_spi_getaddressdata+0x38>
10001fee:	201a      	movs	r0, #26
10001ff0:	e7b0      	b.n	10001f54 <sw_spi_getaddressdata+0x38>
10001ff2:	201a      	movs	r0, #26
10001ff4:	e7ae      	b.n	10001f54 <sw_spi_getaddressdata+0x38>
10001ff6:	205e      	movs	r0, #94	; 0x5e
10001ff8:	e7ac      	b.n	10001f54 <sw_spi_getaddressdata+0x38>
10001ffa:	2001      	movs	r0, #1
10001ffc:	e7aa      	b.n	10001f54 <sw_spi_getaddressdata+0x38>
10001ffe:	2050      	movs	r0, #80	; 0x50
10002000:	e7a8      	b.n	10001f54 <sw_spi_getaddressdata+0x38>
10002002:	20fd      	movs	r0, #253	; 0xfd
10002004:	e7a6      	b.n	10001f54 <sw_spi_getaddressdata+0x38>
10002006:	2000      	movs	r0, #0
10002008:	e7a4      	b.n	10001f54 <sw_spi_getaddressdata+0x38>
1000200a:	2000      	movs	r0, #0
1000200c:	e7a2      	b.n	10001f54 <sw_spi_getaddressdata+0x38>
1000200e:	20c6      	movs	r0, #198	; 0xc6
10002010:	e7a0      	b.n	10001f54 <sw_spi_getaddressdata+0x38>
10002012:	200f      	movs	r0, #15
10002014:	e79e      	b.n	10001f54 <sw_spi_getaddressdata+0x38>
10002016:	200f      	movs	r0, #15
10002018:	e79c      	b.n	10001f54 <sw_spi_getaddressdata+0x38>
1000201a:	2030      	movs	r0, #48	; 0x30
1000201c:	e79a      	b.n	10001f54 <sw_spi_getaddressdata+0x38>
1000201e:	2061      	movs	r0, #97	; 0x61
10002020:	e798      	b.n	10001f54 <sw_spi_getaddressdata+0x38>
10002022:	20ae      	movs	r0, #174	; 0xae
10002024:	e796      	b.n	10001f54 <sw_spi_getaddressdata+0x38>
10002026:	2090      	movs	r0, #144	; 0x90
10002028:	e794      	b.n	10001f54 <sw_spi_getaddressdata+0x38>
1000202a:	20d9      	movs	r0, #217	; 0xd9
1000202c:	e792      	b.n	10001f54 <sw_spi_getaddressdata+0x38>
1000202e:	20d4      	movs	r0, #212	; 0xd4
10002030:	e790      	b.n	10001f54 <sw_spi_getaddressdata+0x38>
10002032:	2014      	movs	r0, #20
10002034:	e78e      	b.n	10001f54 <sw_spi_getaddressdata+0x38>
10002036:	2054      	movs	r0, #84	; 0x54
10002038:	e78c      	b.n	10001f54 <sw_spi_getaddressdata+0x38>
1000203a:	2041      	movs	r0, #65	; 0x41
1000203c:	e78a      	b.n	10001f54 <sw_spi_getaddressdata+0x38>
1000203e:	2015      	movs	r0, #21
10002040:	e788      	b.n	10001f54 <sw_spi_getaddressdata+0x38>
10002042:	2054      	movs	r0, #84	; 0x54
10002044:	e786      	b.n	10001f54 <sw_spi_getaddressdata+0x38>
10002046:	20c7      	movs	r0, #199	; 0xc7
10002048:	e784      	b.n	10001f54 <sw_spi_getaddressdata+0x38>
1000204a:	2079      	movs	r0, #121	; 0x79
1000204c:	e782      	b.n	10001f54 <sw_spi_getaddressdata+0x38>
1000204e:	209c      	movs	r0, #156	; 0x9c
10002050:	e780      	b.n	10001f54 <sw_spi_getaddressdata+0x38>
10002052:	2033      	movs	r0, #51	; 0x33
10002054:	e77e      	b.n	10001f54 <sw_spi_getaddressdata+0x38>
10002056:	2036      	movs	r0, #54	; 0x36
10002058:	e77c      	b.n	10001f54 <sw_spi_getaddressdata+0x38>
1000205a:	2063      	movs	r0, #99	; 0x63
1000205c:	e77a      	b.n	10001f54 <sw_spi_getaddressdata+0x38>
1000205e:	2000      	movs	r0, #0
10002060:	e778      	b.n	10001f54 <sw_spi_getaddressdata+0x38>
10002062:	2000      	movs	r0, #0
10002064:	e776      	b.n	10001f54 <sw_spi_getaddressdata+0x38>
10002066:	20ff      	movs	r0, #255	; 0xff
10002068:	e774      	b.n	10001f54 <sw_spi_getaddressdata+0x38>
1000206a:	20ff      	movs	r0, #255	; 0xff
1000206c:	e772      	b.n	10001f54 <sw_spi_getaddressdata+0x38>
1000206e:	2068      	movs	r0, #104	; 0x68
10002070:	e770      	b.n	10001f54 <sw_spi_getaddressdata+0x38>
10002072:	2000      	movs	r0, #0
10002074:	e76e      	b.n	10001f54 <sw_spi_getaddressdata+0x38>
10002076:	2003      	movs	r0, #3
10002078:	e76c      	b.n	10001f54 <sw_spi_getaddressdata+0x38>
1000207a:	46c0      	nop			; (mov r8, r8)
1000207c:	1000a200 	.word	0x1000a200
10002080:	20002704 	.word	0x20002704

10002084 <sw_spi_readfromaddress>:
10002084:	b5f0      	push	{r4, r5, r6, r7, lr}
10002086:	46c6      	mov	lr, r8
10002088:	b500      	push	{lr}
1000208a:	b08a      	sub	sp, #40	; 0x28
1000208c:	4680      	mov	r8, r0
1000208e:	000e      	movs	r6, r1
10002090:	0017      	movs	r7, r2
10002092:	001d      	movs	r5, r3
10002094:	aa08      	add	r2, sp, #32
10002096:	7017      	strb	r7, [r2, #0]
10002098:	7051      	strb	r1, [r2, #1]
1000209a:	2400      	movs	r4, #0
1000209c:	7094      	strb	r4, [r2, #2]
1000209e:	70d4      	strb	r4, [r2, #3]
100020a0:	7113      	strb	r3, [r2, #4]
100020a2:	2305      	movs	r3, #5
100020a4:	210e      	movs	r1, #14
100020a6:	f7ff ff2b 	bl	10001f00 <switch_commands_bulkset>
100020aa:	9400      	str	r4, [sp, #0]
100020ac:	221a      	movs	r2, #26
100020ae:	2100      	movs	r1, #0
100020b0:	a801      	add	r0, sp, #4
100020b2:	f004 fcd3 	bl	10006a5c <__wrap_memset>
100020b6:	e007      	b.n	100020c8 <sw_spi_readfromaddress+0x44>
100020b8:	1939      	adds	r1, r7, r4
100020ba:	b2c9      	uxtb	r1, r1
100020bc:	0030      	movs	r0, r6
100020be:	f7ff ff2d 	bl	10001f1c <sw_spi_getaddressdata>
100020c2:	466b      	mov	r3, sp
100020c4:	5518      	strb	r0, [r3, r4]
100020c6:	3401      	adds	r4, #1
100020c8:	42a5      	cmp	r5, r4
100020ca:	dcf5      	bgt.n	100020b8 <sw_spi_readfromaddress+0x34>
100020cc:	002b      	movs	r3, r5
100020ce:	466a      	mov	r2, sp
100020d0:	2113      	movs	r1, #19
100020d2:	4640      	mov	r0, r8
100020d4:	f7ff ff14 	bl	10001f00 <switch_commands_bulkset>
100020d8:	b00a      	add	sp, #40	; 0x28
100020da:	bc80      	pop	{r7}
100020dc:	46b8      	mov	r8, r7
100020de:	bdf0      	pop	{r4, r5, r6, r7, pc}

100020e0 <gcinput_hid_idle>:
100020e0:	b510      	push	{r4, lr}
100020e2:	4b05      	ldr	r3, [pc, #20]	; (100020f8 <gcinput_hid_idle+0x18>)
100020e4:	781b      	ldrb	r3, [r3, #0]
100020e6:	2b00      	cmp	r3, #0
100020e8:	d000      	beq.n	100020ec <gcinput_hid_idle+0xc>
100020ea:	bd10      	pop	{r4, pc}
100020ec:	f7ff fb86 	bl	100017fc <tud_ginput_ready>
100020f0:	4b01      	ldr	r3, [pc, #4]	; (100020f8 <gcinput_hid_idle+0x18>)
100020f2:	7018      	strb	r0, [r3, #0]
100020f4:	e7f9      	b.n	100020ea <gcinput_hid_idle+0xa>
100020f6:	46c0      	nop			; (mov r8, r8)
100020f8:	2000272e 	.word	0x2000272e

100020fc <gcinput_hid_report>:
100020fc:	b5f0      	push	{r4, r5, r6, r7, lr}
100020fe:	46de      	mov	lr, fp
10002100:	4657      	mov	r7, sl
10002102:	464e      	mov	r6, r9
10002104:	4645      	mov	r5, r8
10002106:	b5e0      	push	{r5, r6, r7, lr}
10002108:	b083      	sub	sp, #12
1000210a:	9001      	str	r0, [sp, #4]
1000210c:	4b82      	ldr	r3, [pc, #520]	; (10002318 <gcinput_hid_report+0x21c>)
1000210e:	2221      	movs	r2, #33	; 0x21
10002110:	701a      	strb	r2, [r3, #0]
10002112:	2300      	movs	r3, #0
10002114:	9300      	str	r3, [sp, #0]
10002116:	e011      	b.n	1000213c <gcinput_hid_report+0x40>
10002118:	24ff      	movs	r4, #255	; 0xff
1000211a:	00e9      	lsls	r1, r5, #3
1000211c:	4a7f      	ldr	r2, [pc, #508]	; (1000231c <gcinput_hid_report+0x220>)
1000211e:	1852      	adds	r2, r2, r1
10002120:	7194      	strb	r4, [r2, #6]
10002122:	789a      	ldrb	r2, [r3, #2]
10002124:	0692      	lsls	r2, r2, #26
10002126:	d401      	bmi.n	1000212c <gcinput_hid_report+0x30>
10002128:	791a      	ldrb	r2, [r3, #4]
1000212a:	e000      	b.n	1000212e <gcinput_hid_report+0x32>
1000212c:	22ff      	movs	r2, #255	; 0xff
1000212e:	00ed      	lsls	r5, r5, #3
10002130:	4b7a      	ldr	r3, [pc, #488]	; (1000231c <gcinput_hid_report+0x220>)
10002132:	195d      	adds	r5, r3, r5
10002134:	71ea      	strb	r2, [r5, #7]
10002136:	9b00      	ldr	r3, [sp, #0]
10002138:	3301      	adds	r3, #1
1000213a:	9300      	str	r3, [sp, #0]
1000213c:	9b00      	ldr	r3, [sp, #0]
1000213e:	2b03      	cmp	r3, #3
10002140:	d900      	bls.n	10002144 <gcinput_hid_report+0x48>
10002142:	e0a6      	b.n	10002292 <gcinput_hid_report+0x196>
10002144:	9b00      	ldr	r3, [sp, #0]
10002146:	011b      	lsls	r3, r3, #4
10002148:	9a01      	ldr	r2, [sp, #4]
1000214a:	4694      	mov	ip, r2
1000214c:	4463      	add	r3, ip
1000214e:	689d      	ldr	r5, [r3, #8]
10002150:	2d00      	cmp	r5, #0
10002152:	dbf0      	blt.n	10002136 <gcinput_hid_report+0x3a>
10002154:	00ea      	lsls	r2, r5, #3
10002156:	1951      	adds	r1, r2, r5
10002158:	3101      	adds	r1, #1
1000215a:	4e6f      	ldr	r6, [pc, #444]	; (10002318 <gcinput_hid_report+0x21c>)
1000215c:	5c74      	ldrb	r4, [r6, r1]
1000215e:	2014      	movs	r0, #20
10002160:	4304      	orrs	r4, r0
10002162:	5474      	strb	r4, [r6, r1]
10002164:	78dc      	ldrb	r4, [r3, #3]
10002166:	07e4      	lsls	r4, r4, #31
10002168:	0fe4      	lsrs	r4, r4, #31
1000216a:	496c      	ldr	r1, [pc, #432]	; (1000231c <gcinput_hid_report+0x220>)
1000216c:	2601      	movs	r6, #1
1000216e:	5c50      	ldrb	r0, [r2, r1]
10002170:	43b0      	bics	r0, r6
10002172:	4304      	orrs	r4, r0
10002174:	5454      	strb	r4, [r2, r1]
10002176:	78dc      	ldrb	r4, [r3, #3]
10002178:	07a4      	lsls	r4, r4, #30
1000217a:	0fe4      	lsrs	r4, r4, #31
1000217c:	0064      	lsls	r4, r4, #1
1000217e:	5c50      	ldrb	r0, [r2, r1]
10002180:	4680      	mov	r8, r0
10002182:	2002      	movs	r0, #2
10002184:	4684      	mov	ip, r0
10002186:	4647      	mov	r7, r8
10002188:	4387      	bics	r7, r0
1000218a:	433c      	orrs	r4, r7
1000218c:	5454      	strb	r4, [r2, r1]
1000218e:	78dc      	ldrb	r4, [r3, #3]
10002190:	0764      	lsls	r4, r4, #29
10002192:	0fe4      	lsrs	r4, r4, #31
10002194:	00a4      	lsls	r4, r4, #2
10002196:	5c57      	ldrb	r7, [r2, r1]
10002198:	46b9      	mov	r9, r7
1000219a:	2704      	movs	r7, #4
1000219c:	46b8      	mov	r8, r7
1000219e:	464f      	mov	r7, r9
100021a0:	4640      	mov	r0, r8
100021a2:	4387      	bics	r7, r0
100021a4:	433c      	orrs	r4, r7
100021a6:	5454      	strb	r4, [r2, r1]
100021a8:	78dc      	ldrb	r4, [r3, #3]
100021aa:	0724      	lsls	r4, r4, #28
100021ac:	0fe4      	lsrs	r4, r4, #31
100021ae:	00e4      	lsls	r4, r4, #3
100021b0:	5c50      	ldrb	r0, [r2, r1]
100021b2:	4682      	mov	sl, r0
100021b4:	2008      	movs	r0, #8
100021b6:	4681      	mov	r9, r0
100021b8:	4657      	mov	r7, sl
100021ba:	4387      	bics	r7, r0
100021bc:	433c      	orrs	r4, r7
100021be:	5454      	strb	r4, [r2, r1]
100021c0:	78dc      	ldrb	r4, [r3, #3]
100021c2:	06e4      	lsls	r4, r4, #27
100021c4:	0fe0      	lsrs	r0, r4, #31
100021c6:	4682      	mov	sl, r0
100021c8:	188c      	adds	r4, r1, r2
100021ca:	7860      	ldrb	r0, [r4, #1]
100021cc:	0007      	movs	r7, r0
100021ce:	43b7      	bics	r7, r6
100021d0:	003e      	movs	r6, r7
100021d2:	4650      	mov	r0, sl
100021d4:	4306      	orrs	r6, r0
100021d6:	7066      	strb	r6, [r4, #1]
100021d8:	789e      	ldrb	r6, [r3, #2]
100021da:	0676      	lsls	r6, r6, #25
100021dc:	0ff6      	lsrs	r6, r6, #31
100021de:	00f6      	lsls	r6, r6, #3
100021e0:	7860      	ldrb	r0, [r4, #1]
100021e2:	0007      	movs	r7, r0
100021e4:	4648      	mov	r0, r9
100021e6:	4387      	bics	r7, r0
100021e8:	433e      	orrs	r6, r7
100021ea:	7066      	strb	r6, [r4, #1]
100021ec:	789e      	ldrb	r6, [r3, #2]
100021ee:	06b6      	lsls	r6, r6, #26
100021f0:	0ff6      	lsrs	r6, r6, #31
100021f2:	00b6      	lsls	r6, r6, #2
100021f4:	7860      	ldrb	r0, [r4, #1]
100021f6:	0007      	movs	r7, r0
100021f8:	4640      	mov	r0, r8
100021fa:	4387      	bics	r7, r0
100021fc:	433e      	orrs	r6, r7
100021fe:	7066      	strb	r6, [r4, #1]
10002200:	789e      	ldrb	r6, [r3, #2]
10002202:	06f6      	lsls	r6, r6, #27
10002204:	0ff6      	lsrs	r6, r6, #31
10002206:	0076      	lsls	r6, r6, #1
10002208:	7860      	ldrb	r0, [r4, #1]
1000220a:	0007      	movs	r7, r0
1000220c:	4660      	mov	r0, ip
1000220e:	4387      	bics	r7, r0
10002210:	433e      	orrs	r6, r7
10002212:	7066      	strb	r6, [r4, #1]
10002214:	789e      	ldrb	r6, [r3, #2]
10002216:	0776      	lsls	r6, r6, #29
10002218:	0ff6      	lsrs	r6, r6, #31
1000221a:	01b6      	lsls	r6, r6, #6
1000221c:	5c50      	ldrb	r0, [r2, r1]
1000221e:	4684      	mov	ip, r0
10002220:	2040      	movs	r0, #64	; 0x40
10002222:	4680      	mov	r8, r0
10002224:	4660      	mov	r0, ip
10002226:	4647      	mov	r7, r8
10002228:	43b8      	bics	r0, r7
1000222a:	4306      	orrs	r6, r0
1000222c:	5456      	strb	r6, [r2, r1]
1000222e:	789e      	ldrb	r6, [r3, #2]
10002230:	07f6      	lsls	r6, r6, #31
10002232:	0ef0      	lsrs	r0, r6, #27
10002234:	4684      	mov	ip, r0
10002236:	5c56      	ldrb	r6, [r2, r1]
10002238:	2010      	movs	r0, #16
1000223a:	4386      	bics	r6, r0
1000223c:	4660      	mov	r0, ip
1000223e:	4306      	orrs	r6, r0
10002240:	5456      	strb	r6, [r2, r1]
10002242:	789e      	ldrb	r6, [r3, #2]
10002244:	07b6      	lsls	r6, r6, #30
10002246:	0ff6      	lsrs	r6, r6, #31
10002248:	0176      	lsls	r6, r6, #5
1000224a:	5c50      	ldrb	r0, [r2, r1]
1000224c:	4684      	mov	ip, r0
1000224e:	2020      	movs	r0, #32
10002250:	4680      	mov	r8, r0
10002252:	4660      	mov	r0, ip
10002254:	4647      	mov	r7, r8
10002256:	43b8      	bics	r0, r7
10002258:	4306      	orrs	r6, r0
1000225a:	5456      	strb	r6, [r2, r1]
1000225c:	789e      	ldrb	r6, [r3, #2]
1000225e:	0736      	lsls	r6, r6, #28
10002260:	0ff6      	lsrs	r6, r6, #31
10002262:	01f6      	lsls	r6, r6, #7
10002264:	5c50      	ldrb	r0, [r2, r1]
10002266:	4680      	mov	r8, r0
10002268:	207f      	movs	r0, #127	; 0x7f
1000226a:	4684      	mov	ip, r0
1000226c:	4640      	mov	r0, r8
1000226e:	4667      	mov	r7, ip
10002270:	4038      	ands	r0, r7
10002272:	4306      	orrs	r6, r0
10002274:	5456      	strb	r6, [r2, r1]
10002276:	785a      	ldrb	r2, [r3, #1]
10002278:	70a2      	strb	r2, [r4, #2]
1000227a:	781a      	ldrb	r2, [r3, #0]
1000227c:	70e2      	strb	r2, [r4, #3]
1000227e:	79da      	ldrb	r2, [r3, #7]
10002280:	7122      	strb	r2, [r4, #4]
10002282:	799a      	ldrb	r2, [r3, #6]
10002284:	7162      	strb	r2, [r4, #5]
10002286:	789a      	ldrb	r2, [r3, #2]
10002288:	0652      	lsls	r2, r2, #25
1000228a:	d500      	bpl.n	1000228e <gcinput_hid_report+0x192>
1000228c:	e744      	b.n	10002118 <gcinput_hid_report+0x1c>
1000228e:	795c      	ldrb	r4, [r3, #5]
10002290:	e743      	b.n	1000211a <gcinput_hid_report+0x1e>
10002292:	4b23      	ldr	r3, [pc, #140]	; (10002320 <gcinput_hid_report+0x224>)
10002294:	781b      	ldrb	r3, [r3, #0]
10002296:	2b00      	cmp	r3, #0
10002298:	d11b      	bne.n	100022d2 <gcinput_hid_report+0x1d6>
1000229a:	4b1f      	ldr	r3, [pc, #124]	; (10002318 <gcinput_hid_report+0x21c>)
1000229c:	2204      	movs	r2, #4
1000229e:	7859      	ldrb	r1, [r3, #1]
100022a0:	4311      	orrs	r1, r2
100022a2:	7059      	strb	r1, [r3, #1]
100022a4:	7a99      	ldrb	r1, [r3, #10]
100022a6:	4311      	orrs	r1, r2
100022a8:	7299      	strb	r1, [r3, #10]
100022aa:	7cd9      	ldrb	r1, [r3, #19]
100022ac:	4311      	orrs	r1, r2
100022ae:	74d9      	strb	r1, [r3, #19]
100022b0:	7f19      	ldrb	r1, [r3, #28]
100022b2:	430a      	orrs	r2, r1
100022b4:	771a      	strb	r2, [r3, #28]
100022b6:	4b1a      	ldr	r3, [pc, #104]	; (10002320 <gcinput_hid_report+0x224>)
100022b8:	2201      	movs	r2, #1
100022ba:	701a      	strb	r2, [r3, #0]
100022bc:	f7ff fa9e 	bl	100017fc <tud_ginput_ready>
100022c0:	2800      	cmp	r0, #0
100022c2:	d122      	bne.n	1000230a <gcinput_hid_report+0x20e>
100022c4:	b003      	add	sp, #12
100022c6:	bcf0      	pop	{r4, r5, r6, r7}
100022c8:	46bb      	mov	fp, r7
100022ca:	46b2      	mov	sl, r6
100022cc:	46a9      	mov	r9, r5
100022ce:	46a0      	mov	r8, r4
100022d0:	bdf0      	pop	{r4, r5, r6, r7, pc}
100022d2:	4c11      	ldr	r4, [pc, #68]	; (10002318 <gcinput_hid_report+0x21c>)
100022d4:	4d11      	ldr	r5, [pc, #68]	; (1000231c <gcinput_hid_report+0x220>)
100022d6:	1ca0      	adds	r0, r4, #2
100022d8:	2208      	movs	r2, #8
100022da:	0029      	movs	r1, r5
100022dc:	f004 fbc4 	bl	10006a68 <__wrap___aeabi_memcpy>
100022e0:	0020      	movs	r0, r4
100022e2:	300b      	adds	r0, #11
100022e4:	0029      	movs	r1, r5
100022e6:	3108      	adds	r1, #8
100022e8:	2208      	movs	r2, #8
100022ea:	f004 fbbd 	bl	10006a68 <__wrap___aeabi_memcpy>
100022ee:	0023      	movs	r3, r4
100022f0:	3314      	adds	r3, #20
100022f2:	002a      	movs	r2, r5
100022f4:	3210      	adds	r2, #16
100022f6:	ca03      	ldmia	r2!, {r0, r1}
100022f8:	c303      	stmia	r3!, {r0, r1}
100022fa:	0020      	movs	r0, r4
100022fc:	301d      	adds	r0, #29
100022fe:	0029      	movs	r1, r5
10002300:	3118      	adds	r1, #24
10002302:	2208      	movs	r2, #8
10002304:	f004 fbb0 	bl	10006a68 <__wrap___aeabi_memcpy>
10002308:	e7d8      	b.n	100022bc <gcinput_hid_report+0x1c0>
1000230a:	2225      	movs	r2, #37	; 0x25
1000230c:	4902      	ldr	r1, [pc, #8]	; (10002318 <gcinput_hid_report+0x21c>)
1000230e:	2000      	movs	r0, #0
10002310:	f7ff fac4 	bl	1000189c <tud_ginput_report>
10002314:	e7d6      	b.n	100022c4 <gcinput_hid_report+0x1c8>
10002316:	46c0      	nop			; (mov r8, r8)
10002318:	20001fd4 	.word	0x20001fd4
1000231c:	20002028 	.word	0x20002028
10002320:	2000272d 	.word	0x2000272d

10002324 <swpro_hid_idle>:
10002324:	b510      	push	{r4, lr}
10002326:	0004      	movs	r4, r0
10002328:	7b03      	ldrb	r3, [r0, #12]
1000232a:	2b00      	cmp	r3, #0
1000232c:	d102      	bne.n	10002334 <swpro_hid_idle+0x10>
1000232e:	6880      	ldr	r0, [r0, #8]
10002330:	2800      	cmp	r0, #0
10002332:	da00      	bge.n	10002336 <swpro_hid_idle+0x12>
10002334:	bd10      	pop	{r4, pc}
10002336:	b2c0      	uxtb	r0, r0
10002338:	f006 fb38 	bl	100089ac <tud_hid_n_ready>
1000233c:	7320      	strb	r0, [r4, #12]
1000233e:	e7f9      	b.n	10002334 <swpro_hid_idle+0x10>

10002340 <swpro_hid_report>:
10002340:	b5f0      	push	{r4, r5, r6, r7, lr}
10002342:	46de      	mov	lr, fp
10002344:	4657      	mov	r7, sl
10002346:	464e      	mov	r6, r9
10002348:	4645      	mov	r5, r8
1000234a:	b5e0      	push	{r5, r6, r7, lr}
1000234c:	b083      	sub	sp, #12
1000234e:	9001      	str	r0, [sp, #4]
10002350:	2300      	movs	r3, #0
10002352:	9300      	str	r3, [sp, #0]
10002354:	9b00      	ldr	r3, [sp, #0]
10002356:	2b00      	cmp	r3, #0
10002358:	d006      	beq.n	10002368 <swpro_hid_report+0x28>
1000235a:	b003      	add	sp, #12
1000235c:	bcf0      	pop	{r4, r5, r6, r7}
1000235e:	46bb      	mov	fp, r7
10002360:	46b2      	mov	sl, r6
10002362:	46a9      	mov	r9, r5
10002364:	46a0      	mov	r8, r4
10002366:	bdf0      	pop	{r4, r5, r6, r7, pc}
10002368:	9b00      	ldr	r3, [sp, #0]
1000236a:	011c      	lsls	r4, r3, #4
1000236c:	9b01      	ldr	r3, [sp, #4]
1000236e:	469c      	mov	ip, r3
10002370:	4464      	add	r4, ip
10002372:	68a5      	ldr	r5, [r4, #8]
10002374:	2d00      	cmp	r5, #0
10002376:	da00      	bge.n	1000237a <swpro_hid_report+0x3a>
10002378:	e151      	b.n	1000261e <swpro_hid_report+0x2de>
1000237a:	78a0      	ldrb	r0, [r4, #2]
1000237c:	0740      	lsls	r0, r0, #29
1000237e:	0fc0      	lsrs	r0, r0, #31
10002380:	4aac      	ldr	r2, [pc, #688]	; (10002634 <swpro_hid_report+0x2f4>)
10002382:	00ab      	lsls	r3, r5, #2
10002384:	195b      	adds	r3, r3, r5
10002386:	005b      	lsls	r3, r3, #1
10002388:	195b      	adds	r3, r3, r5
1000238a:	18d1      	adds	r1, r2, r3
1000238c:	2601      	movs	r6, #1
1000238e:	46b1      	mov	r9, r6
10002390:	788e      	ldrb	r6, [r1, #2]
10002392:	464f      	mov	r7, r9
10002394:	43be      	bics	r6, r7
10002396:	4330      	orrs	r0, r6
10002398:	7088      	strb	r0, [r1, #2]
1000239a:	78a0      	ldrb	r0, [r4, #2]
1000239c:	0780      	lsls	r0, r0, #30
1000239e:	0fc0      	lsrs	r0, r0, #31
100023a0:	0080      	lsls	r0, r0, #2
100023a2:	788e      	ldrb	r6, [r1, #2]
100023a4:	3703      	adds	r7, #3
100023a6:	46bc      	mov	ip, r7
100023a8:	43be      	bics	r6, r7
100023aa:	4330      	orrs	r0, r6
100023ac:	7088      	strb	r0, [r1, #2]
100023ae:	78a0      	ldrb	r0, [r4, #2]
100023b0:	07c0      	lsls	r0, r0, #31
100023b2:	0f06      	lsrs	r6, r0, #28
100023b4:	7888      	ldrb	r0, [r1, #2]
100023b6:	3704      	adds	r7, #4
100023b8:	46b8      	mov	r8, r7
100023ba:	43b8      	bics	r0, r7
100023bc:	4330      	orrs	r0, r6
100023be:	7088      	strb	r0, [r1, #2]
100023c0:	78a0      	ldrb	r0, [r4, #2]
100023c2:	0700      	lsls	r0, r0, #28
100023c4:	0fc0      	lsrs	r0, r0, #31
100023c6:	0040      	lsls	r0, r0, #1
100023c8:	788e      	ldrb	r6, [r1, #2]
100023ca:	46b2      	mov	sl, r6
100023cc:	2602      	movs	r6, #2
100023ce:	46b3      	mov	fp, r6
100023d0:	4657      	mov	r7, sl
100023d2:	43b7      	bics	r7, r6
100023d4:	4338      	orrs	r0, r7
100023d6:	7088      	strb	r0, [r1, #2]
100023d8:	78e0      	ldrb	r0, [r4, #3]
100023da:	0700      	lsls	r0, r0, #28
100023dc:	0fc0      	lsrs	r0, r0, #31
100023de:	5c9f      	ldrb	r7, [r3, r2]
100023e0:	464e      	mov	r6, r9
100023e2:	43b7      	bics	r7, r6
100023e4:	4338      	orrs	r0, r7
100023e6:	5498      	strb	r0, [r3, r2]
100023e8:	78e0      	ldrb	r0, [r4, #3]
100023ea:	0740      	lsls	r0, r0, #29
100023ec:	0fc0      	lsrs	r0, r0, #31
100023ee:	0040      	lsls	r0, r0, #1
100023f0:	5c9e      	ldrb	r6, [r3, r2]
100023f2:	0037      	movs	r7, r6
100023f4:	465e      	mov	r6, fp
100023f6:	43b7      	bics	r7, r6
100023f8:	4338      	orrs	r0, r7
100023fa:	5498      	strb	r0, [r3, r2]
100023fc:	78e0      	ldrb	r0, [r4, #3]
100023fe:	07c0      	lsls	r0, r0, #31
10002400:	0f00      	lsrs	r0, r0, #28
10002402:	4681      	mov	r9, r0
10002404:	5c98      	ldrb	r0, [r3, r2]
10002406:	4646      	mov	r6, r8
10002408:	43b0      	bics	r0, r6
1000240a:	464e      	mov	r6, r9
1000240c:	4330      	orrs	r0, r6
1000240e:	5498      	strb	r0, [r3, r2]
10002410:	78e0      	ldrb	r0, [r4, #3]
10002412:	0780      	lsls	r0, r0, #30
10002414:	0fc0      	lsrs	r0, r0, #31
10002416:	0080      	lsls	r0, r0, #2
10002418:	5c9e      	ldrb	r6, [r3, r2]
1000241a:	0037      	movs	r7, r6
1000241c:	4666      	mov	r6, ip
1000241e:	43b7      	bics	r7, r6
10002420:	4338      	orrs	r0, r7
10002422:	5498      	strb	r0, [r3, r2]
10002424:	78e0      	ldrb	r0, [r4, #3]
10002426:	06c0      	lsls	r0, r0, #27
10002428:	0fc0      	lsrs	r0, r0, #31
1000242a:	0040      	lsls	r0, r0, #1
1000242c:	784e      	ldrb	r6, [r1, #1]
1000242e:	0037      	movs	r7, r6
10002430:	465e      	mov	r6, fp
10002432:	43b7      	bics	r7, r6
10002434:	4338      	orrs	r0, r7
10002436:	7048      	strb	r0, [r1, #1]
10002438:	78a1      	ldrb	r1, [r4, #2]
1000243a:	06c9      	lsls	r1, r1, #27
1000243c:	0fc9      	lsrs	r1, r1, #31
1000243e:	0189      	lsls	r1, r1, #6
10002440:	5c98      	ldrb	r0, [r3, r2]
10002442:	2640      	movs	r6, #64	; 0x40
10002444:	43b0      	bics	r0, r6
10002446:	4301      	orrs	r1, r0
10002448:	5499      	strb	r1, [r3, r2]
1000244a:	7963      	ldrb	r3, [r4, #5]
1000244c:	2b3c      	cmp	r3, #60	; 0x3c
1000244e:	d875      	bhi.n	1000253c <swpro_hid_report+0x1fc>
10002450:	78a2      	ldrb	r2, [r4, #2]
10002452:	0652      	lsls	r2, r2, #25
10002454:	0fd2      	lsrs	r2, r2, #31
10002456:	00ab      	lsls	r3, r5, #2
10002458:	195b      	adds	r3, r3, r5
1000245a:	005b      	lsls	r3, r3, #1
1000245c:	195b      	adds	r3, r3, r5
1000245e:	4975      	ldr	r1, [pc, #468]	; (10002634 <swpro_hid_report+0x2f4>)
10002460:	18cb      	adds	r3, r1, r3
10002462:	01d1      	lsls	r1, r2, #7
10002464:	7898      	ldrb	r0, [r3, #2]
10002466:	227f      	movs	r2, #127	; 0x7f
10002468:	4002      	ands	r2, r0
1000246a:	430a      	orrs	r2, r1
1000246c:	709a      	strb	r2, [r3, #2]
1000246e:	7923      	ldrb	r3, [r4, #4]
10002470:	2b3c      	cmp	r3, #60	; 0x3c
10002472:	d865      	bhi.n	10002540 <swpro_hid_report+0x200>
10002474:	78a2      	ldrb	r2, [r4, #2]
10002476:	0692      	lsls	r2, r2, #26
10002478:	0fd1      	lsrs	r1, r2, #31
1000247a:	486e      	ldr	r0, [pc, #440]	; (10002634 <swpro_hid_report+0x2f4>)
1000247c:	00ab      	lsls	r3, r5, #2
1000247e:	195b      	adds	r3, r3, r5
10002480:	005b      	lsls	r3, r3, #1
10002482:	195b      	adds	r3, r3, r5
10002484:	01c9      	lsls	r1, r1, #7
10002486:	5c1e      	ldrb	r6, [r3, r0]
10002488:	227f      	movs	r2, #127	; 0x7f
1000248a:	4032      	ands	r2, r6
1000248c:	430a      	orrs	r2, r1
1000248e:	541a      	strb	r2, [r3, r0]
10002490:	7863      	ldrb	r3, [r4, #1]
10002492:	2b1b      	cmp	r3, #27
10002494:	d956      	bls.n	10002544 <swpro_hid_report+0x204>
10002496:	1c18      	adds	r0, r3, #0
10002498:	2be4      	cmp	r3, #228	; 0xe4
1000249a:	d901      	bls.n	100024a0 <swpro_hid_report+0x160>
1000249c:	23e4      	movs	r3, #228	; 0xe4
1000249e:	1c18      	adds	r0, r3, #0
100024a0:	b2c0      	uxtb	r0, r0
100024a2:	381c      	subs	r0, #28
100024a4:	f004 f9b0 	bl	10006808 <__wrap___aeabi_i2f>
100024a8:	1c06      	adds	r6, r0, #0
100024aa:	7823      	ldrb	r3, [r4, #0]
100024ac:	2b1b      	cmp	r3, #27
100024ae:	d94b      	bls.n	10002548 <swpro_hid_report+0x208>
100024b0:	1c18      	adds	r0, r3, #0
100024b2:	2be4      	cmp	r3, #228	; 0xe4
100024b4:	d901      	bls.n	100024ba <swpro_hid_report+0x17a>
100024b6:	23e4      	movs	r3, #228	; 0xe4
100024b8:	1c18      	adds	r0, r3, #0
100024ba:	b2c0      	uxtb	r0, r0
100024bc:	381c      	subs	r0, #28
100024be:	f004 f9a3 	bl	10006808 <__wrap___aeabi_i2f>
100024c2:	4682      	mov	sl, r0
100024c4:	79e3      	ldrb	r3, [r4, #7]
100024c6:	2b1b      	cmp	r3, #27
100024c8:	d941      	bls.n	1000254e <swpro_hid_report+0x20e>
100024ca:	1c18      	adds	r0, r3, #0
100024cc:	2be4      	cmp	r3, #228	; 0xe4
100024ce:	d901      	bls.n	100024d4 <swpro_hid_report+0x194>
100024d0:	23e4      	movs	r3, #228	; 0xe4
100024d2:	1c18      	adds	r0, r3, #0
100024d4:	b2c0      	uxtb	r0, r0
100024d6:	381c      	subs	r0, #28
100024d8:	f004 f996 	bl	10006808 <__wrap___aeabi_i2f>
100024dc:	4681      	mov	r9, r0
100024de:	79a3      	ldrb	r3, [r4, #6]
100024e0:	2b1b      	cmp	r3, #27
100024e2:	d937      	bls.n	10002554 <swpro_hid_report+0x214>
100024e4:	1c18      	adds	r0, r3, #0
100024e6:	2be4      	cmp	r3, #228	; 0xe4
100024e8:	d901      	bls.n	100024ee <swpro_hid_report+0x1ae>
100024ea:	23e4      	movs	r3, #228	; 0xe4
100024ec:	1c18      	adds	r0, r3, #0
100024ee:	b2c0      	uxtb	r0, r0
100024f0:	381c      	subs	r0, #28
100024f2:	f004 f989 	bl	10006808 <__wrap___aeabi_i2f>
100024f6:	4680      	mov	r8, r0
100024f8:	494f      	ldr	r1, [pc, #316]	; (10002638 <swpro_hid_report+0x2f8>)
100024fa:	1c30      	adds	r0, r6, #0
100024fc:	f004 f943 	bl	10006786 <__wrap___aeabi_fmul>
10002500:	1c06      	adds	r6, r0, #0
10002502:	494d      	ldr	r1, [pc, #308]	; (10002638 <swpro_hid_report+0x2f8>)
10002504:	4650      	mov	r0, sl
10002506:	f004 f93e 	bl	10006786 <__wrap___aeabi_fmul>
1000250a:	4682      	mov	sl, r0
1000250c:	494a      	ldr	r1, [pc, #296]	; (10002638 <swpro_hid_report+0x2f8>)
1000250e:	4648      	mov	r0, r9
10002510:	f004 f939 	bl	10006786 <__wrap___aeabi_fmul>
10002514:	4681      	mov	r9, r0
10002516:	4948      	ldr	r1, [pc, #288]	; (10002638 <swpro_hid_report+0x2f8>)
10002518:	4640      	mov	r0, r8
1000251a:	f004 f934 	bl	10006786 <__wrap___aeabi_fmul>
1000251e:	4680      	mov	r8, r0
10002520:	2100      	movs	r1, #0
10002522:	1c30      	adds	r0, r6, #0
10002524:	f004 f960 	bl	100067e8 <__wrap___aeabi_fcmplt>
10002528:	2800      	cmp	r0, #0
1000252a:	d116      	bne.n	1000255a <swpro_hid_report+0x21a>
1000252c:	4943      	ldr	r1, [pc, #268]	; (1000263c <swpro_hid_report+0x2fc>)
1000252e:	1c30      	adds	r0, r6, #0
10002530:	f004 f960 	bl	100067f4 <__wrap___aeabi_fcmpgt>
10002534:	2800      	cmp	r0, #0
10002536:	d011      	beq.n	1000255c <swpro_hid_report+0x21c>
10002538:	4e40      	ldr	r6, [pc, #256]	; (1000263c <swpro_hid_report+0x2fc>)
1000253a:	e00f      	b.n	1000255c <swpro_hid_report+0x21c>
1000253c:	2201      	movs	r2, #1
1000253e:	e78a      	b.n	10002456 <swpro_hid_report+0x116>
10002540:	2101      	movs	r1, #1
10002542:	e79a      	b.n	1000247a <swpro_hid_report+0x13a>
10002544:	2600      	movs	r6, #0
10002546:	e7b0      	b.n	100024aa <swpro_hid_report+0x16a>
10002548:	2300      	movs	r3, #0
1000254a:	469a      	mov	sl, r3
1000254c:	e7ba      	b.n	100024c4 <swpro_hid_report+0x184>
1000254e:	2300      	movs	r3, #0
10002550:	4699      	mov	r9, r3
10002552:	e7c4      	b.n	100024de <swpro_hid_report+0x19e>
10002554:	2300      	movs	r3, #0
10002556:	4698      	mov	r8, r3
10002558:	e7ce      	b.n	100024f8 <swpro_hid_report+0x1b8>
1000255a:	2600      	movs	r6, #0
1000255c:	2100      	movs	r1, #0
1000255e:	4650      	mov	r0, sl
10002560:	f004 f942 	bl	100067e8 <__wrap___aeabi_fcmplt>
10002564:	2800      	cmp	r0, #0
10002566:	d108      	bne.n	1000257a <swpro_hid_report+0x23a>
10002568:	4934      	ldr	r1, [pc, #208]	; (1000263c <swpro_hid_report+0x2fc>)
1000256a:	4650      	mov	r0, sl
1000256c:	f004 f942 	bl	100067f4 <__wrap___aeabi_fcmpgt>
10002570:	2800      	cmp	r0, #0
10002572:	d004      	beq.n	1000257e <swpro_hid_report+0x23e>
10002574:	4b31      	ldr	r3, [pc, #196]	; (1000263c <swpro_hid_report+0x2fc>)
10002576:	469a      	mov	sl, r3
10002578:	e001      	b.n	1000257e <swpro_hid_report+0x23e>
1000257a:	2300      	movs	r3, #0
1000257c:	469a      	mov	sl, r3
1000257e:	2100      	movs	r1, #0
10002580:	4648      	mov	r0, r9
10002582:	f004 f931 	bl	100067e8 <__wrap___aeabi_fcmplt>
10002586:	2800      	cmp	r0, #0
10002588:	d108      	bne.n	1000259c <swpro_hid_report+0x25c>
1000258a:	492c      	ldr	r1, [pc, #176]	; (1000263c <swpro_hid_report+0x2fc>)
1000258c:	4648      	mov	r0, r9
1000258e:	f004 f931 	bl	100067f4 <__wrap___aeabi_fcmpgt>
10002592:	2800      	cmp	r0, #0
10002594:	d004      	beq.n	100025a0 <swpro_hid_report+0x260>
10002596:	4b29      	ldr	r3, [pc, #164]	; (1000263c <swpro_hid_report+0x2fc>)
10002598:	4699      	mov	r9, r3
1000259a:	e001      	b.n	100025a0 <swpro_hid_report+0x260>
1000259c:	2300      	movs	r3, #0
1000259e:	4699      	mov	r9, r3
100025a0:	2100      	movs	r1, #0
100025a2:	4640      	mov	r0, r8
100025a4:	f004 f920 	bl	100067e8 <__wrap___aeabi_fcmplt>
100025a8:	2800      	cmp	r0, #0
100025aa:	d108      	bne.n	100025be <swpro_hid_report+0x27e>
100025ac:	4923      	ldr	r1, [pc, #140]	; (1000263c <swpro_hid_report+0x2fc>)
100025ae:	4640      	mov	r0, r8
100025b0:	f004 f920 	bl	100067f4 <__wrap___aeabi_fcmpgt>
100025b4:	2800      	cmp	r0, #0
100025b6:	d004      	beq.n	100025c2 <swpro_hid_report+0x282>
100025b8:	4b20      	ldr	r3, [pc, #128]	; (1000263c <swpro_hid_report+0x2fc>)
100025ba:	4698      	mov	r8, r3
100025bc:	e001      	b.n	100025c2 <swpro_hid_report+0x282>
100025be:	2300      	movs	r3, #0
100025c0:	4698      	mov	r8, r3
100025c2:	1c30      	adds	r0, r6, #0
100025c4:	f004 f974 	bl	100068b0 <__wrap___aeabi_f2uiz>
100025c8:	b283      	uxth	r3, r0
100025ca:	00ae      	lsls	r6, r5, #2
100025cc:	1976      	adds	r6, r6, r5
100025ce:	0076      	lsls	r6, r6, #1
100025d0:	1976      	adds	r6, r6, r5
100025d2:	4a18      	ldr	r2, [pc, #96]	; (10002634 <swpro_hid_report+0x2f4>)
100025d4:	1996      	adds	r6, r2, r6
100025d6:	22ff      	movs	r2, #255	; 0xff
100025d8:	4693      	mov	fp, r2
100025da:	4010      	ands	r0, r2
100025dc:	70f0      	strb	r0, [r6, #3]
100025de:	0a1b      	lsrs	r3, r3, #8
100025e0:	7133      	strb	r3, [r6, #4]
100025e2:	4650      	mov	r0, sl
100025e4:	f004 f964 	bl	100068b0 <__wrap___aeabi_f2uiz>
100025e8:	b283      	uxth	r3, r0
100025ea:	465a      	mov	r2, fp
100025ec:	4010      	ands	r0, r2
100025ee:	7170      	strb	r0, [r6, #5]
100025f0:	0a1b      	lsrs	r3, r3, #8
100025f2:	71b3      	strb	r3, [r6, #6]
100025f4:	4648      	mov	r0, r9
100025f6:	f004 f95b 	bl	100068b0 <__wrap___aeabi_f2uiz>
100025fa:	b283      	uxth	r3, r0
100025fc:	465a      	mov	r2, fp
100025fe:	4010      	ands	r0, r2
10002600:	71f0      	strb	r0, [r6, #7]
10002602:	0a1b      	lsrs	r3, r3, #8
10002604:	7233      	strb	r3, [r6, #8]
10002606:	4640      	mov	r0, r8
10002608:	f004 f952 	bl	100068b0 <__wrap___aeabi_f2uiz>
1000260c:	b283      	uxth	r3, r0
1000260e:	465a      	mov	r2, fp
10002610:	4010      	ands	r0, r2
10002612:	7270      	strb	r0, [r6, #9]
10002614:	0a1b      	lsrs	r3, r3, #8
10002616:	72b3      	strb	r3, [r6, #10]
10002618:	7b23      	ldrb	r3, [r4, #12]
1000261a:	2b00      	cmp	r3, #0
1000261c:	d103      	bne.n	10002626 <swpro_hid_report+0x2e6>
1000261e:	9b00      	ldr	r3, [sp, #0]
10002620:	3301      	adds	r3, #1
10002622:	9300      	str	r3, [sp, #0]
10002624:	e696      	b.n	10002354 <swpro_hid_report+0x14>
10002626:	0031      	movs	r1, r6
10002628:	b2e8      	uxtb	r0, r5
1000262a:	f7ff fbef 	bl	10001e0c <switch_commands_process>
1000262e:	2300      	movs	r3, #0
10002630:	7323      	strb	r3, [r4, #12]
10002632:	e7f4      	b.n	1000261e <swpro_hid_report+0x2de>
10002634:	20002048 	.word	0x20002048
10002638:	41a3d70a 	.word	0x41a3d70a
1000263c:	457ff000 	.word	0x457ff000

10002640 <webusb_set_indicate>:
10002640:	4b01      	ldr	r3, [pc, #4]	; (10002648 <webusb_set_indicate+0x8>)
10002642:	2201      	movs	r2, #1
10002644:	701a      	strb	r2, [r3, #0]
10002646:	4770      	bx	lr
10002648:	20002734 	.word	0x20002734

1000264c <webusb_save_confirm>:
1000264c:	b510      	push	{r4, lr}
1000264e:	4b0e      	ldr	r3, [pc, #56]	; (10002688 <webusb_save_confirm+0x3c>)
10002650:	781b      	ldrb	r3, [r3, #0]
10002652:	2b00      	cmp	r3, #0
10002654:	d100      	bne.n	10002658 <webusb_save_confirm+0xc>
10002656:	bd10      	pop	{r4, pc}
10002658:	480c      	ldr	r0, [pc, #48]	; (1000268c <webusb_save_confirm+0x40>)
1000265a:	f004 fb25 	bl	10006ca8 <__wrap_puts>
1000265e:	4c0c      	ldr	r4, [pc, #48]	; (10002690 <webusb_save_confirm+0x44>)
10002660:	2240      	movs	r2, #64	; 0x40
10002662:	2100      	movs	r1, #0
10002664:	0020      	movs	r0, r4
10002666:	f004 f9f9 	bl	10006a5c <__wrap_memset>
1000266a:	23f1      	movs	r3, #241	; 0xf1
1000266c:	7023      	strb	r3, [r4, #0]
1000266e:	2240      	movs	r2, #64	; 0x40
10002670:	0021      	movs	r1, r4
10002672:	2000      	movs	r0, #0
10002674:	f006 fc3e 	bl	10008ef4 <tud_vendor_n_write>
10002678:	2000      	movs	r0, #0
1000267a:	f006 fc59 	bl	10008f30 <tud_vendor_n_flush>
1000267e:	4b02      	ldr	r3, [pc, #8]	; (10002688 <webusb_save_confirm+0x3c>)
10002680:	2200      	movs	r2, #0
10002682:	701a      	strb	r2, [r3, #0]
10002684:	e7e7      	b.n	10002656 <webusb_save_confirm+0xa>
10002686:	46c0      	nop			; (mov r8, r8)
10002688:	20002734 	.word	0x20002734
1000268c:	1000a5c8 	.word	0x1000a5c8
10002690:	20001c74 	.word	0x20001c74

10002694 <webusb_command_processor>:
10002694:	b510      	push	{r4, lr}
10002696:	7803      	ldrb	r3, [r0, #0]
10002698:	2baf      	cmp	r3, #175	; 0xaf
1000269a:	d007      	beq.n	100026ac <webusb_command_processor+0x18>
1000269c:	2bf1      	cmp	r3, #241	; 0xf1
1000269e:	d014      	beq.n	100026ca <webusb_command_processor+0x36>
100026a0:	2b0f      	cmp	r3, #15
100026a2:	d000      	beq.n	100026a6 <webusb_command_processor+0x12>
100026a4:	bd10      	pop	{r4, pc}
100026a6:	f7fe f8e9 	bl	1000087c <adapter_ll_reboot_bootloader>
100026aa:	e7fb      	b.n	100026a4 <webusb_command_processor+0x10>
100026ac:	490b      	ldr	r1, [pc, #44]	; (100026dc <webusb_command_processor+0x48>)
100026ae:	23af      	movs	r3, #175	; 0xaf
100026b0:	700b      	strb	r3, [r1, #0]
100026b2:	2300      	movs	r3, #0
100026b4:	704b      	strb	r3, [r1, #1]
100026b6:	3301      	adds	r3, #1
100026b8:	708b      	strb	r3, [r1, #2]
100026ba:	2240      	movs	r2, #64	; 0x40
100026bc:	2000      	movs	r0, #0
100026be:	f006 fc19 	bl	10008ef4 <tud_vendor_n_write>
100026c2:	2000      	movs	r0, #0
100026c4:	f006 fc34 	bl	10008f30 <tud_vendor_n_flush>
100026c8:	e7ec      	b.n	100026a4 <webusb_command_processor+0x10>
100026ca:	4805      	ldr	r0, [pc, #20]	; (100026e0 <webusb_command_processor+0x4c>)
100026cc:	f004 faec 	bl	10006ca8 <__wrap_puts>
100026d0:	f7ff ffb6 	bl	10002640 <webusb_set_indicate>
100026d4:	f7fe fcd6 	bl	10001084 <settings_save>
100026d8:	e7e4      	b.n	100026a4 <webusb_command_processor+0x10>
100026da:	46c0      	nop			; (mov r8, r8)
100026dc:	20001c74 	.word	0x20001c74
100026e0:	1000a5e0 	.word	0x1000a5e0

100026e4 <sign_axis>:
100026e4:	b510      	push	{r4, lr}
100026e6:	f004 f88a 	bl	100067fe <__wrap___aeabi_ui2f>
100026ea:	4911      	ldr	r1, [pc, #68]	; (10002730 <sign_axis+0x4c>)
100026ec:	f004 f82b 	bl	10006746 <__wrap___aeabi_fsub>
100026f0:	f004 f8e6 	bl	100068c0 <__wrap___aeabi_f2d>
100026f4:	4a0f      	ldr	r2, [pc, #60]	; (10002734 <sign_axis+0x50>)
100026f6:	4b10      	ldr	r3, [pc, #64]	; (10002738 <sign_axis+0x54>)
100026f8:	f003 fbfd 	bl	10005ef6 <__wrap___aeabi_dmul>
100026fc:	f003 fcb4 	bl	10006068 <__wrap___aeabi_d2f>
10002700:	2187      	movs	r1, #135	; 0x87
10002702:	05c9      	lsls	r1, r1, #23
10002704:	f004 f83f 	bl	10006786 <__wrap___aeabi_fmul>
10002708:	1c04      	adds	r4, r0, #0
1000270a:	490c      	ldr	r1, [pc, #48]	; (1000273c <sign_axis+0x58>)
1000270c:	f004 f872 	bl	100067f4 <__wrap___aeabi_fcmpgt>
10002710:	2800      	cmp	r0, #0
10002712:	d107      	bne.n	10002724 <sign_axis+0x40>
10002714:	490a      	ldr	r1, [pc, #40]	; (10002740 <sign_axis+0x5c>)
10002716:	1c20      	adds	r0, r4, #0
10002718:	f004 f866 	bl	100067e8 <__wrap___aeabi_fcmplt>
1000271c:	2800      	cmp	r0, #0
1000271e:	d002      	beq.n	10002726 <sign_axis+0x42>
10002720:	4c07      	ldr	r4, [pc, #28]	; (10002740 <sign_axis+0x5c>)
10002722:	e000      	b.n	10002726 <sign_axis+0x42>
10002724:	4c05      	ldr	r4, [pc, #20]	; (1000273c <sign_axis+0x58>)
10002726:	1c20      	adds	r0, r4, #0
10002728:	f004 f890 	bl	1000684c <__wrap___aeabi_f2iz>
1000272c:	b200      	sxth	r0, r0
1000272e:	bd10      	pop	{r4, pc}
10002730:	42fe0000 	.word	0x42fe0000
10002734:	47ae147b 	.word	0x47ae147b
10002738:	3ff47ae1 	.word	0x3ff47ae1
1000273c:	46fffa00 	.word	0x46fffa00
10002740:	c6fffa00 	.word	0xc6fffa00

10002744 <xinput_hid_idle>:
10002744:	b510      	push	{r4, lr}
10002746:	0004      	movs	r4, r0
10002748:	7b03      	ldrb	r3, [r0, #12]
1000274a:	2b00      	cmp	r3, #0
1000274c:	d102      	bne.n	10002754 <xinput_hid_idle+0x10>
1000274e:	6880      	ldr	r0, [r0, #8]
10002750:	2800      	cmp	r0, #0
10002752:	da00      	bge.n	10002756 <xinput_hid_idle+0x12>
10002754:	bd10      	pop	{r4, pc}
10002756:	b2c0      	uxtb	r0, r0
10002758:	f7fe fe00 	bl	1000135c <tud_xinput_n_ready>
1000275c:	7320      	strb	r0, [r4, #12]
1000275e:	e7f9      	b.n	10002754 <xinput_hid_idle+0x10>

10002760 <xinput_hid_report>:
10002760:	b5f8      	push	{r3, r4, r5, r6, r7, lr}
10002762:	46ce      	mov	lr, r9
10002764:	4647      	mov	r7, r8
10002766:	b580      	push	{r7, lr}
10002768:	4680      	mov	r8, r0
1000276a:	2700      	movs	r7, #0
1000276c:	2f00      	cmp	r7, #0
1000276e:	d003      	beq.n	10002778 <xinput_hid_report+0x18>
10002770:	bcc0      	pop	{r6, r7}
10002772:	46b9      	mov	r9, r7
10002774:	46b0      	mov	r8, r6
10002776:	bdf8      	pop	{r3, r4, r5, r6, r7, pc}
10002778:	013d      	lsls	r5, r7, #4
1000277a:	4445      	add	r5, r8
1000277c:	68a9      	ldr	r1, [r5, #8]
1000277e:	2900      	cmp	r1, #0
10002780:	da00      	bge.n	10002784 <xinput_hid_report+0x24>
10002782:	e084      	b.n	1000288e <xinput_hid_report+0x12e>
10002784:	b2cb      	uxtb	r3, r1
10002786:	4699      	mov	r9, r3
10002788:	26ff      	movs	r6, #255	; 0xff
1000278a:	400e      	ands	r6, r1
1000278c:	7868      	ldrb	r0, [r5, #1]
1000278e:	f7ff ffa9 	bl	100026e4 <sign_axis>
10002792:	00b4      	lsls	r4, r6, #2
10002794:	19a4      	adds	r4, r4, r6
10002796:	00a3      	lsls	r3, r4, #2
10002798:	4c45      	ldr	r4, [pc, #276]	; (100028b0 <xinput_hid_report+0x150>)
1000279a:	18e4      	adds	r4, r4, r3
1000279c:	80e0      	strh	r0, [r4, #6]
1000279e:	7828      	ldrb	r0, [r5, #0]
100027a0:	f7ff ffa0 	bl	100026e4 <sign_axis>
100027a4:	8120      	strh	r0, [r4, #8]
100027a6:	79e8      	ldrb	r0, [r5, #7]
100027a8:	f7ff ff9c 	bl	100026e4 <sign_axis>
100027ac:	8160      	strh	r0, [r4, #10]
100027ae:	79a8      	ldrb	r0, [r5, #6]
100027b0:	f7ff ff98 	bl	100026e4 <sign_axis>
100027b4:	81a0      	strh	r0, [r4, #12]
100027b6:	78ab      	ldrb	r3, [r5, #2]
100027b8:	071b      	lsls	r3, r3, #28
100027ba:	0fdb      	lsrs	r3, r3, #31
100027bc:	78a2      	ldrb	r2, [r4, #2]
100027be:	2101      	movs	r1, #1
100027c0:	438a      	bics	r2, r1
100027c2:	4313      	orrs	r3, r2
100027c4:	70a3      	strb	r3, [r4, #2]
100027c6:	78ab      	ldrb	r3, [r5, #2]
100027c8:	075b      	lsls	r3, r3, #29
100027ca:	0fdb      	lsrs	r3, r3, #31
100027cc:	005b      	lsls	r3, r3, #1
100027ce:	78a1      	ldrb	r1, [r4, #2]
100027d0:	2202      	movs	r2, #2
100027d2:	4391      	bics	r1, r2
100027d4:	430b      	orrs	r3, r1
100027d6:	70a3      	strb	r3, [r4, #2]
100027d8:	78ab      	ldrb	r3, [r5, #2]
100027da:	07db      	lsls	r3, r3, #31
100027dc:	0f59      	lsrs	r1, r3, #29
100027de:	78a3      	ldrb	r3, [r4, #2]
100027e0:	2004      	movs	r0, #4
100027e2:	4383      	bics	r3, r0
100027e4:	430b      	orrs	r3, r1
100027e6:	70a3      	strb	r3, [r4, #2]
100027e8:	78ab      	ldrb	r3, [r5, #2]
100027ea:	079b      	lsls	r3, r3, #30
100027ec:	0fdb      	lsrs	r3, r3, #31
100027ee:	00db      	lsls	r3, r3, #3
100027f0:	78a1      	ldrb	r1, [r4, #2]
100027f2:	3004      	adds	r0, #4
100027f4:	4381      	bics	r1, r0
100027f6:	430b      	orrs	r3, r1
100027f8:	70a3      	strb	r3, [r4, #2]
100027fa:	78eb      	ldrb	r3, [r5, #3]
100027fc:	06db      	lsls	r3, r3, #27
100027fe:	0fdb      	lsrs	r3, r3, #31
10002800:	011b      	lsls	r3, r3, #4
10002802:	78a0      	ldrb	r0, [r4, #2]
10002804:	2110      	movs	r1, #16
10002806:	4388      	bics	r0, r1
10002808:	4303      	orrs	r3, r0
1000280a:	70a3      	strb	r3, [r4, #2]
1000280c:	78ab      	ldrb	r3, [r5, #2]
1000280e:	06db      	lsls	r3, r3, #27
10002810:	0fdb      	lsrs	r3, r3, #31
10002812:	005b      	lsls	r3, r3, #1
10002814:	78e0      	ldrb	r0, [r4, #3]
10002816:	4390      	bics	r0, r2
10002818:	4303      	orrs	r3, r0
1000281a:	70e3      	strb	r3, [r4, #3]
1000281c:	78eb      	ldrb	r3, [r5, #3]
1000281e:	07db      	lsls	r3, r3, #31
10002820:	0eda      	lsrs	r2, r3, #27
10002822:	78e3      	ldrb	r3, [r4, #3]
10002824:	438b      	bics	r3, r1
10002826:	4313      	orrs	r3, r2
10002828:	70e3      	strb	r3, [r4, #3]
1000282a:	78eb      	ldrb	r3, [r5, #3]
1000282c:	079b      	lsls	r3, r3, #30
1000282e:	0fdb      	lsrs	r3, r3, #31
10002830:	015b      	lsls	r3, r3, #5
10002832:	78e2      	ldrb	r2, [r4, #3]
10002834:	3110      	adds	r1, #16
10002836:	438a      	bics	r2, r1
10002838:	4313      	orrs	r3, r2
1000283a:	70e3      	strb	r3, [r4, #3]
1000283c:	78eb      	ldrb	r3, [r5, #3]
1000283e:	075b      	lsls	r3, r3, #29
10002840:	0fdb      	lsrs	r3, r3, #31
10002842:	019b      	lsls	r3, r3, #6
10002844:	78e2      	ldrb	r2, [r4, #3]
10002846:	3120      	adds	r1, #32
10002848:	438a      	bics	r2, r1
1000284a:	4313      	orrs	r3, r2
1000284c:	70e3      	strb	r3, [r4, #3]
1000284e:	78eb      	ldrb	r3, [r5, #3]
10002850:	071b      	lsls	r3, r3, #28
10002852:	0fdb      	lsrs	r3, r3, #31
10002854:	01db      	lsls	r3, r3, #7
10002856:	78e1      	ldrb	r1, [r4, #3]
10002858:	227f      	movs	r2, #127	; 0x7f
1000285a:	400a      	ands	r2, r1
1000285c:	4313      	orrs	r3, r2
1000285e:	70e3      	strb	r3, [r4, #3]
10002860:	78ab      	ldrb	r3, [r5, #2]
10002862:	065b      	lsls	r3, r3, #25
10002864:	d415      	bmi.n	10002892 <xinput_hid_report+0x132>
10002866:	7969      	ldrb	r1, [r5, #5]
10002868:	00b3      	lsls	r3, r6, #2
1000286a:	199b      	adds	r3, r3, r6
1000286c:	009b      	lsls	r3, r3, #2
1000286e:	4a10      	ldr	r2, [pc, #64]	; (100028b0 <xinput_hid_report+0x150>)
10002870:	18d3      	adds	r3, r2, r3
10002872:	7119      	strb	r1, [r3, #4]
10002874:	78ab      	ldrb	r3, [r5, #2]
10002876:	069b      	lsls	r3, r3, #26
10002878:	d40d      	bmi.n	10002896 <xinput_hid_report+0x136>
1000287a:	7929      	ldrb	r1, [r5, #4]
1000287c:	00b3      	lsls	r3, r6, #2
1000287e:	199b      	adds	r3, r3, r6
10002880:	009b      	lsls	r3, r3, #2
10002882:	4a0b      	ldr	r2, [pc, #44]	; (100028b0 <xinput_hid_report+0x150>)
10002884:	18d3      	adds	r3, r2, r3
10002886:	7159      	strb	r1, [r3, #5]
10002888:	7b2b      	ldrb	r3, [r5, #12]
1000288a:	2b00      	cmp	r3, #0
1000288c:	d105      	bne.n	1000289a <xinput_hid_report+0x13a>
1000288e:	3701      	adds	r7, #1
10002890:	e76c      	b.n	1000276c <xinput_hid_report+0xc>
10002892:	2100      	movs	r1, #0
10002894:	e7e8      	b.n	10002868 <xinput_hid_report+0x108>
10002896:	2100      	movs	r1, #0
10002898:	e7f0      	b.n	1000287c <xinput_hid_report+0x11c>
1000289a:	00b1      	lsls	r1, r6, #2
1000289c:	1989      	adds	r1, r1, r6
1000289e:	0089      	lsls	r1, r1, #2
100028a0:	1851      	adds	r1, r2, r1
100028a2:	2214      	movs	r2, #20
100028a4:	4648      	mov	r0, r9
100028a6:	f7fe fd1d 	bl	100012e4 <tud_xinput_n_report>
100028aa:	2300      	movs	r3, #0
100028ac:	732b      	strb	r3, [r5, #12]
100028ae:	e7ee      	b.n	1000288e <xinput_hid_report+0x12e>
100028b0:	20002054 	.word	0x20002054

100028b4 <gpio_set_function>:
100028b4:	b510      	push	{r4, lr}
100028b6:	0083      	lsls	r3, r0, #2
100028b8:	4a08      	ldr	r2, [pc, #32]	; (100028dc <gpio_set_function+0x28>)
100028ba:	4694      	mov	ip, r2
100028bc:	4463      	add	r3, ip
100028be:	681c      	ldr	r4, [r3, #0]
100028c0:	2240      	movs	r2, #64	; 0x40
100028c2:	4062      	eors	r2, r4
100028c4:	24c0      	movs	r4, #192	; 0xc0
100028c6:	4014      	ands	r4, r2
100028c8:	2280      	movs	r2, #128	; 0x80
100028ca:	0152      	lsls	r2, r2, #5
100028cc:	4313      	orrs	r3, r2
100028ce:	601c      	str	r4, [r3, #0]
100028d0:	00c0      	lsls	r0, r0, #3
100028d2:	4b03      	ldr	r3, [pc, #12]	; (100028e0 <gpio_set_function+0x2c>)
100028d4:	469c      	mov	ip, r3
100028d6:	4460      	add	r0, ip
100028d8:	6041      	str	r1, [r0, #4]
100028da:	bd10      	pop	{r4, pc}
100028dc:	4001c004 	.word	0x4001c004
100028e0:	40014000 	.word	0x40014000

100028e4 <gpio_set_pulls>:
100028e4:	0080      	lsls	r0, r0, #2
100028e6:	4b0b      	ldr	r3, [pc, #44]	; (10002914 <gpio_set_pulls+0x30>)
100028e8:	469c      	mov	ip, r3
100028ea:	4460      	add	r0, ip
100028ec:	2900      	cmp	r1, #0
100028ee:	d00d      	beq.n	1000290c <gpio_set_pulls+0x28>
100028f0:	2308      	movs	r3, #8
100028f2:	2a00      	cmp	r2, #0
100028f4:	d00c      	beq.n	10002910 <gpio_set_pulls+0x2c>
100028f6:	2204      	movs	r2, #4
100028f8:	4313      	orrs	r3, r2
100028fa:	6802      	ldr	r2, [r0, #0]
100028fc:	4053      	eors	r3, r2
100028fe:	220c      	movs	r2, #12
10002900:	4013      	ands	r3, r2
10002902:	2280      	movs	r2, #128	; 0x80
10002904:	0152      	lsls	r2, r2, #5
10002906:	4310      	orrs	r0, r2
10002908:	6003      	str	r3, [r0, #0]
1000290a:	4770      	bx	lr
1000290c:	2300      	movs	r3, #0
1000290e:	e7f0      	b.n	100028f2 <gpio_set_pulls+0xe>
10002910:	2200      	movs	r2, #0
10002912:	e7f1      	b.n	100028f8 <gpio_set_pulls+0x14>
10002914:	4001c004 	.word	0x4001c004

10002918 <gpio_set_drive_strength>:
10002918:	0080      	lsls	r0, r0, #2
1000291a:	4b06      	ldr	r3, [pc, #24]	; (10002934 <gpio_set_drive_strength+0x1c>)
1000291c:	469c      	mov	ip, r3
1000291e:	4460      	add	r0, ip
10002920:	0109      	lsls	r1, r1, #4
10002922:	6803      	ldr	r3, [r0, #0]
10002924:	4059      	eors	r1, r3
10002926:	2330      	movs	r3, #48	; 0x30
10002928:	4019      	ands	r1, r3
1000292a:	2380      	movs	r3, #128	; 0x80
1000292c:	015b      	lsls	r3, r3, #5
1000292e:	4318      	orrs	r0, r3
10002930:	6001      	str	r1, [r0, #0]
10002932:	4770      	bx	lr
10002934:	4001c004 	.word	0x4001c004

10002938 <gpio_init>:
10002938:	b510      	push	{r4, lr}
1000293a:	2301      	movs	r3, #1
1000293c:	4083      	lsls	r3, r0
1000293e:	22d0      	movs	r2, #208	; 0xd0
10002940:	0612      	lsls	r2, r2, #24
10002942:	6293      	str	r3, [r2, #40]	; 0x28
10002944:	6193      	str	r3, [r2, #24]
10002946:	2105      	movs	r1, #5
10002948:	f7ff ffb4 	bl	100028b4 <gpio_set_function>
1000294c:	bd10      	pop	{r4, pc}
	...

10002950 <running_on_fpga>:
10002950:	4b03      	ldr	r3, [pc, #12]	; (10002960 <running_on_fpga+0x10>)
10002952:	681b      	ldr	r3, [r3, #0]
10002954:	2002      	movs	r0, #2
10002956:	4018      	ands	r0, r3
10002958:	1e43      	subs	r3, r0, #1
1000295a:	4198      	sbcs	r0, r3
1000295c:	b2c0      	uxtb	r0, r0
1000295e:	4770      	bx	lr
10002960:	4006c000 	.word	0x4006c000

10002964 <hw_claim_lock>:
10002964:	f3ef 8010 	mrs	r0, PRIMASK
10002968:	b672      	cpsid	i
1000296a:	4b03      	ldr	r3, [pc, #12]	; (10002978 <hw_claim_lock+0x14>)
1000296c:	681b      	ldr	r3, [r3, #0]
1000296e:	2b00      	cmp	r3, #0
10002970:	d0fb      	beq.n	1000296a <hw_claim_lock+0x6>
10002972:	f3bf 8f5f 	dmb	sy
10002976:	4770      	bx	lr
10002978:	d000012c 	.word	0xd000012c

1000297c <hw_claim_unlock>:
1000297c:	f3bf 8f5f 	dmb	sy
10002980:	4b02      	ldr	r3, [pc, #8]	; (1000298c <hw_claim_unlock+0x10>)
10002982:	2200      	movs	r2, #0
10002984:	601a      	str	r2, [r3, #0]
10002986:	f380 8810 	msr	PRIMASK, r0
1000298a:	4770      	bx	lr
1000298c:	d000012c 	.word	0xd000012c

10002990 <hw_claim_or_assert>:
10002990:	b5f8      	push	{r3, r4, r5, r6, r7, lr}
10002992:	0006      	movs	r6, r0
10002994:	000c      	movs	r4, r1
10002996:	0015      	movs	r5, r2
10002998:	f7ff ffe4 	bl	10002964 <hw_claim_lock>
1000299c:	08e3      	lsrs	r3, r4, #3
1000299e:	18f7      	adds	r7, r6, r3
100029a0:	5cf1      	ldrb	r1, [r6, r3]
100029a2:	2207      	movs	r2, #7
100029a4:	4022      	ands	r2, r4
100029a6:	2301      	movs	r3, #1
100029a8:	4093      	lsls	r3, r2
100029aa:	420b      	tst	r3, r1
100029ac:	d105      	bne.n	100029ba <hw_claim_or_assert+0x2a>
100029ae:	b2db      	uxtb	r3, r3
100029b0:	430b      	orrs	r3, r1
100029b2:	703b      	strb	r3, [r7, #0]
100029b4:	f7ff ffe2 	bl	1000297c <hw_claim_unlock>
100029b8:	bdf8      	pop	{r3, r4, r5, r6, r7, pc}
100029ba:	0021      	movs	r1, r4
100029bc:	0028      	movs	r0, r5
100029be:	f001 ff1b 	bl	100047f8 <panic>

100029c2 <hw_claim_unused_from_range>:
100029c2:	b5f0      	push	{r4, r5, r6, r7, lr}
100029c4:	b083      	sub	sp, #12
100029c6:	0006      	movs	r6, r0
100029c8:	9101      	str	r1, [sp, #4]
100029ca:	0014      	movs	r4, r2
100029cc:	001f      	movs	r7, r3
100029ce:	f7ff ffc9 	bl	10002964 <hw_claim_lock>
100029d2:	e000      	b.n	100029d6 <hw_claim_unused_from_range+0x14>
100029d4:	3401      	adds	r4, #1
100029d6:	42bc      	cmp	r4, r7
100029d8:	d80c      	bhi.n	100029f4 <hw_claim_unused_from_range+0x32>
100029da:	08e3      	lsrs	r3, r4, #3
100029dc:	18f5      	adds	r5, r6, r3
100029de:	5cf3      	ldrb	r3, [r6, r3]
100029e0:	2107      	movs	r1, #7
100029e2:	4021      	ands	r1, r4
100029e4:	2201      	movs	r2, #1
100029e6:	408a      	lsls	r2, r1
100029e8:	421a      	tst	r2, r3
100029ea:	d1f3      	bne.n	100029d4 <hw_claim_unused_from_range+0x12>
100029ec:	b2d2      	uxtb	r2, r2
100029ee:	431a      	orrs	r2, r3
100029f0:	702a      	strb	r2, [r5, #0]
100029f2:	e001      	b.n	100029f8 <hw_claim_unused_from_range+0x36>
100029f4:	2401      	movs	r4, #1
100029f6:	4264      	negs	r4, r4
100029f8:	f7ff ffc0 	bl	1000297c <hw_claim_unlock>
100029fc:	2c00      	cmp	r4, #0
100029fe:	db02      	blt.n	10002a06 <hw_claim_unused_from_range+0x44>
10002a00:	0020      	movs	r0, r4
10002a02:	b003      	add	sp, #12
10002a04:	bdf0      	pop	{r4, r5, r6, r7, pc}
10002a06:	9b01      	ldr	r3, [sp, #4]
10002a08:	2b00      	cmp	r3, #0
10002a0a:	d0f9      	beq.n	10002a00 <hw_claim_unused_from_range+0x3e>
10002a0c:	9808      	ldr	r0, [sp, #32]
10002a0e:	f001 fef3 	bl	100047f8 <panic>
	...

10002a14 <spin_locks_reset>:
10002a14:	2300      	movs	r3, #0
10002a16:	e007      	b.n	10002a28 <spin_locks_reset+0x14>
10002a18:	4a05      	ldr	r2, [pc, #20]	; (10002a30 <spin_locks_reset+0x1c>)
10002a1a:	189a      	adds	r2, r3, r2
10002a1c:	0092      	lsls	r2, r2, #2
10002a1e:	f3bf 8f5f 	dmb	sy
10002a22:	2100      	movs	r1, #0
10002a24:	6011      	str	r1, [r2, #0]
10002a26:	3301      	adds	r3, #1
10002a28:	2b1f      	cmp	r3, #31
10002a2a:	d9f5      	bls.n	10002a18 <spin_locks_reset+0x4>
10002a2c:	4770      	bx	lr
10002a2e:	46c0      	nop			; (mov r8, r8)
10002a30:	34000040 	.word	0x34000040

10002a34 <next_striped_spin_lock_num>:
10002a34:	4a05      	ldr	r2, [pc, #20]	; (10002a4c <next_striped_spin_lock_num+0x18>)
10002a36:	7810      	ldrb	r0, [r2, #0]
10002a38:	1c43      	adds	r3, r0, #1
10002a3a:	b2db      	uxtb	r3, r3
10002a3c:	7013      	strb	r3, [r2, #0]
10002a3e:	2b17      	cmp	r3, #23
10002a40:	d902      	bls.n	10002a48 <next_striped_spin_lock_num+0x14>
10002a42:	0013      	movs	r3, r2
10002a44:	2210      	movs	r2, #16
10002a46:	701a      	strb	r2, [r3, #0]
10002a48:	4770      	bx	lr
10002a4a:	46c0      	nop			; (mov r8, r8)
10002a4c:	20000e29 	.word	0x20000e29

10002a50 <spin_lock_claim_unused>:
10002a50:	b500      	push	{lr}
10002a52:	b083      	sub	sp, #12
10002a54:	0001      	movs	r1, r0
10002a56:	4b04      	ldr	r3, [pc, #16]	; (10002a68 <spin_lock_claim_unused+0x18>)
10002a58:	9300      	str	r3, [sp, #0]
10002a5a:	231f      	movs	r3, #31
10002a5c:	2218      	movs	r2, #24
10002a5e:	4803      	ldr	r0, [pc, #12]	; (10002a6c <spin_lock_claim_unused+0x1c>)
10002a60:	f7ff ffaf 	bl	100029c2 <hw_claim_unused_from_range>
10002a64:	b003      	add	sp, #12
10002a66:	bd00      	pop	{pc}
10002a68:	1000a5fc 	.word	0x1000a5fc
10002a6c:	20001ffc 	.word	0x20001ffc

10002a70 <set_raw_irq_handler_and_unlock>:
10002a70:	4b07      	ldr	r3, [pc, #28]	; (10002a90 <set_raw_irq_handler_and_unlock+0x20>)
10002a72:	689b      	ldr	r3, [r3, #8]
10002a74:	3010      	adds	r0, #16
10002a76:	0080      	lsls	r0, r0, #2
10002a78:	5019      	str	r1, [r3, r0]
10002a7a:	f3bf 8f5f 	dmb	sy
10002a7e:	f3bf 8f5f 	dmb	sy
10002a82:	4b04      	ldr	r3, [pc, #16]	; (10002a94 <set_raw_irq_handler_and_unlock+0x24>)
10002a84:	2100      	movs	r1, #0
10002a86:	6019      	str	r1, [r3, #0]
10002a88:	f382 8810 	msr	PRIMASK, r2
10002a8c:	4770      	bx	lr
10002a8e:	46c0      	nop			; (mov r8, r8)
10002a90:	e000ed00 	.word	0xe000ed00
10002a94:	d0000124 	.word	0xd0000124

10002a98 <make_branch>:
10002a98:	b510      	push	{r4, lr}
10002a9a:	1a09      	subs	r1, r1, r0
10002a9c:	1f08      	subs	r0, r1, #4
10002a9e:	4b0a      	ldr	r3, [pc, #40]	; (10002ac8 <make_branch+0x30>)
10002aa0:	469c      	mov	ip, r3
10002aa2:	4461      	add	r1, ip
10002aa4:	4a09      	ldr	r2, [pc, #36]	; (10002acc <make_branch+0x34>)
10002aa6:	4291      	cmp	r1, r2
10002aa8:	d808      	bhi.n	10002abc <make_branch+0x24>
10002aaa:	07c3      	lsls	r3, r0, #31
10002aac:	d406      	bmi.n	10002abc <make_branch+0x24>
10002aae:	1040      	asrs	r0, r0, #1
10002ab0:	0540      	lsls	r0, r0, #21
10002ab2:	0d40      	lsrs	r0, r0, #21
10002ab4:	4b06      	ldr	r3, [pc, #24]	; (10002ad0 <make_branch+0x38>)
10002ab6:	4318      	orrs	r0, r3
10002ab8:	b280      	uxth	r0, r0
10002aba:	bd10      	pop	{r4, pc}
10002abc:	4b05      	ldr	r3, [pc, #20]	; (10002ad4 <make_branch+0x3c>)
10002abe:	4a06      	ldr	r2, [pc, #24]	; (10002ad8 <make_branch+0x40>)
10002ac0:	21a3      	movs	r1, #163	; 0xa3
10002ac2:	4806      	ldr	r0, [pc, #24]	; (10002adc <make_branch+0x44>)
10002ac4:	f001 fdfe 	bl	100046c4 <__assert_func>
10002ac8:	000007fc 	.word	0x000007fc
10002acc:	00000ffe 	.word	0x00000ffe
10002ad0:	ffffe000 	.word	0xffffe000
10002ad4:	1000a618 	.word	0x1000a618
10002ad8:	1000a888 	.word	0x1000a888
10002adc:	1000a648 	.word	0x1000a648

10002ae0 <insert_branch_and_link>:
10002ae0:	b510      	push	{r4, lr}
10002ae2:	1a09      	subs	r1, r1, r0
10002ae4:	3904      	subs	r1, #4
10002ae6:	084c      	lsrs	r4, r1, #1
10002ae8:	0b09      	lsrs	r1, r1, #12
10002aea:	d108      	bne.n	10002afe <insert_branch_and_link+0x1e>
10002aec:	0549      	lsls	r1, r1, #21
10002aee:	0d49      	lsrs	r1, r1, #21
10002af0:	4a06      	ldr	r2, [pc, #24]	; (10002b0c <insert_branch_and_link+0x2c>)
10002af2:	4311      	orrs	r1, r2
10002af4:	8001      	strh	r1, [r0, #0]
10002af6:	4b06      	ldr	r3, [pc, #24]	; (10002b10 <insert_branch_and_link+0x30>)
10002af8:	4323      	orrs	r3, r4
10002afa:	8043      	strh	r3, [r0, #2]
10002afc:	bd10      	pop	{r4, pc}
10002afe:	4b05      	ldr	r3, [pc, #20]	; (10002b14 <insert_branch_and_link+0x34>)
10002b00:	4a05      	ldr	r2, [pc, #20]	; (10002b18 <insert_branch_and_link+0x38>)
10002b02:	21ab      	movs	r1, #171	; 0xab
10002b04:	4805      	ldr	r0, [pc, #20]	; (10002b1c <insert_branch_and_link+0x3c>)
10002b06:	f001 fddd 	bl	100046c4 <__assert_func>
10002b0a:	46c0      	nop			; (mov r8, r8)
10002b0c:	fffff000 	.word	0xfffff000
10002b10:	fffff800 	.word	0xfffff800
10002b14:	1000a6a4 	.word	0x1000a6a4
10002b18:	1000a85c 	.word	0x1000a85c
10002b1c:	1000a648 	.word	0x1000a648

10002b20 <irq_is_enabled>:
10002b20:	2301      	movs	r3, #1
10002b22:	4083      	lsls	r3, r0
10002b24:	4a03      	ldr	r2, [pc, #12]	; (10002b34 <irq_is_enabled+0x14>)
10002b26:	6810      	ldr	r0, [r2, #0]
10002b28:	4018      	ands	r0, r3
10002b2a:	1e43      	subs	r3, r0, #1
10002b2c:	4198      	sbcs	r0, r3
10002b2e:	b2c0      	uxtb	r0, r0
10002b30:	4770      	bx	lr
10002b32:	46c0      	nop			; (mov r8, r8)
10002b34:	e000e100 	.word	0xe000e100

10002b38 <irq_set_mask_enabled>:
10002b38:	2900      	cmp	r1, #0
10002b3a:	d004      	beq.n	10002b46 <irq_set_mask_enabled+0xe>
10002b3c:	4b03      	ldr	r3, [pc, #12]	; (10002b4c <irq_set_mask_enabled+0x14>)
10002b3e:	6018      	str	r0, [r3, #0]
10002b40:	4b03      	ldr	r3, [pc, #12]	; (10002b50 <irq_set_mask_enabled+0x18>)
10002b42:	6018      	str	r0, [r3, #0]
10002b44:	4770      	bx	lr
10002b46:	4b03      	ldr	r3, [pc, #12]	; (10002b54 <irq_set_mask_enabled+0x1c>)
10002b48:	6018      	str	r0, [r3, #0]
10002b4a:	e7fb      	b.n	10002b44 <irq_set_mask_enabled+0xc>
10002b4c:	e000e280 	.word	0xe000e280
10002b50:	e000e100 	.word	0xe000e100
10002b54:	e000e180 	.word	0xe000e180

10002b58 <irq_set_enabled>:
10002b58:	b510      	push	{r4, lr}
10002b5a:	2301      	movs	r3, #1
10002b5c:	4083      	lsls	r3, r0
10002b5e:	0018      	movs	r0, r3
10002b60:	f7ff ffea 	bl	10002b38 <irq_set_mask_enabled>
10002b64:	bd10      	pop	{r4, pc}
	...

10002b68 <irq_get_vtable_handler>:
10002b68:	4b02      	ldr	r3, [pc, #8]	; (10002b74 <irq_get_vtable_handler+0xc>)
10002b6a:	689b      	ldr	r3, [r3, #8]
10002b6c:	3010      	adds	r0, #16
10002b6e:	0080      	lsls	r0, r0, #2
10002b70:	58c0      	ldr	r0, [r0, r3]
10002b72:	4770      	bx	lr
10002b74:	e000ed00 	.word	0xe000ed00

10002b78 <irq_set_exclusive_handler>:
10002b78:	b570      	push	{r4, r5, r6, lr}
10002b7a:	0004      	movs	r4, r0
10002b7c:	000d      	movs	r5, r1
10002b7e:	f3ef 8610 	mrs	r6, PRIMASK
10002b82:	b672      	cpsid	i
10002b84:	4b0c      	ldr	r3, [pc, #48]	; (10002bb8 <irq_set_exclusive_handler+0x40>)
10002b86:	681b      	ldr	r3, [r3, #0]
10002b88:	2b00      	cmp	r3, #0
10002b8a:	d0fb      	beq.n	10002b84 <irq_set_exclusive_handler+0xc>
10002b8c:	f3bf 8f5f 	dmb	sy
10002b90:	0020      	movs	r0, r4
10002b92:	f7ff ffe9 	bl	10002b68 <irq_get_vtable_handler>
10002b96:	4b09      	ldr	r3, [pc, #36]	; (10002bbc <irq_set_exclusive_handler+0x44>)
10002b98:	4298      	cmp	r0, r3
10002b9a:	d001      	beq.n	10002ba0 <irq_set_exclusive_handler+0x28>
10002b9c:	42a8      	cmp	r0, r5
10002b9e:	d105      	bne.n	10002bac <irq_set_exclusive_handler+0x34>
10002ba0:	0032      	movs	r2, r6
10002ba2:	0029      	movs	r1, r5
10002ba4:	0020      	movs	r0, r4
10002ba6:	f7ff ff63 	bl	10002a70 <set_raw_irq_handler_and_unlock>
10002baa:	bd70      	pop	{r4, r5, r6, pc}
10002bac:	4b04      	ldr	r3, [pc, #16]	; (10002bc0 <irq_set_exclusive_handler+0x48>)
10002bae:	4a05      	ldr	r2, [pc, #20]	; (10002bc4 <irq_set_exclusive_handler+0x4c>)
10002bb0:	2186      	movs	r1, #134	; 0x86
10002bb2:	4805      	ldr	r0, [pc, #20]	; (10002bc8 <irq_set_exclusive_handler+0x50>)
10002bb4:	f001 fd86 	bl	100046c4 <__assert_func>
10002bb8:	d0000124 	.word	0xd0000124
10002bbc:	100001cd 	.word	0x100001cd
10002bc0:	1000a6b4 	.word	0x1000a6b4
10002bc4:	1000a8bc 	.word	0x1000a8bc
10002bc8:	1000a648 	.word	0x1000a648

10002bcc <irq_add_shared_handler>:
10002bcc:	b5f0      	push	{r4, r5, r6, r7, lr}
10002bce:	46de      	mov	lr, fp
10002bd0:	4657      	mov	r7, sl
10002bd2:	464e      	mov	r6, r9
10002bd4:	4645      	mov	r5, r8
10002bd6:	b5e0      	push	{r5, r6, r7, lr}
10002bd8:	b089      	sub	sp, #36	; 0x24
10002bda:	4681      	mov	r9, r0
10002bdc:	9101      	str	r1, [sp, #4]
10002bde:	0015      	movs	r5, r2
10002be0:	f3ef 8a10 	mrs	sl, PRIMASK
10002be4:	b672      	cpsid	i
10002be6:	4b74      	ldr	r3, [pc, #464]	; (10002db8 <irq_add_shared_handler+0x1ec>)
10002be8:	681b      	ldr	r3, [r3, #0]
10002bea:	2b00      	cmp	r3, #0
10002bec:	d0fb      	beq.n	10002be6 <irq_add_shared_handler+0x1a>
10002bee:	f3bf 8f5f 	dmb	sy
10002bf2:	4b72      	ldr	r3, [pc, #456]	; (10002dbc <irq_add_shared_handler+0x1f0>)
10002bf4:	2700      	movs	r7, #0
10002bf6:	57df      	ldrsb	r7, [r3, r7]
10002bf8:	2f00      	cmp	r7, #0
10002bfa:	db40      	blt.n	10002c7e <irq_add_shared_handler+0xb2>
10002bfc:	007c      	lsls	r4, r7, #1
10002bfe:	19e4      	adds	r4, r4, r7
10002c00:	00a4      	lsls	r4, r4, #2
10002c02:	486f      	ldr	r0, [pc, #444]	; (10002dc0 <irq_add_shared_handler+0x1f4>)
10002c04:	1824      	adds	r4, r4, r0
10002c06:	2206      	movs	r2, #6
10002c08:	56a2      	ldrsb	r2, [r4, r2]
10002c0a:	4b6c      	ldr	r3, [pc, #432]	; (10002dbc <irq_add_shared_handler+0x1f0>)
10002c0c:	701a      	strb	r2, [r3, #0]
10002c0e:	4b6d      	ldr	r3, [pc, #436]	; (10002dc4 <irq_add_shared_handler+0x1f8>)
10002c10:	689a      	ldr	r2, [r3, #8]
10002c12:	464b      	mov	r3, r9
10002c14:	3310      	adds	r3, #16
10002c16:	009b      	lsls	r3, r3, #2
10002c18:	58d3      	ldr	r3, [r2, r3]
10002c1a:	4698      	mov	r8, r3
10002c1c:	001e      	movs	r6, r3
10002c1e:	1a1b      	subs	r3, r3, r0
10002c20:	2b2f      	cmp	r3, #47	; 0x2f
10002c22:	d938      	bls.n	10002c96 <irq_add_shared_handler+0xca>
10002c24:	4b68      	ldr	r3, [pc, #416]	; (10002dc8 <irq_add_shared_handler+0x1fc>)
10002c26:	4598      	cmp	r8, r3
10002c28:	d12f      	bne.n	10002c8a <irq_add_shared_handler+0xbe>
10002c2a:	ae05      	add	r6, sp, #20
10002c2c:	4b67      	ldr	r3, [pc, #412]	; (10002dcc <irq_add_shared_handler+0x200>)
10002c2e:	8033      	strh	r3, [r6, #0]
10002c30:	007b      	lsls	r3, r7, #1
10002c32:	469b      	mov	fp, r3
10002c34:	19d8      	adds	r0, r3, r7
10002c36:	0080      	lsls	r0, r0, #2
10002c38:	4b61      	ldr	r3, [pc, #388]	; (10002dc0 <irq_add_shared_handler+0x1f4>)
10002c3a:	4698      	mov	r8, r3
10002c3c:	4440      	add	r0, r8
10002c3e:	3002      	adds	r0, #2
10002c40:	4963      	ldr	r1, [pc, #396]	; (10002dd0 <irq_add_shared_handler+0x204>)
10002c42:	f7ff ff29 	bl	10002a98 <make_branch>
10002c46:	8070      	strh	r0, [r6, #2]
10002c48:	4b62      	ldr	r3, [pc, #392]	; (10002dd4 <irq_add_shared_handler+0x208>)
10002c4a:	80b3      	strh	r3, [r6, #4]
10002c4c:	23ff      	movs	r3, #255	; 0xff
10002c4e:	71b3      	strb	r3, [r6, #6]
10002c50:	71f5      	strb	r5, [r6, #7]
10002c52:	9b01      	ldr	r3, [sp, #4]
10002c54:	9307      	str	r3, [sp, #28]
10002c56:	445f      	add	r7, fp
10002c58:	00bf      	lsls	r7, r7, #2
10002c5a:	4447      	add	r7, r8
10002c5c:	ce0e      	ldmia	r6!, {r1, r2, r3}
10002c5e:	c70e      	stmia	r7!, {r1, r2, r3}
10002c60:	2301      	movs	r3, #1
10002c62:	431c      	orrs	r4, r3
10002c64:	46a0      	mov	r8, r4
10002c66:	4652      	mov	r2, sl
10002c68:	4641      	mov	r1, r8
10002c6a:	4648      	mov	r0, r9
10002c6c:	f7ff ff00 	bl	10002a70 <set_raw_irq_handler_and_unlock>
10002c70:	b009      	add	sp, #36	; 0x24
10002c72:	bcf0      	pop	{r4, r5, r6, r7}
10002c74:	46bb      	mov	fp, r7
10002c76:	46b2      	mov	sl, r6
10002c78:	46a9      	mov	r9, r5
10002c7a:	46a0      	mov	r8, r4
10002c7c:	bdf0      	pop	{r4, r5, r6, r7, pc}
10002c7e:	4b56      	ldr	r3, [pc, #344]	; (10002dd8 <irq_add_shared_handler+0x20c>)
10002c80:	4a56      	ldr	r2, [pc, #344]	; (10002ddc <irq_add_shared_handler+0x210>)
10002c82:	21d7      	movs	r1, #215	; 0xd7
10002c84:	4856      	ldr	r0, [pc, #344]	; (10002de0 <irq_add_shared_handler+0x214>)
10002c86:	f001 fd1d 	bl	100046c4 <__assert_func>
10002c8a:	4b56      	ldr	r3, [pc, #344]	; (10002de4 <irq_add_shared_handler+0x218>)
10002c8c:	4a53      	ldr	r2, [pc, #332]	; (10002ddc <irq_add_shared_handler+0x210>)
10002c8e:	21de      	movs	r1, #222	; 0xde
10002c90:	4853      	ldr	r0, [pc, #332]	; (10002de0 <irq_add_shared_handler+0x214>)
10002c92:	f001 fd17 	bl	100046c4 <__assert_func>
10002c96:	43c0      	mvns	r0, r0
10002c98:	4440      	add	r0, r8
10002c9a:	210c      	movs	r1, #12
10002c9c:	f002 fec0 	bl	10005a20 <__wrap___aeabi_uidiv>
10002ca0:	2900      	cmp	r1, #0
10002ca2:	d112      	bne.n	10002cca <irq_add_shared_handler+0xfe>
10002ca4:	2301      	movs	r3, #1
10002ca6:	439e      	bics	r6, r3
10002ca8:	46b3      	mov	fp, r6
10002caa:	0033      	movs	r3, r6
10002cac:	2600      	movs	r6, #0
10002cae:	79da      	ldrb	r2, [r3, #7]
10002cb0:	42aa      	cmp	r2, r5
10002cb2:	d911      	bls.n	10002cd8 <irq_add_shared_handler+0x10c>
10002cb4:	2106      	movs	r1, #6
10002cb6:	5659      	ldrsb	r1, [r3, r1]
10002cb8:	2900      	cmp	r1, #0
10002cba:	db0c      	blt.n	10002cd6 <irq_add_shared_handler+0x10a>
10002cbc:	004a      	lsls	r2, r1, #1
10002cbe:	1852      	adds	r2, r2, r1
10002cc0:	0092      	lsls	r2, r2, #2
10002cc2:	001e      	movs	r6, r3
10002cc4:	4b3e      	ldr	r3, [pc, #248]	; (10002dc0 <irq_add_shared_handler+0x1f4>)
10002cc6:	189b      	adds	r3, r3, r2
10002cc8:	e7f1      	b.n	10002cae <irq_add_shared_handler+0xe2>
10002cca:	4b47      	ldr	r3, [pc, #284]	; (10002de8 <irq_add_shared_handler+0x21c>)
10002ccc:	4a43      	ldr	r2, [pc, #268]	; (10002ddc <irq_add_shared_handler+0x210>)
10002cce:	21ea      	movs	r1, #234	; 0xea
10002cd0:	4843      	ldr	r0, [pc, #268]	; (10002de0 <irq_add_shared_handler+0x214>)
10002cd2:	f001 fcf7 	bl	100046c4 <__assert_func>
10002cd6:	001e      	movs	r6, r3
10002cd8:	2e00      	cmp	r6, #0
10002cda:	d03a      	beq.n	10002d52 <irq_add_shared_handler+0x186>
10002cdc:	ab05      	add	r3, sp, #20
10002cde:	4a43      	ldr	r2, [pc, #268]	; (10002dec <irq_add_shared_handler+0x220>)
10002ce0:	801a      	strh	r2, [r3, #0]
10002ce2:	3a81      	subs	r2, #129	; 0x81
10002ce4:	805a      	strh	r2, [r3, #2]
10002ce6:	2306      	movs	r3, #6
10002ce8:	56f3      	ldrsb	r3, [r6, r3]
10002cea:	9302      	str	r3, [sp, #8]
10002cec:	2b00      	cmp	r3, #0
10002cee:	da17      	bge.n	10002d20 <irq_add_shared_handler+0x154>
10002cf0:	483f      	ldr	r0, [pc, #252]	; (10002df0 <irq_add_shared_handler+0x224>)
10002cf2:	ab05      	add	r3, sp, #20
10002cf4:	469b      	mov	fp, r3
10002cf6:	8098      	strh	r0, [r3, #4]
10002cf8:	9a02      	ldr	r2, [sp, #8]
10002cfa:	719a      	strb	r2, [r3, #6]
10002cfc:	71dd      	strb	r5, [r3, #7]
10002cfe:	9a01      	ldr	r2, [sp, #4]
10002d00:	9207      	str	r2, [sp, #28]
10002d02:	1d30      	adds	r0, r6, #4
10002d04:	0021      	movs	r1, r4
10002d06:	f7ff fec7 	bl	10002a98 <make_branch>
10002d0a:	80b0      	strh	r0, [r6, #4]
10002d0c:	71b7      	strb	r7, [r6, #6]
10002d0e:	007b      	lsls	r3, r7, #1
10002d10:	19db      	adds	r3, r3, r7
10002d12:	009b      	lsls	r3, r3, #2
10002d14:	4f2a      	ldr	r7, [pc, #168]	; (10002dc0 <irq_add_shared_handler+0x1f4>)
10002d16:	18ff      	adds	r7, r7, r3
10002d18:	465b      	mov	r3, fp
10002d1a:	cb07      	ldmia	r3!, {r0, r1, r2}
10002d1c:	c707      	stmia	r7!, {r0, r1, r2}
10002d1e:	e7a2      	b.n	10002c66 <irq_add_shared_handler+0x9a>
10002d20:	0078      	lsls	r0, r7, #1
10002d22:	19c0      	adds	r0, r0, r7
10002d24:	0080      	lsls	r0, r0, #2
10002d26:	4b26      	ldr	r3, [pc, #152]	; (10002dc0 <irq_add_shared_handler+0x1f4>)
10002d28:	18c0      	adds	r0, r0, r3
10002d2a:	3004      	adds	r0, #4
10002d2c:	1d32      	adds	r2, r6, #4
10002d2e:	88b3      	ldrh	r3, [r6, #4]
10002d30:	0ad9      	lsrs	r1, r3, #11
10002d32:	291c      	cmp	r1, #28
10002d34:	d107      	bne.n	10002d46 <irq_add_shared_handler+0x17a>
10002d36:	055b      	lsls	r3, r3, #21
10002d38:	1559      	asrs	r1, r3, #21
10002d3a:	3102      	adds	r1, #2
10002d3c:	0049      	lsls	r1, r1, #1
10002d3e:	1851      	adds	r1, r2, r1
10002d40:	f7ff feaa 	bl	10002a98 <make_branch>
10002d44:	e7d5      	b.n	10002cf2 <irq_add_shared_handler+0x126>
10002d46:	4b2b      	ldr	r3, [pc, #172]	; (10002df4 <irq_add_shared_handler+0x228>)
10002d48:	4a2b      	ldr	r2, [pc, #172]	; (10002df8 <irq_add_shared_handler+0x22c>)
10002d4a:	21b1      	movs	r1, #177	; 0xb1
10002d4c:	4824      	ldr	r0, [pc, #144]	; (10002de0 <irq_add_shared_handler+0x214>)
10002d4e:	f001 fcb9 	bl	100046c4 <__assert_func>
10002d52:	ae05      	add	r6, sp, #20
10002d54:	4b1d      	ldr	r3, [pc, #116]	; (10002dcc <irq_add_shared_handler+0x200>)
10002d56:	8033      	strh	r3, [r6, #0]
10002d58:	007b      	lsls	r3, r7, #1
10002d5a:	9302      	str	r3, [sp, #8]
10002d5c:	19d8      	adds	r0, r3, r7
10002d5e:	0080      	lsls	r0, r0, #2
10002d60:	4a17      	ldr	r2, [pc, #92]	; (10002dc0 <irq_add_shared_handler+0x1f4>)
10002d62:	4690      	mov	r8, r2
10002d64:	0002      	movs	r2, r0
10002d66:	4442      	add	r2, r8
10002d68:	9203      	str	r2, [sp, #12]
10002d6a:	1c90      	adds	r0, r2, #2
10002d6c:	4918      	ldr	r1, [pc, #96]	; (10002dd0 <irq_add_shared_handler+0x204>)
10002d6e:	f7ff fe93 	bl	10002a98 <make_branch>
10002d72:	8070      	strh	r0, [r6, #2]
10002d74:	9a03      	ldr	r2, [sp, #12]
10002d76:	1d10      	adds	r0, r2, #4
10002d78:	4659      	mov	r1, fp
10002d7a:	f7ff fe8d 	bl	10002a98 <make_branch>
10002d7e:	80b0      	strh	r0, [r6, #4]
10002d80:	4b1e      	ldr	r3, [pc, #120]	; (10002dfc <irq_add_shared_handler+0x230>)
10002d82:	465a      	mov	r2, fp
10002d84:	4641      	mov	r1, r8
10002d86:	1a52      	subs	r2, r2, r1
10002d88:	4152      	adcs	r2, r2
10002d8a:	4353      	muls	r3, r2
10002d8c:	0d1b      	lsrs	r3, r3, #20
10002d8e:	71b3      	strb	r3, [r6, #6]
10002d90:	71f5      	strb	r5, [r6, #7]
10002d92:	9a01      	ldr	r2, [sp, #4]
10002d94:	9207      	str	r2, [sp, #28]
10002d96:	9b02      	ldr	r3, [sp, #8]
10002d98:	469c      	mov	ip, r3
10002d9a:	4467      	add	r7, ip
10002d9c:	00bf      	lsls	r7, r7, #2
10002d9e:	4447      	add	r7, r8
10002da0:	ce0e      	ldmia	r6!, {r1, r2, r3}
10002da2:	c70e      	stmia	r7!, {r1, r2, r3}
10002da4:	4b11      	ldr	r3, [pc, #68]	; (10002dec <irq_add_shared_handler+0x220>)
10002da6:	465a      	mov	r2, fp
10002da8:	8013      	strh	r3, [r2, #0]
10002daa:	3b81      	subs	r3, #129	; 0x81
10002dac:	8053      	strh	r3, [r2, #2]
10002dae:	2301      	movs	r3, #1
10002db0:	431c      	orrs	r4, r3
10002db2:	46a0      	mov	r8, r4
10002db4:	e757      	b.n	10002c66 <irq_add_shared_handler+0x9a>
10002db6:	46c0      	nop			; (mov r8, r8)
10002db8:	d0000124 	.word	0xd0000124
10002dbc:	20002739 	.word	0x20002739
10002dc0:	20000e2c 	.word	0x20000e2c
10002dc4:	e000ed00 	.word	0xe000ed00
10002dc8:	100001cd 	.word	0x100001cd
10002dcc:	ffffa100 	.word	0xffffa100
10002dd0:	20000e5c 	.word	0x20000e5c
10002dd4:	ffffbd01 	.word	0xffffbd01
10002dd8:	1000a6ec 	.word	0x1000a6ec
10002ddc:	1000a8a4 	.word	0x1000a8a4
10002de0:	1000a648 	.word	0x1000a648
10002de4:	1000a714 	.word	0x1000a714
10002de8:	1000a73c 	.word	0x1000a73c
10002dec:	00004801 	.word	0x00004801
10002df0:	0000bd01 	.word	0x0000bd01
10002df4:	1000a7b0 	.word	0x1000a7b0
10002df8:	1000a894 	.word	0x1000a894
10002dfc:	0000aaaa 	.word	0x0000aaaa

10002e00 <irq_remove_handler>:
10002e00:	b5f0      	push	{r4, r5, r6, r7, lr}
10002e02:	46ce      	mov	lr, r9
10002e04:	4647      	mov	r7, r8
10002e06:	b580      	push	{r7, lr}
10002e08:	b083      	sub	sp, #12
10002e0a:	0006      	movs	r6, r0
10002e0c:	000d      	movs	r5, r1
10002e0e:	f3ef 8810 	mrs	r8, PRIMASK
10002e12:	b672      	cpsid	i
10002e14:	4b56      	ldr	r3, [pc, #344]	; (10002f70 <irq_remove_handler+0x170>)
10002e16:	681b      	ldr	r3, [r3, #0]
10002e18:	2b00      	cmp	r3, #0
10002e1a:	d0fb      	beq.n	10002e14 <irq_remove_handler+0x14>
10002e1c:	f3bf 8f5f 	dmb	sy
10002e20:	4b54      	ldr	r3, [pc, #336]	; (10002f74 <irq_remove_handler+0x174>)
10002e22:	689a      	ldr	r2, [r3, #8]
10002e24:	0034      	movs	r4, r6
10002e26:	3410      	adds	r4, #16
10002e28:	00a3      	lsls	r3, r4, #2
10002e2a:	58d7      	ldr	r7, [r2, r3]
10002e2c:	4b52      	ldr	r3, [pc, #328]	; (10002f78 <irq_remove_handler+0x178>)
10002e2e:	429f      	cmp	r7, r3
10002e30:	d007      	beq.n	10002e42 <irq_remove_handler+0x42>
10002e32:	42af      	cmp	r7, r5
10002e34:	d100      	bne.n	10002e38 <irq_remove_handler+0x38>
10002e36:	e098      	b.n	10002f6a <irq_remove_handler+0x16a>
10002e38:	9701      	str	r7, [sp, #4]
10002e3a:	4b50      	ldr	r3, [pc, #320]	; (10002f7c <irq_remove_handler+0x17c>)
10002e3c:	1afb      	subs	r3, r7, r3
10002e3e:	2b2f      	cmp	r3, #47	; 0x2f
10002e40:	d909      	bls.n	10002e56 <irq_remove_handler+0x56>
10002e42:	4642      	mov	r2, r8
10002e44:	0039      	movs	r1, r7
10002e46:	0030      	movs	r0, r6
10002e48:	f7ff fe12 	bl	10002a70 <set_raw_irq_handler_and_unlock>
10002e4c:	b003      	add	sp, #12
10002e4e:	bcc0      	pop	{r6, r7}
10002e50:	46b9      	mov	r9, r7
10002e52:	46b0      	mov	r8, r6
10002e54:	bdf0      	pop	{r4, r5, r6, r7, pc}
10002e56:	0030      	movs	r0, r6
10002e58:	f7ff fe62 	bl	10002b20 <irq_is_enabled>
10002e5c:	4681      	mov	r9, r0
10002e5e:	2100      	movs	r1, #0
10002e60:	0030      	movs	r0, r6
10002e62:	f7ff fe79 	bl	10002b58 <irq_set_enabled>
10002e66:	f3bf 8f5f 	dmb	sy
10002e6a:	f3ef 8105 	mrs	r1, IPSR
10002e6e:	2900      	cmp	r1, #0
10002e70:	d001      	beq.n	10002e76 <irq_remove_handler+0x76>
10002e72:	428c      	cmp	r4, r1
10002e74:	d111      	bne.n	10002e9a <irq_remove_handler+0x9a>
10002e76:	2301      	movs	r3, #1
10002e78:	9c01      	ldr	r4, [sp, #4]
10002e7a:	439c      	bics	r4, r3
10002e7c:	2200      	movs	r2, #0
10002e7e:	68a3      	ldr	r3, [r4, #8]
10002e80:	42ab      	cmp	r3, r5
10002e82:	d012      	beq.n	10002eaa <irq_remove_handler+0xaa>
10002e84:	2206      	movs	r2, #6
10002e86:	56a2      	ldrsb	r2, [r4, r2]
10002e88:	2a00      	cmp	r2, #0
10002e8a:	db0d      	blt.n	10002ea8 <irq_remove_handler+0xa8>
10002e8c:	0053      	lsls	r3, r2, #1
10002e8e:	189b      	adds	r3, r3, r2
10002e90:	009b      	lsls	r3, r3, #2
10002e92:	0022      	movs	r2, r4
10002e94:	4c39      	ldr	r4, [pc, #228]	; (10002f7c <irq_remove_handler+0x17c>)
10002e96:	18e4      	adds	r4, r4, r3
10002e98:	e7f1      	b.n	10002e7e <irq_remove_handler+0x7e>
10002e9a:	2136      	movs	r1, #54	; 0x36
10002e9c:	4b38      	ldr	r3, [pc, #224]	; (10002f80 <irq_remove_handler+0x180>)
10002e9e:	4a39      	ldr	r2, [pc, #228]	; (10002f84 <irq_remove_handler+0x184>)
10002ea0:	31ff      	adds	r1, #255	; 0xff
10002ea2:	4839      	ldr	r0, [pc, #228]	; (10002f88 <irq_remove_handler+0x188>)
10002ea4:	f001 fc0e 	bl	100046c4 <__assert_func>
10002ea8:	0022      	movs	r2, r4
10002eaa:	42ab      	cmp	r3, r5
10002eac:	d156      	bne.n	10002f5c <irq_remove_handler+0x15c>
10002eae:	2506      	movs	r5, #6
10002eb0:	5765      	ldrsb	r5, [r4, r5]
10002eb2:	2d00      	cmp	r5, #0
10002eb4:	db38      	blt.n	10002f28 <irq_remove_handler+0x128>
10002eb6:	006b      	lsls	r3, r5, #1
10002eb8:	195b      	adds	r3, r3, r5
10002eba:	009a      	lsls	r2, r3, #2
10002ebc:	4b2f      	ldr	r3, [pc, #188]	; (10002f7c <irq_remove_handler+0x17c>)
10002ebe:	189b      	adds	r3, r3, r2
10002ec0:	689a      	ldr	r2, [r3, #8]
10002ec2:	60a2      	str	r2, [r4, #8]
10002ec4:	79da      	ldrb	r2, [r3, #7]
10002ec6:	71e2      	strb	r2, [r4, #7]
10002ec8:	2206      	movs	r2, #6
10002eca:	569a      	ldrsb	r2, [r3, r2]
10002ecc:	71a2      	strb	r2, [r4, #6]
10002ece:	799b      	ldrb	r3, [r3, #6]
10002ed0:	b25b      	sxtb	r3, r3
10002ed2:	2b00      	cmp	r3, #0
10002ed4:	da0f      	bge.n	10002ef6 <irq_remove_handler+0xf6>
10002ed6:	482d      	ldr	r0, [pc, #180]	; (10002f8c <irq_remove_handler+0x18c>)
10002ed8:	80a0      	strh	r0, [r4, #4]
10002eda:	006b      	lsls	r3, r5, #1
10002edc:	195b      	adds	r3, r3, r5
10002ede:	009b      	lsls	r3, r3, #2
10002ee0:	4a26      	ldr	r2, [pc, #152]	; (10002f7c <irq_remove_handler+0x17c>)
10002ee2:	18d3      	adds	r3, r2, r3
10002ee4:	4a2a      	ldr	r2, [pc, #168]	; (10002f90 <irq_remove_handler+0x190>)
10002ee6:	7811      	ldrb	r1, [r2, #0]
10002ee8:	7199      	strb	r1, [r3, #6]
10002eea:	7015      	strb	r5, [r2, #0]
10002eec:	4649      	mov	r1, r9
10002eee:	0030      	movs	r0, r6
10002ef0:	f7ff fe32 	bl	10002b58 <irq_set_enabled>
10002ef4:	e7a5      	b.n	10002e42 <irq_remove_handler+0x42>
10002ef6:	1d20      	adds	r0, r4, #4
10002ef8:	006b      	lsls	r3, r5, #1
10002efa:	195b      	adds	r3, r3, r5
10002efc:	009b      	lsls	r3, r3, #2
10002efe:	4a1f      	ldr	r2, [pc, #124]	; (10002f7c <irq_remove_handler+0x17c>)
10002f00:	189b      	adds	r3, r3, r2
10002f02:	1d1a      	adds	r2, r3, #4
10002f04:	889b      	ldrh	r3, [r3, #4]
10002f06:	0ad9      	lsrs	r1, r3, #11
10002f08:	291c      	cmp	r1, #28
10002f0a:	d107      	bne.n	10002f1c <irq_remove_handler+0x11c>
10002f0c:	055b      	lsls	r3, r3, #21
10002f0e:	155b      	asrs	r3, r3, #21
10002f10:	3302      	adds	r3, #2
10002f12:	0059      	lsls	r1, r3, #1
10002f14:	1851      	adds	r1, r2, r1
10002f16:	f7ff fdbf 	bl	10002a98 <make_branch>
10002f1a:	e7dd      	b.n	10002ed8 <irq_remove_handler+0xd8>
10002f1c:	4b1d      	ldr	r3, [pc, #116]	; (10002f94 <irq_remove_handler+0x194>)
10002f1e:	4a1e      	ldr	r2, [pc, #120]	; (10002f98 <irq_remove_handler+0x198>)
10002f20:	21b1      	movs	r1, #177	; 0xb1
10002f22:	4819      	ldr	r0, [pc, #100]	; (10002f88 <irq_remove_handler+0x188>)
10002f24:	f001 fbce 	bl	100046c4 <__assert_func>
10002f28:	2900      	cmp	r1, #0
10002f2a:	d112      	bne.n	10002f52 <irq_remove_handler+0x152>
10002f2c:	2a00      	cmp	r2, #0
10002f2e:	d00e      	beq.n	10002f4e <irq_remove_handler+0x14e>
10002f30:	23ff      	movs	r3, #255	; 0xff
10002f32:	7193      	strb	r3, [r2, #6]
10002f34:	4b19      	ldr	r3, [pc, #100]	; (10002f9c <irq_remove_handler+0x19c>)
10002f36:	8093      	strh	r3, [r2, #4]
10002f38:	4a15      	ldr	r2, [pc, #84]	; (10002f90 <irq_remove_handler+0x190>)
10002f3a:	7813      	ldrb	r3, [r2, #0]
10002f3c:	71a3      	strb	r3, [r4, #6]
10002f3e:	4b18      	ldr	r3, [pc, #96]	; (10002fa0 <irq_remove_handler+0x1a0>)
10002f40:	490e      	ldr	r1, [pc, #56]	; (10002f7c <irq_remove_handler+0x17c>)
10002f42:	1a64      	subs	r4, r4, r1
10002f44:	4164      	adcs	r4, r4
10002f46:	4363      	muls	r3, r4
10002f48:	0d1b      	lsrs	r3, r3, #20
10002f4a:	7013      	strb	r3, [r2, #0]
10002f4c:	e7ce      	b.n	10002eec <irq_remove_handler+0xec>
10002f4e:	4f0a      	ldr	r7, [pc, #40]	; (10002f78 <irq_remove_handler+0x178>)
10002f50:	e7f2      	b.n	10002f38 <irq_remove_handler+0x138>
10002f52:	1d20      	adds	r0, r4, #4
10002f54:	4913      	ldr	r1, [pc, #76]	; (10002fa4 <irq_remove_handler+0x1a4>)
10002f56:	f7ff fdc3 	bl	10002ae0 <insert_branch_and_link>
10002f5a:	e7c7      	b.n	10002eec <irq_remove_handler+0xec>
10002f5c:	216a      	movs	r1, #106	; 0x6a
10002f5e:	4b12      	ldr	r3, [pc, #72]	; (10002fa8 <irq_remove_handler+0x1a8>)
10002f60:	4a08      	ldr	r2, [pc, #32]	; (10002f84 <irq_remove_handler+0x184>)
10002f62:	31ff      	adds	r1, #255	; 0xff
10002f64:	4808      	ldr	r0, [pc, #32]	; (10002f88 <irq_remove_handler+0x188>)
10002f66:	f001 fbad 	bl	100046c4 <__assert_func>
10002f6a:	4f03      	ldr	r7, [pc, #12]	; (10002f78 <irq_remove_handler+0x178>)
10002f6c:	e769      	b.n	10002e42 <irq_remove_handler+0x42>
10002f6e:	46c0      	nop			; (mov r8, r8)
10002f70:	d0000124 	.word	0xd0000124
10002f74:	e000ed00 	.word	0xe000ed00
10002f78:	100001cd 	.word	0x100001cd
10002f7c:	20000e2c 	.word	0x20000e2c
10002f80:	1000a7c8 	.word	0x1000a7c8
10002f84:	1000a874 	.word	0x1000a874
10002f88:	1000a648 	.word	0x1000a648
10002f8c:	0000bd01 	.word	0x0000bd01
10002f90:	20002739 	.word	0x20002739
10002f94:	1000a7b0 	.word	0x1000a7b0
10002f98:	1000a894 	.word	0x1000a894
10002f9c:	ffffbd01 	.word	0xffffbd01
10002fa0:	0000aaaa 	.word	0x0000aaaa
10002fa4:	20000e66 	.word	0x20000e66
10002fa8:	1000a7fc 	.word	0x1000a7fc

10002fac <irq_add_tail_to_free_list>:
10002fac:	b570      	push	{r4, r5, r6, lr}
10002fae:	2101      	movs	r1, #1
10002fb0:	4301      	orrs	r1, r0
10002fb2:	4b2e      	ldr	r3, [pc, #184]	; (1000306c <irq_add_tail_to_free_list+0xc0>)
10002fb4:	1acb      	subs	r3, r1, r3
10002fb6:	2b2f      	cmp	r3, #47	; 0x2f
10002fb8:	d828      	bhi.n	1000300c <irq_add_tail_to_free_list+0x60>
10002fba:	f3ef 8305 	mrs	r3, IPSR
10002fbe:	2b00      	cmp	r3, #0
10002fc0:	d02b      	beq.n	1000301a <irq_add_tail_to_free_list+0x6e>
10002fc2:	f3ef 8c10 	mrs	ip, PRIMASK
10002fc6:	b672      	cpsid	i
10002fc8:	4a29      	ldr	r2, [pc, #164]	; (10003070 <irq_add_tail_to_free_list+0xc4>)
10002fca:	6812      	ldr	r2, [r2, #0]
10002fcc:	2a00      	cmp	r2, #0
10002fce:	d0fb      	beq.n	10002fc8 <irq_add_tail_to_free_list+0x1c>
10002fd0:	f3bf 8f5f 	dmb	sy
10002fd4:	4a27      	ldr	r2, [pc, #156]	; (10003074 <irq_add_tail_to_free_list+0xc8>)
10002fd6:	0004      	movs	r4, r0
10002fd8:	4d24      	ldr	r5, [pc, #144]	; (1000306c <irq_add_tail_to_free_list+0xc0>)
10002fda:	1b64      	subs	r4, r4, r5
10002fdc:	4164      	adcs	r4, r4
10002fde:	4362      	muls	r2, r4
10002fe0:	0d12      	lsrs	r2, r2, #20
10002fe2:	b254      	sxtb	r4, r2
10002fe4:	4a24      	ldr	r2, [pc, #144]	; (10003078 <irq_add_tail_to_free_list+0xcc>)
10002fe6:	6892      	ldr	r2, [r2, #8]
10002fe8:	009b      	lsls	r3, r3, #2
10002fea:	58d2      	ldr	r2, [r2, r3]
10002fec:	428a      	cmp	r2, r1
10002fee:	d01b      	beq.n	10003028 <irq_add_tail_to_free_list+0x7c>
10002ff0:	2200      	movs	r2, #0
10002ff2:	2a03      	cmp	r2, #3
10002ff4:	d832      	bhi.n	1000305c <irq_add_tail_to_free_list+0xb0>
10002ff6:	0053      	lsls	r3, r2, #1
10002ff8:	189b      	adds	r3, r3, r2
10002ffa:	009b      	lsls	r3, r3, #2
10002ffc:	491b      	ldr	r1, [pc, #108]	; (1000306c <irq_add_tail_to_free_list+0xc0>)
10002ffe:	18cb      	adds	r3, r1, r3
10003000:	799b      	ldrb	r3, [r3, #6]
10003002:	b25b      	sxtb	r3, r3
10003004:	42a3      	cmp	r3, r4
10003006:	d01f      	beq.n	10003048 <irq_add_tail_to_free_list+0x9c>
10003008:	3201      	adds	r2, #1
1000300a:	e7f2      	b.n	10002ff2 <irq_add_tail_to_free_list+0x46>
1000300c:	21c7      	movs	r1, #199	; 0xc7
1000300e:	4b1b      	ldr	r3, [pc, #108]	; (1000307c <irq_add_tail_to_free_list+0xd0>)
10003010:	4a1b      	ldr	r2, [pc, #108]	; (10003080 <irq_add_tail_to_free_list+0xd4>)
10003012:	0049      	lsls	r1, r1, #1
10003014:	481b      	ldr	r0, [pc, #108]	; (10003084 <irq_add_tail_to_free_list+0xd8>)
10003016:	f001 fb55 	bl	100046c4 <__assert_func>
1000301a:	2192      	movs	r1, #146	; 0x92
1000301c:	4b1a      	ldr	r3, [pc, #104]	; (10003088 <irq_add_tail_to_free_list+0xdc>)
1000301e:	4a18      	ldr	r2, [pc, #96]	; (10003080 <irq_add_tail_to_free_list+0xd4>)
10003020:	31ff      	adds	r1, #255	; 0xff
10003022:	4818      	ldr	r0, [pc, #96]	; (10003084 <irq_add_tail_to_free_list+0xd8>)
10003024:	f001 fb4e 	bl	100046c4 <__assert_func>
10003028:	4a13      	ldr	r2, [pc, #76]	; (10003078 <irq_add_tail_to_free_list+0xcc>)
1000302a:	6892      	ldr	r2, [r2, #8]
1000302c:	4917      	ldr	r1, [pc, #92]	; (1000308c <irq_add_tail_to_free_list+0xe0>)
1000302e:	50d1      	str	r1, [r2, r3]
10003030:	4b17      	ldr	r3, [pc, #92]	; (10003090 <irq_add_tail_to_free_list+0xe4>)
10003032:	781a      	ldrb	r2, [r3, #0]
10003034:	7182      	strb	r2, [r0, #6]
10003036:	701c      	strb	r4, [r3, #0]
10003038:	f3bf 8f5f 	dmb	sy
1000303c:	4b0c      	ldr	r3, [pc, #48]	; (10003070 <irq_add_tail_to_free_list+0xc4>)
1000303e:	2200      	movs	r2, #0
10003040:	601a      	str	r2, [r3, #0]
10003042:	f38c 8810 	msr	PRIMASK, ip
10003046:	bd70      	pop	{r4, r5, r6, pc}
10003048:	000d      	movs	r5, r1
1000304a:	0053      	lsls	r3, r2, #1
1000304c:	1899      	adds	r1, r3, r2
1000304e:	0089      	lsls	r1, r1, #2
10003050:	1869      	adds	r1, r5, r1
10003052:	26ff      	movs	r6, #255	; 0xff
10003054:	718e      	strb	r6, [r1, #6]
10003056:	4a0f      	ldr	r2, [pc, #60]	; (10003094 <irq_add_tail_to_free_list+0xe8>)
10003058:	808a      	strh	r2, [r1, #4]
1000305a:	e7e9      	b.n	10003030 <irq_add_tail_to_free_list+0x84>
1000305c:	21d1      	movs	r1, #209	; 0xd1
1000305e:	4b0e      	ldr	r3, [pc, #56]	; (10003098 <irq_add_tail_to_free_list+0xec>)
10003060:	4a07      	ldr	r2, [pc, #28]	; (10003080 <irq_add_tail_to_free_list+0xd4>)
10003062:	0049      	lsls	r1, r1, #1
10003064:	4807      	ldr	r0, [pc, #28]	; (10003084 <irq_add_tail_to_free_list+0xd8>)
10003066:	f001 fb2d 	bl	100046c4 <__assert_func>
1000306a:	46c0      	nop			; (mov r8, r8)
1000306c:	20000e2c 	.word	0x20000e2c
10003070:	d0000124 	.word	0xd0000124
10003074:	0000aaaa 	.word	0x0000aaaa
10003078:	e000ed00 	.word	0xe000ed00
1000307c:	1000a804 	.word	0x1000a804
10003080:	1000a840 	.word	0x1000a840
10003084:	1000a648 	.word	0x1000a648
10003088:	1000a82c 	.word	0x1000a82c
1000308c:	100001cd 	.word	0x100001cd
10003090:	20002739 	.word	0x20002739
10003094:	ffffbd01 	.word	0xffffbd01
10003098:	1000a838 	.word	0x1000a838

1000309c <irq_init_priorities>:
1000309c:	2200      	movs	r2, #0
1000309e:	4b04      	ldr	r3, [pc, #16]	; (100030b0 <irq_init_priorities+0x14>)
100030a0:	e002      	b.n	100030a8 <irq_init_priorities+0xc>
100030a2:	4904      	ldr	r1, [pc, #16]	; (100030b4 <irq_init_priorities+0x18>)
100030a4:	c302      	stmia	r3!, {r1}
100030a6:	3201      	adds	r2, #1
100030a8:	2a07      	cmp	r2, #7
100030aa:	d9fa      	bls.n	100030a2 <irq_init_priorities+0x6>
100030ac:	4770      	bx	lr
100030ae:	46c0      	nop			; (mov r8, r8)
100030b0:	e000e400 	.word	0xe000e400
100030b4:	80808080 	.word	0x80808080

100030b8 <lock_init>:
100030b8:	4b02      	ldr	r3, [pc, #8]	; (100030c4 <lock_init+0xc>)
100030ba:	469c      	mov	ip, r3
100030bc:	4461      	add	r1, ip
100030be:	0089      	lsls	r1, r1, #2
100030c0:	6001      	str	r1, [r0, #0]
100030c2:	4770      	bx	lr
100030c4:	34000040 	.word	0x34000040

100030c8 <mutex_init>:
100030c8:	b510      	push	{r4, lr}
100030ca:	0004      	movs	r4, r0
100030cc:	f7ff fcb2 	bl	10002a34 <next_striped_spin_lock_num>
100030d0:	0001      	movs	r1, r0
100030d2:	0020      	movs	r0, r4
100030d4:	f7ff fff0 	bl	100030b8 <lock_init>
100030d8:	23ff      	movs	r3, #255	; 0xff
100030da:	7123      	strb	r3, [r4, #4]
100030dc:	f3bf 8f5f 	dmb	sy
100030e0:	bd10      	pop	{r4, pc}

100030e2 <recursive_mutex_init>:
100030e2:	b510      	push	{r4, lr}
100030e4:	0004      	movs	r4, r0
100030e6:	f7ff fca5 	bl	10002a34 <next_striped_spin_lock_num>
100030ea:	0001      	movs	r1, r0
100030ec:	0020      	movs	r0, r4
100030ee:	f7ff ffe3 	bl	100030b8 <lock_init>
100030f2:	23ff      	movs	r3, #255	; 0xff
100030f4:	7123      	strb	r3, [r4, #4]
100030f6:	2300      	movs	r3, #0
100030f8:	7163      	strb	r3, [r4, #5]
100030fa:	f3bf 8f5f 	dmb	sy
100030fe:	bd10      	pop	{r4, pc}

10003100 <critical_section_init_with_lock_num>:
10003100:	4b03      	ldr	r3, [pc, #12]	; (10003110 <critical_section_init_with_lock_num+0x10>)
10003102:	469c      	mov	ip, r3
10003104:	4461      	add	r1, ip
10003106:	0089      	lsls	r1, r1, #2
10003108:	6001      	str	r1, [r0, #0]
1000310a:	f3bf 8f5f 	dmb	sy
1000310e:	4770      	bx	lr
10003110:	34000040 	.word	0x34000040

10003114 <critical_section_init>:
10003114:	b510      	push	{r4, lr}
10003116:	0004      	movs	r4, r0
10003118:	2001      	movs	r0, #1
1000311a:	f7ff fc99 	bl	10002a50 <spin_lock_claim_unused>
1000311e:	0001      	movs	r1, r0
10003120:	0020      	movs	r0, r4
10003122:	f7ff ffed 	bl	10003100 <critical_section_init_with_lock_num>
10003126:	bd10      	pop	{r4, pc}

10003128 <alarm_pool_post_alloc_init>:
10003128:	b570      	push	{r4, r5, r6, lr}
1000312a:	0005      	movs	r5, r0
1000312c:	000c      	movs	r4, r1
1000312e:	0008      	movs	r0, r1
10003130:	f000 fed0 	bl	10003ed4 <hardware_alarm_cancel>
10003134:	4909      	ldr	r1, [pc, #36]	; (1000315c <alarm_pool_post_alloc_init+0x34>)
10003136:	0020      	movs	r0, r4
10003138:	f000 fe10 	bl	10003d5c <hardware_alarm_set_callback>
1000313c:	f7ff fc7a 	bl	10002a34 <next_striped_spin_lock_num>
10003140:	4b07      	ldr	r3, [pc, #28]	; (10003160 <alarm_pool_post_alloc_init+0x38>)
10003142:	469c      	mov	ip, r3
10003144:	4460      	add	r0, ip
10003146:	0080      	lsls	r0, r0, #2
10003148:	6068      	str	r0, [r5, #4]
1000314a:	752c      	strb	r4, [r5, #20]
1000314c:	23d0      	movs	r3, #208	; 0xd0
1000314e:	061b      	lsls	r3, r3, #24
10003150:	781b      	ldrb	r3, [r3, #0]
10003152:	756b      	strb	r3, [r5, #21]
10003154:	00a4      	lsls	r4, r4, #2
10003156:	4b03      	ldr	r3, [pc, #12]	; (10003164 <alarm_pool_post_alloc_init+0x3c>)
10003158:	50e5      	str	r5, [r4, r3]
1000315a:	bd70      	pop	{r4, r5, r6, pc}
1000315c:	1000346d 	.word	0x1000346d
10003160:	34000040 	.word	0x34000040
10003164:	200024dc 	.word	0x200024dc

10003168 <sleep_until_callback>:
10003168:	4b0a      	ldr	r3, [pc, #40]	; (10003194 <sleep_until_callback+0x2c>)
1000316a:	681a      	ldr	r2, [r3, #0]
1000316c:	f3ef 8110 	mrs	r1, PRIMASK
10003170:	b672      	cpsid	i
10003172:	6813      	ldr	r3, [r2, #0]
10003174:	2b00      	cmp	r3, #0
10003176:	d0fc      	beq.n	10003172 <sleep_until_callback+0xa>
10003178:	f3bf 8f5f 	dmb	sy
1000317c:	4b05      	ldr	r3, [pc, #20]	; (10003194 <sleep_until_callback+0x2c>)
1000317e:	681b      	ldr	r3, [r3, #0]
10003180:	f3bf 8f5f 	dmb	sy
10003184:	2200      	movs	r2, #0
10003186:	601a      	str	r2, [r3, #0]
10003188:	f381 8810 	msr	PRIMASK, r1
1000318c:	bf40      	sev
1000318e:	2000      	movs	r0, #0
10003190:	2100      	movs	r1, #0
10003192:	4770      	bx	lr
10003194:	20002700 	.word	0x20002700

10003198 <timer_pool_entry_comparator>:
10003198:	b510      	push	{r4, lr}
1000319a:	2900      	cmp	r1, #0
1000319c:	d022      	beq.n	100031e4 <timer_pool_entry_comparator+0x4c>
1000319e:	6803      	ldr	r3, [r0, #0]
100031a0:	7b1b      	ldrb	r3, [r3, #12]
100031a2:	4299      	cmp	r1, r3
100031a4:	d81e      	bhi.n	100031e4 <timer_pool_entry_comparator+0x4c>
100031a6:	4b17      	ldr	r3, [pc, #92]	; (10003204 <timer_pool_entry_comparator+0x6c>)
100031a8:	469c      	mov	ip, r3
100031aa:	4461      	add	r1, ip
100031ac:	0109      	lsls	r1, r1, #4
100031ae:	6883      	ldr	r3, [r0, #8]
100031b0:	469c      	mov	ip, r3
100031b2:	4461      	add	r1, ip
100031b4:	680c      	ldr	r4, [r1, #0]
100031b6:	6849      	ldr	r1, [r1, #4]
100031b8:	2a00      	cmp	r2, #0
100031ba:	d019      	beq.n	100031f0 <timer_pool_entry_comparator+0x58>
100031bc:	6803      	ldr	r3, [r0, #0]
100031be:	7b1b      	ldrb	r3, [r3, #12]
100031c0:	429a      	cmp	r2, r3
100031c2:	d815      	bhi.n	100031f0 <timer_pool_entry_comparator+0x58>
100031c4:	6883      	ldr	r3, [r0, #8]
100031c6:	480f      	ldr	r0, [pc, #60]	; (10003204 <timer_pool_entry_comparator+0x6c>)
100031c8:	4684      	mov	ip, r0
100031ca:	4462      	add	r2, ip
100031cc:	0112      	lsls	r2, r2, #4
100031ce:	189a      	adds	r2, r3, r2
100031d0:	6810      	ldr	r0, [r2, #0]
100031d2:	6853      	ldr	r3, [r2, #4]
100031d4:	0002      	movs	r2, r0
100031d6:	2001      	movs	r0, #1
100031d8:	428b      	cmp	r3, r1
100031da:	d801      	bhi.n	100031e0 <timer_pool_entry_comparator+0x48>
100031dc:	d00e      	beq.n	100031fc <timer_pool_entry_comparator+0x64>
100031de:	2000      	movs	r0, #0
100031e0:	b2c0      	uxtb	r0, r0
100031e2:	bd10      	pop	{r4, pc}
100031e4:	4b08      	ldr	r3, [pc, #32]	; (10003208 <timer_pool_entry_comparator+0x70>)
100031e6:	4a09      	ldr	r2, [pc, #36]	; (1000320c <timer_pool_entry_comparator+0x74>)
100031e8:	213c      	movs	r1, #60	; 0x3c
100031ea:	4809      	ldr	r0, [pc, #36]	; (10003210 <timer_pool_entry_comparator+0x78>)
100031ec:	f001 fa6a 	bl	100046c4 <__assert_func>
100031f0:	4b05      	ldr	r3, [pc, #20]	; (10003208 <timer_pool_entry_comparator+0x70>)
100031f2:	4a06      	ldr	r2, [pc, #24]	; (1000320c <timer_pool_entry_comparator+0x74>)
100031f4:	213c      	movs	r1, #60	; 0x3c
100031f6:	4806      	ldr	r0, [pc, #24]	; (10003210 <timer_pool_entry_comparator+0x78>)
100031f8:	f001 fa64 	bl	100046c4 <__assert_func>
100031fc:	42a2      	cmp	r2, r4
100031fe:	d8ef      	bhi.n	100031e0 <timer_pool_entry_comparator+0x48>
10003200:	e7ed      	b.n	100031de <timer_pool_entry_comparator+0x46>
10003202:	46c0      	nop			; (mov r8, r8)
10003204:	0fffffff 	.word	0x0fffffff
10003208:	1000aaa4 	.word	0x1000aaa4
1000320c:	1000ad24 	.word	0x1000ad24
10003210:	1000aa50 	.word	0x1000aa50

10003214 <ph_add_child_node>:
10003214:	b510      	push	{r4, lr}
10003216:	2900      	cmp	r1, #0
10003218:	d01e      	beq.n	10003258 <ph_add_child_node+0x44>
1000321a:	7b03      	ldrb	r3, [r0, #12]
1000321c:	4299      	cmp	r1, r3
1000321e:	d81b      	bhi.n	10003258 <ph_add_child_node+0x44>
10003220:	004b      	lsls	r3, r1, #1
10003222:	185b      	adds	r3, r3, r1
10003224:	3b03      	subs	r3, #3
10003226:	6804      	ldr	r4, [r0, #0]
10003228:	46a4      	mov	ip, r4
1000322a:	4463      	add	r3, ip
1000322c:	2900      	cmp	r1, #0
1000322e:	d019      	beq.n	10003264 <ph_add_child_node+0x50>
10003230:	2a00      	cmp	r2, #0
10003232:	d01d      	beq.n	10003270 <ph_add_child_node+0x5c>
10003234:	4291      	cmp	r1, r2
10003236:	d021      	beq.n	1000327c <ph_add_child_node+0x68>
10003238:	2a00      	cmp	r2, #0
1000323a:	d025      	beq.n	10003288 <ph_add_child_node+0x74>
1000323c:	7b04      	ldrb	r4, [r0, #12]
1000323e:	42a2      	cmp	r2, r4
10003240:	d822      	bhi.n	10003288 <ph_add_child_node+0x74>
10003242:	6804      	ldr	r4, [r0, #0]
10003244:	0050      	lsls	r0, r2, #1
10003246:	1880      	adds	r0, r0, r2
10003248:	3803      	subs	r0, #3
1000324a:	1820      	adds	r0, r4, r0
1000324c:	7081      	strb	r1, [r0, #2]
1000324e:	7819      	ldrb	r1, [r3, #0]
10003250:	2900      	cmp	r1, #0
10003252:	d11f      	bne.n	10003294 <ph_add_child_node+0x80>
10003254:	701a      	strb	r2, [r3, #0]
10003256:	bd10      	pop	{r4, pc}
10003258:	4b10      	ldr	r3, [pc, #64]	; (1000329c <ph_add_child_node+0x88>)
1000325a:	4a11      	ldr	r2, [pc, #68]	; (100032a0 <ph_add_child_node+0x8c>)
1000325c:	2168      	movs	r1, #104	; 0x68
1000325e:	4811      	ldr	r0, [pc, #68]	; (100032a4 <ph_add_child_node+0x90>)
10003260:	f001 fa30 	bl	100046c4 <__assert_func>
10003264:	4b10      	ldr	r3, [pc, #64]	; (100032a8 <ph_add_child_node+0x94>)
10003266:	4a11      	ldr	r2, [pc, #68]	; (100032ac <ph_add_child_node+0x98>)
10003268:	316f      	adds	r1, #111	; 0x6f
1000326a:	480e      	ldr	r0, [pc, #56]	; (100032a4 <ph_add_child_node+0x90>)
1000326c:	f001 fa2a 	bl	100046c4 <__assert_func>
10003270:	4b0f      	ldr	r3, [pc, #60]	; (100032b0 <ph_add_child_node+0x9c>)
10003272:	4a0e      	ldr	r2, [pc, #56]	; (100032ac <ph_add_child_node+0x98>)
10003274:	2170      	movs	r1, #112	; 0x70
10003276:	480b      	ldr	r0, [pc, #44]	; (100032a4 <ph_add_child_node+0x90>)
10003278:	f001 fa24 	bl	100046c4 <__assert_func>
1000327c:	4b0d      	ldr	r3, [pc, #52]	; (100032b4 <ph_add_child_node+0xa0>)
1000327e:	4a0b      	ldr	r2, [pc, #44]	; (100032ac <ph_add_child_node+0x98>)
10003280:	2171      	movs	r1, #113	; 0x71
10003282:	4808      	ldr	r0, [pc, #32]	; (100032a4 <ph_add_child_node+0x90>)
10003284:	f001 fa1e 	bl	100046c4 <__assert_func>
10003288:	4b04      	ldr	r3, [pc, #16]	; (1000329c <ph_add_child_node+0x88>)
1000328a:	4a05      	ldr	r2, [pc, #20]	; (100032a0 <ph_add_child_node+0x8c>)
1000328c:	2168      	movs	r1, #104	; 0x68
1000328e:	4805      	ldr	r0, [pc, #20]	; (100032a4 <ph_add_child_node+0x90>)
10003290:	f001 fa18 	bl	100046c4 <__assert_func>
10003294:	7041      	strb	r1, [r0, #1]
10003296:	701a      	strb	r2, [r3, #0]
10003298:	e7dd      	b.n	10003256 <ph_add_child_node+0x42>
1000329a:	46c0      	nop			; (mov r8, r8)
1000329c:	1000aac8 	.word	0x1000aac8
100032a0:	1000ad90 	.word	0x1000ad90
100032a4:	1000aae4 	.word	0x1000aae4
100032a8:	1000ab4c 	.word	0x1000ab4c
100032ac:	1000ad6c 	.word	0x1000ad6c
100032b0:	1000ab58 	.word	0x1000ab58
100032b4:	1000ab64 	.word	0x1000ab64

100032b8 <ph_merge_nodes>:
100032b8:	b570      	push	{r4, r5, r6, lr}
100032ba:	0006      	movs	r6, r0
100032bc:	000d      	movs	r5, r1
100032be:	0014      	movs	r4, r2
100032c0:	2900      	cmp	r1, #0
100032c2:	d014      	beq.n	100032ee <ph_merge_nodes+0x36>
100032c4:	2a00      	cmp	r2, #0
100032c6:	d014      	beq.n	100032f2 <ph_merge_nodes+0x3a>
100032c8:	6880      	ldr	r0, [r0, #8]
100032ca:	6873      	ldr	r3, [r6, #4]
100032cc:	4798      	blx	r3
100032ce:	2800      	cmp	r0, #0
100032d0:	d006      	beq.n	100032e0 <ph_merge_nodes+0x28>
100032d2:	0022      	movs	r2, r4
100032d4:	0029      	movs	r1, r5
100032d6:	0030      	movs	r0, r6
100032d8:	f7ff ff9c 	bl	10003214 <ph_add_child_node>
100032dc:	0028      	movs	r0, r5
100032de:	e007      	b.n	100032f0 <ph_merge_nodes+0x38>
100032e0:	002a      	movs	r2, r5
100032e2:	0021      	movs	r1, r4
100032e4:	0030      	movs	r0, r6
100032e6:	f7ff ff95 	bl	10003214 <ph_add_child_node>
100032ea:	0020      	movs	r0, r4
100032ec:	e000      	b.n	100032f0 <ph_merge_nodes+0x38>
100032ee:	0010      	movs	r0, r2
100032f0:	bd70      	pop	{r4, r5, r6, pc}
100032f2:	0008      	movs	r0, r1
100032f4:	e7fc      	b.n	100032f0 <ph_merge_nodes+0x38>
	...

100032f8 <add_alarm_under_lock>:
100032f8:	b5f0      	push	{r4, r5, r6, r7, lr}
100032fa:	b083      	sub	sp, #12
100032fc:	0005      	movs	r5, r0
100032fe:	9200      	str	r2, [sp, #0]
10003300:	9301      	str	r3, [sp, #4]
10003302:	ab0a      	add	r3, sp, #40	; 0x28
10003304:	781c      	ldrb	r4, [r3, #0]
10003306:	ab0b      	add	r3, sp, #44	; 0x2c
10003308:	781f      	ldrb	r7, [r3, #0]
1000330a:	2c00      	cmp	r4, #0
1000330c:	d026      	beq.n	1000335c <add_alarm_under_lock+0x64>
1000330e:	6803      	ldr	r3, [r0, #0]
10003310:	7b5a      	ldrb	r2, [r3, #13]
10003312:	4294      	cmp	r4, r2
10003314:	d107      	bne.n	10003326 <add_alarm_under_lock+0x2e>
10003316:	2301      	movs	r3, #1
10003318:	2b00      	cmp	r3, #0
1000331a:	d119      	bne.n	10003350 <add_alarm_under_lock+0x58>
1000331c:	2c00      	cmp	r4, #0
1000331e:	d13b      	bne.n	10003398 <add_alarm_under_lock+0xa0>
10003320:	0020      	movs	r0, r4
10003322:	b003      	add	sp, #12
10003324:	bdf0      	pop	{r4, r5, r6, r7, pc}
10003326:	2c00      	cmp	r4, #0
10003328:	d00c      	beq.n	10003344 <add_alarm_under_lock+0x4c>
1000332a:	7b1a      	ldrb	r2, [r3, #12]
1000332c:	4294      	cmp	r4, r2
1000332e:	d809      	bhi.n	10003344 <add_alarm_under_lock+0x4c>
10003330:	681a      	ldr	r2, [r3, #0]
10003332:	0063      	lsls	r3, r4, #1
10003334:	191b      	adds	r3, r3, r4
10003336:	3b03      	subs	r3, #3
10003338:	18d3      	adds	r3, r2, r3
1000333a:	789b      	ldrb	r3, [r3, #2]
1000333c:	2b00      	cmp	r3, #0
1000333e:	d0eb      	beq.n	10003318 <add_alarm_under_lock+0x20>
10003340:	2301      	movs	r3, #1
10003342:	e7e9      	b.n	10003318 <add_alarm_under_lock+0x20>
10003344:	4b3e      	ldr	r3, [pc, #248]	; (10003440 <add_alarm_under_lock+0x148>)
10003346:	4a3f      	ldr	r2, [pc, #252]	; (10003444 <add_alarm_under_lock+0x14c>)
10003348:	2168      	movs	r1, #104	; 0x68
1000334a:	483f      	ldr	r0, [pc, #252]	; (10003448 <add_alarm_under_lock+0x150>)
1000334c:	f001 f9ba 	bl	100046c4 <__assert_func>
10003350:	4b3e      	ldr	r3, [pc, #248]	; (1000344c <add_alarm_under_lock+0x154>)
10003352:	4a3f      	ldr	r2, [pc, #252]	; (10003450 <add_alarm_under_lock+0x158>)
10003354:	2167      	movs	r1, #103	; 0x67
10003356:	483f      	ldr	r0, [pc, #252]	; (10003454 <add_alarm_under_lock+0x15c>)
10003358:	f001 f9b4 	bl	100046c4 <__assert_func>
1000335c:	6803      	ldr	r3, [r0, #0]
1000335e:	7b9c      	ldrb	r4, [r3, #14]
10003360:	2c00      	cmp	r4, #0
10003362:	d0db      	beq.n	1000331c <add_alarm_under_lock+0x24>
10003364:	d012      	beq.n	1000338c <add_alarm_under_lock+0x94>
10003366:	7b1a      	ldrb	r2, [r3, #12]
10003368:	4294      	cmp	r4, r2
1000336a:	d80f      	bhi.n	1000338c <add_alarm_under_lock+0x94>
1000336c:	0062      	lsls	r2, r4, #1
1000336e:	1912      	adds	r2, r2, r4
10003370:	3a03      	subs	r2, #3
10003372:	6819      	ldr	r1, [r3, #0]
10003374:	468c      	mov	ip, r1
10003376:	4462      	add	r2, ip
10003378:	7851      	ldrb	r1, [r2, #1]
1000337a:	7399      	strb	r1, [r3, #14]
1000337c:	2900      	cmp	r1, #0
1000337e:	d100      	bne.n	10003382 <add_alarm_under_lock+0x8a>
10003380:	73d9      	strb	r1, [r3, #15]
10003382:	2300      	movs	r3, #0
10003384:	7093      	strb	r3, [r2, #2]
10003386:	7053      	strb	r3, [r2, #1]
10003388:	7013      	strb	r3, [r2, #0]
1000338a:	e7c7      	b.n	1000331c <add_alarm_under_lock+0x24>
1000338c:	4b2c      	ldr	r3, [pc, #176]	; (10003440 <add_alarm_under_lock+0x148>)
1000338e:	4a2d      	ldr	r2, [pc, #180]	; (10003444 <add_alarm_under_lock+0x14c>)
10003390:	2168      	movs	r1, #104	; 0x68
10003392:	482d      	ldr	r0, [pc, #180]	; (10003448 <add_alarm_under_lock+0x150>)
10003394:	f001 f996 	bl	100046c4 <__assert_func>
10003398:	2c00      	cmp	r4, #0
1000339a:	d03a      	beq.n	10003412 <add_alarm_under_lock+0x11a>
1000339c:	682b      	ldr	r3, [r5, #0]
1000339e:	7b1b      	ldrb	r3, [r3, #12]
100033a0:	429c      	cmp	r4, r3
100033a2:	d836      	bhi.n	10003412 <add_alarm_under_lock+0x11a>
100033a4:	4b2c      	ldr	r3, [pc, #176]	; (10003458 <add_alarm_under_lock+0x160>)
100033a6:	18e3      	adds	r3, r4, r3
100033a8:	011b      	lsls	r3, r3, #4
100033aa:	68aa      	ldr	r2, [r5, #8]
100033ac:	4694      	mov	ip, r2
100033ae:	4463      	add	r3, ip
100033b0:	9a00      	ldr	r2, [sp, #0]
100033b2:	601a      	str	r2, [r3, #0]
100033b4:	9a01      	ldr	r2, [sp, #4]
100033b6:	605a      	str	r2, [r3, #4]
100033b8:	9a08      	ldr	r2, [sp, #32]
100033ba:	609a      	str	r2, [r3, #8]
100033bc:	9a09      	ldr	r2, [sp, #36]	; 0x24
100033be:	60da      	str	r2, [r3, #12]
100033c0:	682e      	ldr	r6, [r5, #0]
100033c2:	2c00      	cmp	r4, #0
100033c4:	d02b      	beq.n	1000341e <add_alarm_under_lock+0x126>
100033c6:	d030      	beq.n	1000342a <add_alarm_under_lock+0x132>
100033c8:	7b33      	ldrb	r3, [r6, #12]
100033ca:	429c      	cmp	r4, r3
100033cc:	d82d      	bhi.n	1000342a <add_alarm_under_lock+0x132>
100033ce:	0063      	lsls	r3, r4, #1
100033d0:	191b      	adds	r3, r3, r4
100033d2:	3b03      	subs	r3, #3
100033d4:	6832      	ldr	r2, [r6, #0]
100033d6:	4694      	mov	ip, r2
100033d8:	4463      	add	r3, ip
100033da:	2200      	movs	r2, #0
100033dc:	709a      	strb	r2, [r3, #2]
100033de:	705a      	strb	r2, [r3, #1]
100033e0:	701a      	strb	r2, [r3, #0]
100033e2:	7b71      	ldrb	r1, [r6, #13]
100033e4:	0022      	movs	r2, r4
100033e6:	0030      	movs	r0, r6
100033e8:	f7ff ff66 	bl	100032b8 <ph_merge_nodes>
100033ec:	7370      	strb	r0, [r6, #13]
100033ee:	4284      	cmp	r4, r0
100033f0:	d000      	beq.n	100033f4 <add_alarm_under_lock+0xfc>
100033f2:	e795      	b.n	10003320 <add_alarm_under_lock+0x28>
100033f4:	7d28      	ldrb	r0, [r5, #20]
100033f6:	9a00      	ldr	r2, [sp, #0]
100033f8:	9b01      	ldr	r3, [sp, #4]
100033fa:	f000 fcf7 	bl	10003dec <hardware_alarm_set_target>
100033fe:	1e06      	subs	r6, r0, #0
10003400:	d001      	beq.n	10003406 <add_alarm_under_lock+0x10e>
10003402:	2f00      	cmp	r7, #0
10003404:	d017      	beq.n	10003436 <add_alarm_under_lock+0x13e>
10003406:	9b0c      	ldr	r3, [sp, #48]	; 0x30
10003408:	2b00      	cmp	r3, #0
1000340a:	d100      	bne.n	1000340e <add_alarm_under_lock+0x116>
1000340c:	e788      	b.n	10003320 <add_alarm_under_lock+0x28>
1000340e:	701e      	strb	r6, [r3, #0]
10003410:	e786      	b.n	10003320 <add_alarm_under_lock+0x28>
10003412:	4b12      	ldr	r3, [pc, #72]	; (1000345c <add_alarm_under_lock+0x164>)
10003414:	4a12      	ldr	r2, [pc, #72]	; (10003460 <add_alarm_under_lock+0x168>)
10003416:	213c      	movs	r1, #60	; 0x3c
10003418:	480e      	ldr	r0, [pc, #56]	; (10003454 <add_alarm_under_lock+0x15c>)
1000341a:	f001 f953 	bl	100046c4 <__assert_func>
1000341e:	4b11      	ldr	r3, [pc, #68]	; (10003464 <add_alarm_under_lock+0x16c>)
10003420:	4a11      	ldr	r2, [pc, #68]	; (10003468 <add_alarm_under_lock+0x170>)
10003422:	21a5      	movs	r1, #165	; 0xa5
10003424:	4808      	ldr	r0, [pc, #32]	; (10003448 <add_alarm_under_lock+0x150>)
10003426:	f001 f94d 	bl	100046c4 <__assert_func>
1000342a:	4b05      	ldr	r3, [pc, #20]	; (10003440 <add_alarm_under_lock+0x148>)
1000342c:	4a05      	ldr	r2, [pc, #20]	; (10003444 <add_alarm_under_lock+0x14c>)
1000342e:	2168      	movs	r1, #104	; 0x68
10003430:	4805      	ldr	r0, [pc, #20]	; (10003448 <add_alarm_under_lock+0x150>)
10003432:	f001 f947 	bl	100046c4 <__assert_func>
10003436:	6828      	ldr	r0, [r5, #0]
10003438:	0021      	movs	r1, r4
1000343a:	f000 ff0f 	bl	1000425c <ph_remove_and_free_node>
1000343e:	e7e2      	b.n	10003406 <add_alarm_under_lock+0x10e>
10003440:	1000aac8 	.word	0x1000aac8
10003444:	1000ad90 	.word	0x1000ad90
10003448:	1000aae4 	.word	0x1000aae4
1000344c:	1000ab7c 	.word	0x1000ab7c
10003450:	1000ad9c 	.word	0x1000ad9c
10003454:	1000aa50 	.word	0x1000aa50
10003458:	0fffffff 	.word	0x0fffffff
1000345c:	1000aaa4 	.word	0x1000aaa4
10003460:	1000ad24 	.word	0x1000ad24
10003464:	1000aa4c 	.word	0x1000aa4c
10003468:	1000ad80 	.word	0x1000ad80

1000346c <alarm_pool_alarm_callback>:
1000346c:	b5f0      	push	{r4, r5, r6, r7, lr}
1000346e:	46de      	mov	lr, fp
10003470:	4657      	mov	r7, sl
10003472:	464e      	mov	r6, r9
10003474:	4645      	mov	r5, r8
10003476:	b5e0      	push	{r5, r6, r7, lr}
10003478:	b08b      	sub	sp, #44	; 0x2c
1000347a:	9009      	str	r0, [sp, #36]	; 0x24
1000347c:	2300      	movs	r3, #0
1000347e:	9308      	str	r3, [sp, #32]
10003480:	0082      	lsls	r2, r0, #2
10003482:	4bb5      	ldr	r3, [pc, #724]	; (10003758 <alarm_pool_alarm_callback+0x2ec>)
10003484:	58d6      	ldr	r6, [r2, r3]
10003486:	0037      	movs	r7, r6
10003488:	e052      	b.n	10003530 <alarm_pool_alarm_callback+0xc4>
1000348a:	4bb4      	ldr	r3, [pc, #720]	; (1000375c <alarm_pool_alarm_callback+0x2f0>)
1000348c:	4ab4      	ldr	r2, [pc, #720]	; (10003760 <alarm_pool_alarm_callback+0x2f4>)
1000348e:	213f      	movs	r1, #63	; 0x3f
10003490:	48b4      	ldr	r0, [pc, #720]	; (10003764 <alarm_pool_alarm_callback+0x2f8>)
10003492:	f001 f917 	bl	100046c4 <__assert_func>
10003496:	4bb4      	ldr	r3, [pc, #720]	; (10003768 <alarm_pool_alarm_callback+0x2fc>)
10003498:	4ab4      	ldr	r2, [pc, #720]	; (1000376c <alarm_pool_alarm_callback+0x300>)
1000349a:	213c      	movs	r1, #60	; 0x3c
1000349c:	48b4      	ldr	r0, [pc, #720]	; (10003770 <alarm_pool_alarm_callback+0x304>)
1000349e:	f001 f911 	bl	100046c4 <__assert_func>
100034a2:	2900      	cmp	r1, #0
100034a4:	d101      	bne.n	100034aa <alarm_pool_alarm_callback+0x3e>
100034a6:	2800      	cmp	r0, #0
100034a8:	d169      	bne.n	1000357e <alarm_pool_alarm_callback+0x112>
100034aa:	2100      	movs	r1, #0
100034ac:	4640      	mov	r0, r8
100034ae:	f000 fecb 	bl	10004248 <ph_remove_head>
100034b2:	42a0      	cmp	r0, r4
100034b4:	d119      	bne.n	100034ea <alarm_pool_alarm_callback+0x7e>
100034b6:	682a      	ldr	r2, [r5, #0]
100034b8:	686b      	ldr	r3, [r5, #4]
100034ba:	9206      	str	r2, [sp, #24]
100034bc:	9307      	str	r3, [sp, #28]
100034be:	68ab      	ldr	r3, [r5, #8]
100034c0:	4698      	mov	r8, r3
100034c2:	68eb      	ldr	r3, [r5, #12]
100034c4:	469a      	mov	sl, r3
100034c6:	4643      	mov	r3, r8
100034c8:	2b00      	cmp	r3, #0
100034ca:	d014      	beq.n	100034f6 <alarm_pool_alarm_callback+0x8a>
100034cc:	2c00      	cmp	r4, #0
100034ce:	d018      	beq.n	10003502 <alarm_pool_alarm_callback+0x96>
100034d0:	683b      	ldr	r3, [r7, #0]
100034d2:	7b1b      	ldrb	r3, [r3, #12]
100034d4:	429c      	cmp	r4, r3
100034d6:	d814      	bhi.n	10003502 <alarm_pool_alarm_callback+0x96>
100034d8:	1e63      	subs	r3, r4, #1
100034da:	68fa      	ldr	r2, [r7, #12]
100034dc:	5cd3      	ldrb	r3, [r2, r3]
100034de:	9308      	str	r3, [sp, #32]
100034e0:	021b      	lsls	r3, r3, #8
100034e2:	4318      	orrs	r0, r3
100034e4:	6138      	str	r0, [r7, #16]
100034e6:	2000      	movs	r0, #0
100034e8:	e015      	b.n	10003516 <alarm_pool_alarm_callback+0xaa>
100034ea:	4ba2      	ldr	r3, [pc, #648]	; (10003774 <alarm_pool_alarm_callback+0x308>)
100034ec:	4aa2      	ldr	r2, [pc, #648]	; (10003778 <alarm_pool_alarm_callback+0x30c>)
100034ee:	218e      	movs	r1, #142	; 0x8e
100034f0:	489f      	ldr	r0, [pc, #636]	; (10003770 <alarm_pool_alarm_callback+0x304>)
100034f2:	f001 f8e7 	bl	100046c4 <__assert_func>
100034f6:	4ba1      	ldr	r3, [pc, #644]	; (1000377c <alarm_pool_alarm_callback+0x310>)
100034f8:	4a9f      	ldr	r2, [pc, #636]	; (10003778 <alarm_pool_alarm_callback+0x30c>)
100034fa:	2192      	movs	r1, #146	; 0x92
100034fc:	489c      	ldr	r0, [pc, #624]	; (10003770 <alarm_pool_alarm_callback+0x304>)
100034fe:	f001 f8e1 	bl	100046c4 <__assert_func>
10003502:	4b99      	ldr	r3, [pc, #612]	; (10003768 <alarm_pool_alarm_callback+0x2fc>)
10003504:	4a9e      	ldr	r2, [pc, #632]	; (10003780 <alarm_pool_alarm_callback+0x314>)
10003506:	2141      	movs	r1, #65	; 0x41
10003508:	4899      	ldr	r0, [pc, #612]	; (10003770 <alarm_pool_alarm_callback+0x304>)
1000350a:	f001 f8db 	bl	100046c4 <__assert_func>
1000350e:	2300      	movs	r3, #0
10003510:	469a      	mov	sl, r3
10003512:	4698      	mov	r8, r3
10003514:	2000      	movs	r0, #0
10003516:	687b      	ldr	r3, [r7, #4]
10003518:	f3bf 8f5f 	dmb	sy
1000351c:	2200      	movs	r2, #0
1000351e:	601a      	str	r2, [r3, #0]
10003520:	f386 8810 	msr	PRIMASK, r6
10003524:	4643      	mov	r3, r8
10003526:	2b00      	cmp	r3, #0
10003528:	d132      	bne.n	10003590 <alarm_pool_alarm_callback+0x124>
1000352a:	2800      	cmp	r0, #0
1000352c:	d100      	bne.n	10003530 <alarm_pool_alarm_callback+0xc4>
1000352e:	e10c      	b.n	1000374a <alarm_pool_alarm_callback+0x2de>
10003530:	f000 fbf4 	bl	10003d1c <time_us_64>
10003534:	0002      	movs	r2, r0
10003536:	1e0b      	subs	r3, r1, #0
10003538:	dba7      	blt.n	1000348a <alarm_pool_alarm_callback+0x1e>
1000353a:	2000      	movs	r0, #0
1000353c:	2100      	movs	r1, #0
1000353e:	9006      	str	r0, [sp, #24]
10003540:	9107      	str	r1, [sp, #28]
10003542:	6878      	ldr	r0, [r7, #4]
10003544:	f3ef 8610 	mrs	r6, PRIMASK
10003548:	b672      	cpsid	i
1000354a:	6801      	ldr	r1, [r0, #0]
1000354c:	2900      	cmp	r1, #0
1000354e:	d0fc      	beq.n	1000354a <alarm_pool_alarm_callback+0xde>
10003550:	f3bf 8f5f 	dmb	sy
10003554:	6839      	ldr	r1, [r7, #0]
10003556:	4688      	mov	r8, r1
10003558:	7b4c      	ldrb	r4, [r1, #13]
1000355a:	2c00      	cmp	r4, #0
1000355c:	d0d7      	beq.n	1000350e <alarm_pool_alarm_callback+0xa2>
1000355e:	d09a      	beq.n	10003496 <alarm_pool_alarm_callback+0x2a>
10003560:	7b09      	ldrb	r1, [r1, #12]
10003562:	428c      	cmp	r4, r1
10003564:	d897      	bhi.n	10003496 <alarm_pool_alarm_callback+0x2a>
10003566:	4987      	ldr	r1, [pc, #540]	; (10003784 <alarm_pool_alarm_callback+0x318>)
10003568:	1865      	adds	r5, r4, r1
1000356a:	012d      	lsls	r5, r5, #4
1000356c:	68b9      	ldr	r1, [r7, #8]
1000356e:	468c      	mov	ip, r1
10003570:	4465      	add	r5, ip
10003572:	6828      	ldr	r0, [r5, #0]
10003574:	6869      	ldr	r1, [r5, #4]
10003576:	1a80      	subs	r0, r0, r2
10003578:	4199      	sbcs	r1, r3
1000357a:	2900      	cmp	r1, #0
1000357c:	dd91      	ble.n	100034a2 <alarm_pool_alarm_callback+0x36>
1000357e:	682a      	ldr	r2, [r5, #0]
10003580:	686b      	ldr	r3, [r5, #4]
10003582:	9809      	ldr	r0, [sp, #36]	; 0x24
10003584:	f000 fc32 	bl	10003dec <hardware_alarm_set_target>
10003588:	2300      	movs	r3, #0
1000358a:	469a      	mov	sl, r3
1000358c:	4698      	mov	r8, r3
1000358e:	e7c2      	b.n	10003516 <alarm_pool_alarm_callback+0xaa>
10003590:	9b08      	ldr	r3, [sp, #32]
10003592:	021b      	lsls	r3, r3, #8
10003594:	4323      	orrs	r3, r4
10003596:	4699      	mov	r9, r3
10003598:	4651      	mov	r1, sl
1000359a:	0018      	movs	r0, r3
1000359c:	47c0      	blx	r8
1000359e:	0005      	movs	r5, r0
100035a0:	000e      	movs	r6, r1
100035a2:	687a      	ldr	r2, [r7, #4]
100035a4:	f3ef 8b10 	mrs	fp, PRIMASK
100035a8:	b672      	cpsid	i
100035aa:	6813      	ldr	r3, [r2, #0]
100035ac:	4259      	negs	r1, r3
100035ae:	414b      	adcs	r3, r1
100035b0:	b2d9      	uxtb	r1, r3
100035b2:	2b00      	cmp	r3, #0
100035b4:	d1f9      	bne.n	100035aa <alarm_pool_alarm_callback+0x13e>
100035b6:	f3bf 8f5f 	dmb	sy
100035ba:	2e00      	cmp	r6, #0
100035bc:	db1e      	blt.n	100035fc <alarm_pool_alarm_callback+0x190>
100035be:	2e00      	cmp	r6, #0
100035c0:	dd46      	ble.n	10003650 <alarm_pool_alarm_callback+0x1e4>
100035c2:	693b      	ldr	r3, [r7, #16]
100035c4:	2b00      	cmp	r3, #0
100035c6:	d047      	beq.n	10003658 <alarm_pool_alarm_callback+0x1ec>
100035c8:	454b      	cmp	r3, r9
100035ca:	d16d      	bne.n	100036a8 <alarm_pool_alarm_callback+0x23c>
100035cc:	f000 fba6 	bl	10003d1c <time_us_64>
100035d0:	0002      	movs	r2, r0
100035d2:	1e0b      	subs	r3, r1, #0
100035d4:	db6e      	blt.n	100036b4 <alarm_pool_alarm_callback+0x248>
100035d6:	1952      	adds	r2, r2, r5
100035d8:	4173      	adcs	r3, r6
100035da:	2b00      	cmp	r3, #0
100035dc:	db70      	blt.n	100036c0 <alarm_pool_alarm_callback+0x254>
100035de:	2b00      	cmp	r3, #0
100035e0:	db72      	blt.n	100036c8 <alarm_pool_alarm_callback+0x25c>
100035e2:	2100      	movs	r1, #0
100035e4:	9104      	str	r1, [sp, #16]
100035e6:	3101      	adds	r1, #1
100035e8:	9103      	str	r1, [sp, #12]
100035ea:	9402      	str	r4, [sp, #8]
100035ec:	4651      	mov	r1, sl
100035ee:	9101      	str	r1, [sp, #4]
100035f0:	4641      	mov	r1, r8
100035f2:	9100      	str	r1, [sp, #0]
100035f4:	0038      	movs	r0, r7
100035f6:	f7ff fe7f 	bl	100032f8 <add_alarm_under_lock>
100035fa:	e04c      	b.n	10003696 <alarm_pool_alarm_callback+0x22a>
100035fc:	693b      	ldr	r3, [r7, #16]
100035fe:	2b00      	cmp	r3, #0
10003600:	d0dd      	beq.n	100035be <alarm_pool_alarm_callback+0x152>
10003602:	454b      	cmp	r3, r9
10003604:	d114      	bne.n	10003630 <alarm_pool_alarm_callback+0x1c4>
10003606:	9a06      	ldr	r2, [sp, #24]
10003608:	9b07      	ldr	r3, [sp, #28]
1000360a:	1b52      	subs	r2, r2, r5
1000360c:	41b3      	sbcs	r3, r6
1000360e:	2b00      	cmp	r3, #0
10003610:	db14      	blt.n	1000363c <alarm_pool_alarm_callback+0x1d0>
10003612:	2b00      	cmp	r3, #0
10003614:	db16      	blt.n	10003644 <alarm_pool_alarm_callback+0x1d8>
10003616:	2100      	movs	r1, #0
10003618:	9104      	str	r1, [sp, #16]
1000361a:	3101      	adds	r1, #1
1000361c:	9103      	str	r1, [sp, #12]
1000361e:	9402      	str	r4, [sp, #8]
10003620:	4651      	mov	r1, sl
10003622:	9101      	str	r1, [sp, #4]
10003624:	4641      	mov	r1, r8
10003626:	9100      	str	r1, [sp, #0]
10003628:	0038      	movs	r0, r7
1000362a:	f7ff fe65 	bl	100032f8 <add_alarm_under_lock>
1000362e:	e032      	b.n	10003696 <alarm_pool_alarm_callback+0x22a>
10003630:	4b55      	ldr	r3, [pc, #340]	; (10003788 <alarm_pool_alarm_callback+0x31c>)
10003632:	4a51      	ldr	r2, [pc, #324]	; (10003778 <alarm_pool_alarm_callback+0x30c>)
10003634:	21a1      	movs	r1, #161	; 0xa1
10003636:	484e      	ldr	r0, [pc, #312]	; (10003770 <alarm_pool_alarm_callback+0x304>)
10003638:	f001 f844 	bl	100046c4 <__assert_func>
1000363c:	2201      	movs	r2, #1
1000363e:	4252      	negs	r2, r2
10003640:	4b52      	ldr	r3, [pc, #328]	; (1000378c <alarm_pool_alarm_callback+0x320>)
10003642:	e7e6      	b.n	10003612 <alarm_pool_alarm_callback+0x1a6>
10003644:	4b45      	ldr	r3, [pc, #276]	; (1000375c <alarm_pool_alarm_callback+0x2f0>)
10003646:	4a46      	ldr	r2, [pc, #280]	; (10003760 <alarm_pool_alarm_callback+0x2f4>)
10003648:	213f      	movs	r1, #63	; 0x3f
1000364a:	4846      	ldr	r0, [pc, #280]	; (10003764 <alarm_pool_alarm_callback+0x2f8>)
1000364c:	f001 f83a 	bl	100046c4 <__assert_func>
10003650:	2e00      	cmp	r6, #0
10003652:	d101      	bne.n	10003658 <alarm_pool_alarm_callback+0x1ec>
10003654:	2d00      	cmp	r5, #0
10003656:	d1b4      	bne.n	100035c2 <alarm_pool_alarm_callback+0x156>
10003658:	683b      	ldr	r3, [r7, #0]
1000365a:	2c00      	cmp	r4, #0
1000365c:	d050      	beq.n	10003700 <alarm_pool_alarm_callback+0x294>
1000365e:	7b5a      	ldrb	r2, [r3, #13]
10003660:	4294      	cmp	r4, r2
10003662:	d137      	bne.n	100036d4 <alarm_pool_alarm_callback+0x268>
10003664:	2101      	movs	r1, #1
10003666:	2900      	cmp	r1, #0
10003668:	d14a      	bne.n	10003700 <alarm_pool_alarm_callback+0x294>
1000366a:	7bda      	ldrb	r2, [r3, #15]
1000366c:	2a00      	cmp	r2, #0
1000366e:	d14d      	bne.n	1000370c <alarm_pool_alarm_callback+0x2a0>
10003670:	7b9a      	ldrb	r2, [r3, #14]
10003672:	2a00      	cmp	r2, #0
10003674:	d103      	bne.n	1000367e <alarm_pool_alarm_callback+0x212>
10003676:	7bda      	ldrb	r2, [r3, #15]
10003678:	2a00      	cmp	r2, #0
1000367a:	d15a      	bne.n	10003732 <alarm_pool_alarm_callback+0x2c6>
1000367c:	739c      	strb	r4, [r3, #14]
1000367e:	73dc      	strb	r4, [r3, #15]
10003680:	2c00      	cmp	r4, #0
10003682:	d05c      	beq.n	1000373e <alarm_pool_alarm_callback+0x2d2>
10003684:	683b      	ldr	r3, [r7, #0]
10003686:	7b1b      	ldrb	r3, [r3, #12]
10003688:	429c      	cmp	r4, r3
1000368a:	d858      	bhi.n	1000373e <alarm_pool_alarm_callback+0x2d2>
1000368c:	68fa      	ldr	r2, [r7, #12]
1000368e:	3c01      	subs	r4, #1
10003690:	5d13      	ldrb	r3, [r2, r4]
10003692:	3301      	adds	r3, #1
10003694:	5513      	strb	r3, [r2, r4]
10003696:	2300      	movs	r3, #0
10003698:	613b      	str	r3, [r7, #16]
1000369a:	687a      	ldr	r2, [r7, #4]
1000369c:	f3bf 8f5f 	dmb	sy
100036a0:	6013      	str	r3, [r2, #0]
100036a2:	f38b 8810 	msr	PRIMASK, fp
100036a6:	e743      	b.n	10003530 <alarm_pool_alarm_callback+0xc4>
100036a8:	4b37      	ldr	r3, [pc, #220]	; (10003788 <alarm_pool_alarm_callback+0x31c>)
100036aa:	4a33      	ldr	r2, [pc, #204]	; (10003778 <alarm_pool_alarm_callback+0x30c>)
100036ac:	21a4      	movs	r1, #164	; 0xa4
100036ae:	4830      	ldr	r0, [pc, #192]	; (10003770 <alarm_pool_alarm_callback+0x304>)
100036b0:	f001 f808 	bl	100046c4 <__assert_func>
100036b4:	4b29      	ldr	r3, [pc, #164]	; (1000375c <alarm_pool_alarm_callback+0x2f0>)
100036b6:	4a2a      	ldr	r2, [pc, #168]	; (10003760 <alarm_pool_alarm_callback+0x2f4>)
100036b8:	213f      	movs	r1, #63	; 0x3f
100036ba:	482a      	ldr	r0, [pc, #168]	; (10003764 <alarm_pool_alarm_callback+0x2f8>)
100036bc:	f001 f802 	bl	100046c4 <__assert_func>
100036c0:	2201      	movs	r2, #1
100036c2:	4252      	negs	r2, r2
100036c4:	4b31      	ldr	r3, [pc, #196]	; (1000378c <alarm_pool_alarm_callback+0x320>)
100036c6:	e78a      	b.n	100035de <alarm_pool_alarm_callback+0x172>
100036c8:	4b24      	ldr	r3, [pc, #144]	; (1000375c <alarm_pool_alarm_callback+0x2f0>)
100036ca:	4a25      	ldr	r2, [pc, #148]	; (10003760 <alarm_pool_alarm_callback+0x2f4>)
100036cc:	213f      	movs	r1, #63	; 0x3f
100036ce:	4825      	ldr	r0, [pc, #148]	; (10003764 <alarm_pool_alarm_callback+0x2f8>)
100036d0:	f000 fff8 	bl	100046c4 <__assert_func>
100036d4:	2c00      	cmp	r4, #0
100036d6:	d00d      	beq.n	100036f4 <alarm_pool_alarm_callback+0x288>
100036d8:	7b1a      	ldrb	r2, [r3, #12]
100036da:	4294      	cmp	r4, r2
100036dc:	d80a      	bhi.n	100036f4 <alarm_pool_alarm_callback+0x288>
100036de:	0062      	lsls	r2, r4, #1
100036e0:	1912      	adds	r2, r2, r4
100036e2:	3a03      	subs	r2, #3
100036e4:	6818      	ldr	r0, [r3, #0]
100036e6:	4684      	mov	ip, r0
100036e8:	4462      	add	r2, ip
100036ea:	7892      	ldrb	r2, [r2, #2]
100036ec:	2a00      	cmp	r2, #0
100036ee:	d0ba      	beq.n	10003666 <alarm_pool_alarm_callback+0x1fa>
100036f0:	2101      	movs	r1, #1
100036f2:	e7b8      	b.n	10003666 <alarm_pool_alarm_callback+0x1fa>
100036f4:	4b26      	ldr	r3, [pc, #152]	; (10003790 <alarm_pool_alarm_callback+0x324>)
100036f6:	4a27      	ldr	r2, [pc, #156]	; (10003794 <alarm_pool_alarm_callback+0x328>)
100036f8:	2168      	movs	r1, #104	; 0x68
100036fa:	4827      	ldr	r0, [pc, #156]	; (10003798 <alarm_pool_alarm_callback+0x32c>)
100036fc:	f000 ffe2 	bl	100046c4 <__assert_func>
10003700:	4b26      	ldr	r3, [pc, #152]	; (1000379c <alarm_pool_alarm_callback+0x330>)
10003702:	4a27      	ldr	r2, [pc, #156]	; (100037a0 <alarm_pool_alarm_callback+0x334>)
10003704:	21f6      	movs	r1, #246	; 0xf6
10003706:	4824      	ldr	r0, [pc, #144]	; (10003798 <alarm_pool_alarm_callback+0x32c>)
10003708:	f000 ffdc 	bl	100046c4 <__assert_func>
1000370c:	2a00      	cmp	r2, #0
1000370e:	d00a      	beq.n	10003726 <alarm_pool_alarm_callback+0x2ba>
10003710:	7b19      	ldrb	r1, [r3, #12]
10003712:	428a      	cmp	r2, r1
10003714:	d807      	bhi.n	10003726 <alarm_pool_alarm_callback+0x2ba>
10003716:	0051      	lsls	r1, r2, #1
10003718:	188a      	adds	r2, r1, r2
1000371a:	3a03      	subs	r2, #3
1000371c:	6819      	ldr	r1, [r3, #0]
1000371e:	468c      	mov	ip, r1
10003720:	4462      	add	r2, ip
10003722:	7054      	strb	r4, [r2, #1]
10003724:	e7a4      	b.n	10003670 <alarm_pool_alarm_callback+0x204>
10003726:	4b1a      	ldr	r3, [pc, #104]	; (10003790 <alarm_pool_alarm_callback+0x324>)
10003728:	4a1a      	ldr	r2, [pc, #104]	; (10003794 <alarm_pool_alarm_callback+0x328>)
1000372a:	2168      	movs	r1, #104	; 0x68
1000372c:	481a      	ldr	r0, [pc, #104]	; (10003798 <alarm_pool_alarm_callback+0x32c>)
1000372e:	f000 ffc9 	bl	100046c4 <__assert_func>
10003732:	4b1c      	ldr	r3, [pc, #112]	; (100037a4 <alarm_pool_alarm_callback+0x338>)
10003734:	4a1a      	ldr	r2, [pc, #104]	; (100037a0 <alarm_pool_alarm_callback+0x334>)
10003736:	21fb      	movs	r1, #251	; 0xfb
10003738:	4817      	ldr	r0, [pc, #92]	; (10003798 <alarm_pool_alarm_callback+0x32c>)
1000373a:	f000 ffc3 	bl	100046c4 <__assert_func>
1000373e:	4b0a      	ldr	r3, [pc, #40]	; (10003768 <alarm_pool_alarm_callback+0x2fc>)
10003740:	4a0f      	ldr	r2, [pc, #60]	; (10003780 <alarm_pool_alarm_callback+0x314>)
10003742:	2141      	movs	r1, #65	; 0x41
10003744:	480a      	ldr	r0, [pc, #40]	; (10003770 <alarm_pool_alarm_callback+0x304>)
10003746:	f000 ffbd 	bl	100046c4 <__assert_func>
1000374a:	b00b      	add	sp, #44	; 0x2c
1000374c:	bcf0      	pop	{r4, r5, r6, r7}
1000374e:	46bb      	mov	fp, r7
10003750:	46b2      	mov	sl, r6
10003752:	46a9      	mov	r9, r5
10003754:	46a0      	mov	r8, r4
10003756:	bdf0      	pop	{r4, r5, r6, r7, pc}
10003758:	200024dc 	.word	0x200024dc
1000375c:	1000a948 	.word	0x1000a948
10003760:	1000acf0 	.word	0x1000acf0
10003764:	1000a964 	.word	0x1000a964
10003768:	1000aaa4 	.word	0x1000aaa4
1000376c:	1000ad24 	.word	0x1000ad24
10003770:	1000aa50 	.word	0x1000aa50
10003774:	1000aba4 	.word	0x1000aba4
10003778:	1000ad08 	.word	0x1000ad08
1000377c:	1000abbc 	.word	0x1000abbc
10003780:	1000ad48 	.word	0x1000ad48
10003784:	0fffffff 	.word	0x0fffffff
10003788:	1000abc8 	.word	0x1000abc8
1000378c:	7fffffff 	.word	0x7fffffff
10003790:	1000aac8 	.word	0x1000aac8
10003794:	1000ad90 	.word	0x1000ad90
10003798:	1000aae4 	.word	0x1000aae4
1000379c:	1000ac04 	.word	0x1000ac04
100037a0:	1000ad5c 	.word	0x1000ad5c
100037a4:	1000ac28 	.word	0x1000ac28

100037a8 <alarm_pool_init_default>:
100037a8:	b510      	push	{r4, lr}
100037aa:	4b0c      	ldr	r3, [pc, #48]	; (100037dc <alarm_pool_init_default+0x34>)
100037ac:	685b      	ldr	r3, [r3, #4]
100037ae:	2b00      	cmp	r3, #0
100037b0:	d004      	beq.n	100037bc <alarm_pool_init_default+0x14>
100037b2:	210a      	movs	r1, #10
100037b4:	480a      	ldr	r0, [pc, #40]	; (100037e0 <alarm_pool_init_default+0x38>)
100037b6:	f7ff fc7f 	bl	100030b8 <lock_init>
100037ba:	bd10      	pop	{r4, pc}
100037bc:	4c07      	ldr	r4, [pc, #28]	; (100037dc <alarm_pool_init_default+0x34>)
100037be:	0023      	movs	r3, r4
100037c0:	4a08      	ldr	r2, [pc, #32]	; (100037e4 <alarm_pool_init_default+0x3c>)
100037c2:	2110      	movs	r1, #16
100037c4:	6820      	ldr	r0, [r4, #0]
100037c6:	f000 fc4f 	bl	10004068 <ph_post_alloc_init>
100037ca:	2003      	movs	r0, #3
100037cc:	f000 fa9a 	bl	10003d04 <hardware_alarm_claim>
100037d0:	2103      	movs	r1, #3
100037d2:	0020      	movs	r0, r4
100037d4:	f7ff fca8 	bl	10003128 <alarm_pool_post_alloc_init>
100037d8:	e7eb      	b.n	100037b2 <alarm_pool_init_default+0xa>
100037da:	46c0      	nop			; (mov r8, r8)
100037dc:	20000e74 	.word	0x20000e74
100037e0:	20002700 	.word	0x20002700
100037e4:	10003199 	.word	0x10003199

100037e8 <alarm_pool_get_default>:
100037e8:	b510      	push	{r4, lr}
100037ea:	4b06      	ldr	r3, [pc, #24]	; (10003804 <alarm_pool_get_default+0x1c>)
100037ec:	685b      	ldr	r3, [r3, #4]
100037ee:	2b00      	cmp	r3, #0
100037f0:	d001      	beq.n	100037f6 <alarm_pool_get_default+0xe>
100037f2:	4804      	ldr	r0, [pc, #16]	; (10003804 <alarm_pool_get_default+0x1c>)
100037f4:	bd10      	pop	{r4, pc}
100037f6:	4b04      	ldr	r3, [pc, #16]	; (10003808 <alarm_pool_get_default+0x20>)
100037f8:	4a04      	ldr	r2, [pc, #16]	; (1000380c <alarm_pool_get_default+0x24>)
100037fa:	215e      	movs	r1, #94	; 0x5e
100037fc:	4804      	ldr	r0, [pc, #16]	; (10003810 <alarm_pool_get_default+0x28>)
100037fe:	f000 ff61 	bl	100046c4 <__assert_func>
10003802:	46c0      	nop			; (mov r8, r8)
10003804:	20000e74 	.word	0x20000e74
10003808:	1000ac3c 	.word	0x1000ac3c
1000380c:	1000ad30 	.word	0x1000ad30
10003810:	1000aa50 	.word	0x1000aa50

10003814 <alarm_pool_add_alarm_at>:
10003814:	b5f0      	push	{r4, r5, r6, r7, lr}
10003816:	46de      	mov	lr, fp
10003818:	4657      	mov	r7, sl
1000381a:	464e      	mov	r6, r9
1000381c:	4645      	mov	r5, r8
1000381e:	b5e0      	push	{r5, r6, r7, lr}
10003820:	b08b      	sub	sp, #44	; 0x2c
10003822:	4680      	mov	r8, r0
10003824:	0016      	movs	r6, r2
10003826:	001f      	movs	r7, r3
10003828:	9b14      	ldr	r3, [sp, #80]	; 0x50
1000382a:	469a      	mov	sl, r3
1000382c:	9b15      	ldr	r3, [sp, #84]	; 0x54
1000382e:	4699      	mov	r9, r3
10003830:	ab16      	add	r3, sp, #88	; 0x58
10003832:	781b      	ldrb	r3, [r3, #0]
10003834:	469b      	mov	fp, r3
10003836:	231f      	movs	r3, #31
10003838:	aa02      	add	r2, sp, #8
1000383a:	4694      	mov	ip, r2
1000383c:	4463      	add	r3, ip
1000383e:	2200      	movs	r2, #0
10003840:	701a      	strb	r2, [r3, #0]
10003842:	e02b      	b.n	1000389c <alarm_pool_add_alarm_at+0x88>
10003844:	2800      	cmp	r0, #0
10003846:	d009      	beq.n	1000385c <alarm_pool_add_alarm_at+0x48>
10003848:	4642      	mov	r2, r8
1000384a:	6812      	ldr	r2, [r2, #0]
1000384c:	7b12      	ldrb	r2, [r2, #12]
1000384e:	4290      	cmp	r0, r2
10003850:	d804      	bhi.n	1000385c <alarm_pool_add_alarm_at+0x48>
10003852:	1e42      	subs	r2, r0, #1
10003854:	4641      	mov	r1, r8
10003856:	68c9      	ldr	r1, [r1, #12]
10003858:	5c8a      	ldrb	r2, [r1, r2]
1000385a:	e041      	b.n	100038e0 <alarm_pool_add_alarm_at+0xcc>
1000385c:	4b40      	ldr	r3, [pc, #256]	; (10003960 <alarm_pool_add_alarm_at+0x14c>)
1000385e:	4a41      	ldr	r2, [pc, #260]	; (10003964 <alarm_pool_add_alarm_at+0x150>)
10003860:	2141      	movs	r1, #65	; 0x41
10003862:	4841      	ldr	r0, [pc, #260]	; (10003968 <alarm_pool_add_alarm_at+0x154>)
10003864:	f000 ff2e 	bl	100046c4 <__assert_func>
10003868:	9807      	ldr	r0, [sp, #28]
1000386a:	e04c      	b.n	10003906 <alarm_pool_add_alarm_at+0xf2>
1000386c:	1b36      	subs	r6, r6, r4
1000386e:	41af      	sbcs	r7, r5
10003870:	2f00      	cmp	r7, #0
10003872:	db07      	blt.n	10003884 <alarm_pool_add_alarm_at+0x70>
10003874:	2f00      	cmp	r7, #0
10003876:	da11      	bge.n	1000389c <alarm_pool_add_alarm_at+0x88>
10003878:	4b3c      	ldr	r3, [pc, #240]	; (1000396c <alarm_pool_add_alarm_at+0x158>)
1000387a:	4a3d      	ldr	r2, [pc, #244]	; (10003970 <alarm_pool_add_alarm_at+0x15c>)
1000387c:	213f      	movs	r1, #63	; 0x3f
1000387e:	483d      	ldr	r0, [pc, #244]	; (10003974 <alarm_pool_add_alarm_at+0x160>)
10003880:	f000 ff20 	bl	100046c4 <__assert_func>
10003884:	2601      	movs	r6, #1
10003886:	4276      	negs	r6, r6
10003888:	4f3b      	ldr	r7, [pc, #236]	; (10003978 <alarm_pool_add_alarm_at+0x164>)
1000388a:	e7f3      	b.n	10003874 <alarm_pool_add_alarm_at+0x60>
1000388c:	4b37      	ldr	r3, [pc, #220]	; (1000396c <alarm_pool_add_alarm_at+0x158>)
1000388e:	4a38      	ldr	r2, [pc, #224]	; (10003970 <alarm_pool_add_alarm_at+0x15c>)
10003890:	213f      	movs	r1, #63	; 0x3f
10003892:	4838      	ldr	r0, [pc, #224]	; (10003974 <alarm_pool_add_alarm_at+0x160>)
10003894:	f000 ff16 	bl	100046c4 <__assert_func>
10003898:	2f00      	cmp	r7, #0
1000389a:	db4f      	blt.n	1000393c <alarm_pool_add_alarm_at+0x128>
1000389c:	4643      	mov	r3, r8
1000389e:	685a      	ldr	r2, [r3, #4]
100038a0:	f3ef 8410 	mrs	r4, PRIMASK
100038a4:	b672      	cpsid	i
100038a6:	6813      	ldr	r3, [r2, #0]
100038a8:	4259      	negs	r1, r3
100038aa:	414b      	adcs	r3, r1
100038ac:	b2d9      	uxtb	r1, r3
100038ae:	9107      	str	r1, [sp, #28]
100038b0:	2b00      	cmp	r3, #0
100038b2:	d1f8      	bne.n	100038a6 <alarm_pool_add_alarm_at+0x92>
100038b4:	f3bf 8f5f 	dmb	sy
100038b8:	331f      	adds	r3, #31
100038ba:	aa02      	add	r2, sp, #8
100038bc:	4694      	mov	ip, r2
100038be:	4463      	add	r3, ip
100038c0:	9304      	str	r3, [sp, #16]
100038c2:	2300      	movs	r3, #0
100038c4:	9303      	str	r3, [sp, #12]
100038c6:	9302      	str	r3, [sp, #8]
100038c8:	464b      	mov	r3, r9
100038ca:	9301      	str	r3, [sp, #4]
100038cc:	4653      	mov	r3, sl
100038ce:	9300      	str	r3, [sp, #0]
100038d0:	0032      	movs	r2, r6
100038d2:	003b      	movs	r3, r7
100038d4:	4640      	mov	r0, r8
100038d6:	f7ff fd0f 	bl	100032f8 <add_alarm_under_lock>
100038da:	1e03      	subs	r3, r0, #0
100038dc:	d1b2      	bne.n	10003844 <alarm_pool_add_alarm_at+0x30>
100038de:	0002      	movs	r2, r0
100038e0:	4641      	mov	r1, r8
100038e2:	6849      	ldr	r1, [r1, #4]
100038e4:	f3bf 8f5f 	dmb	sy
100038e8:	2500      	movs	r5, #0
100038ea:	600d      	str	r5, [r1, #0]
100038ec:	f384 8810 	msr	PRIMASK, r4
100038f0:	2b00      	cmp	r3, #0
100038f2:	d029      	beq.n	10003948 <alarm_pool_add_alarm_at+0x134>
100038f4:	231f      	movs	r3, #31
100038f6:	a902      	add	r1, sp, #8
100038f8:	468c      	mov	ip, r1
100038fa:	4463      	add	r3, ip
100038fc:	781b      	ldrb	r3, [r3, #0]
100038fe:	2b00      	cmp	r3, #0
10003900:	d1b2      	bne.n	10003868 <alarm_pool_add_alarm_at+0x54>
10003902:	0212      	lsls	r2, r2, #8
10003904:	4310      	orrs	r0, r2
10003906:	2b00      	cmp	r3, #0
10003908:	d020      	beq.n	1000394c <alarm_pool_add_alarm_at+0x138>
1000390a:	465b      	mov	r3, fp
1000390c:	2b00      	cmp	r3, #0
1000390e:	d01d      	beq.n	1000394c <alarm_pool_add_alarm_at+0x138>
10003910:	4649      	mov	r1, r9
10003912:	47d0      	blx	sl
10003914:	0004      	movs	r4, r0
10003916:	000d      	movs	r5, r1
10003918:	0003      	movs	r3, r0
1000391a:	430b      	orrs	r3, r1
1000391c:	d01d      	beq.n	1000395a <alarm_pool_add_alarm_at+0x146>
1000391e:	2900      	cmp	r1, #0
10003920:	dba4      	blt.n	1000386c <alarm_pool_add_alarm_at+0x58>
10003922:	f000 f9fb 	bl	10003d1c <time_us_64>
10003926:	0006      	movs	r6, r0
10003928:	1e0f      	subs	r7, r1, #0
1000392a:	dbaf      	blt.n	1000388c <alarm_pool_add_alarm_at+0x78>
1000392c:	1936      	adds	r6, r6, r4
1000392e:	416f      	adcs	r7, r5
10003930:	2f00      	cmp	r7, #0
10003932:	dab1      	bge.n	10003898 <alarm_pool_add_alarm_at+0x84>
10003934:	2601      	movs	r6, #1
10003936:	4276      	negs	r6, r6
10003938:	4f0f      	ldr	r7, [pc, #60]	; (10003978 <alarm_pool_add_alarm_at+0x164>)
1000393a:	e7ad      	b.n	10003898 <alarm_pool_add_alarm_at+0x84>
1000393c:	4b0b      	ldr	r3, [pc, #44]	; (1000396c <alarm_pool_add_alarm_at+0x158>)
1000393e:	4a0c      	ldr	r2, [pc, #48]	; (10003970 <alarm_pool_add_alarm_at+0x15c>)
10003940:	213f      	movs	r1, #63	; 0x3f
10003942:	480c      	ldr	r0, [pc, #48]	; (10003974 <alarm_pool_add_alarm_at+0x160>)
10003944:	f000 febe 	bl	100046c4 <__assert_func>
10003948:	2001      	movs	r0, #1
1000394a:	4240      	negs	r0, r0
1000394c:	b00b      	add	sp, #44	; 0x2c
1000394e:	bcf0      	pop	{r4, r5, r6, r7}
10003950:	46bb      	mov	fp, r7
10003952:	46b2      	mov	sl, r6
10003954:	46a9      	mov	r9, r5
10003956:	46a0      	mov	r8, r4
10003958:	bdf0      	pop	{r4, r5, r6, r7, pc}
1000395a:	9807      	ldr	r0, [sp, #28]
1000395c:	e7f6      	b.n	1000394c <alarm_pool_add_alarm_at+0x138>
1000395e:	46c0      	nop			; (mov r8, r8)
10003960:	1000aaa4 	.word	0x1000aaa4
10003964:	1000ad48 	.word	0x1000ad48
10003968:	1000aa50 	.word	0x1000aa50
1000396c:	1000a948 	.word	0x1000a948
10003970:	1000acf0 	.word	0x1000acf0
10003974:	1000a964 	.word	0x1000a964
10003978:	7fffffff 	.word	0x7fffffff

1000397c <alarm_pool_cancel_alarm>:
1000397c:	b5f8      	push	{r3, r4, r5, r6, r7, lr}
1000397e:	0004      	movs	r4, r0
10003980:	2900      	cmp	r1, #0
10003982:	d100      	bne.n	10003986 <alarm_pool_cancel_alarm+0xa>
10003984:	e062      	b.n	10003a4c <alarm_pool_cancel_alarm+0xd0>
10003986:	6842      	ldr	r2, [r0, #4]
10003988:	f3ef 8510 	mrs	r5, PRIMASK
1000398c:	b672      	cpsid	i
1000398e:	6813      	ldr	r3, [r2, #0]
10003990:	4258      	negs	r0, r3
10003992:	4143      	adcs	r3, r0
10003994:	b2d8      	uxtb	r0, r3
10003996:	2b00      	cmp	r3, #0
10003998:	d1f9      	bne.n	1000398e <alarm_pool_cancel_alarm+0x12>
1000399a:	f3bf 8f5f 	dmb	sy
1000399e:	b2cb      	uxtb	r3, r1
100039a0:	6822      	ldr	r2, [r4, #0]
100039a2:	7b56      	ldrb	r6, [r2, #13]
100039a4:	42b3      	cmp	r3, r6
100039a6:	d11b      	bne.n	100039e0 <alarm_pool_cancel_alarm+0x64>
100039a8:	2001      	movs	r0, #1
100039aa:	2800      	cmp	r0, #0
100039ac:	d048      	beq.n	10003a40 <alarm_pool_cancel_alarm+0xc4>
100039ae:	6920      	ldr	r0, [r4, #16]
100039b0:	4288      	cmp	r0, r1
100039b2:	d02b      	beq.n	10003a0c <alarm_pool_cancel_alarm+0x90>
100039b4:	0a09      	lsrs	r1, r1, #8
100039b6:	b2c9      	uxtb	r1, r1
100039b8:	2b00      	cmp	r3, #0
100039ba:	d02e      	beq.n	10003a1a <alarm_pool_cancel_alarm+0x9e>
100039bc:	6820      	ldr	r0, [r4, #0]
100039be:	7b00      	ldrb	r0, [r0, #12]
100039c0:	4283      	cmp	r3, r0
100039c2:	d82a      	bhi.n	10003a1a <alarm_pool_cancel_alarm+0x9e>
100039c4:	1e58      	subs	r0, r3, #1
100039c6:	68e6      	ldr	r6, [r4, #12]
100039c8:	5c30      	ldrb	r0, [r6, r0]
100039ca:	4288      	cmp	r0, r1
100039cc:	d02b      	beq.n	10003a26 <alarm_pool_cancel_alarm+0xaa>
100039ce:	2000      	movs	r0, #0
100039d0:	6863      	ldr	r3, [r4, #4]
100039d2:	f3bf 8f5f 	dmb	sy
100039d6:	2200      	movs	r2, #0
100039d8:	601a      	str	r2, [r3, #0]
100039da:	f385 8810 	msr	PRIMASK, r5
100039de:	bdf8      	pop	{r3, r4, r5, r6, r7, pc}
100039e0:	2b00      	cmp	r3, #0
100039e2:	d00d      	beq.n	10003a00 <alarm_pool_cancel_alarm+0x84>
100039e4:	7b16      	ldrb	r6, [r2, #12]
100039e6:	42b3      	cmp	r3, r6
100039e8:	d80a      	bhi.n	10003a00 <alarm_pool_cancel_alarm+0x84>
100039ea:	005e      	lsls	r6, r3, #1
100039ec:	18f6      	adds	r6, r6, r3
100039ee:	3e03      	subs	r6, #3
100039f0:	6817      	ldr	r7, [r2, #0]
100039f2:	46bc      	mov	ip, r7
100039f4:	4466      	add	r6, ip
100039f6:	78b6      	ldrb	r6, [r6, #2]
100039f8:	2e00      	cmp	r6, #0
100039fa:	d0d6      	beq.n	100039aa <alarm_pool_cancel_alarm+0x2e>
100039fc:	2001      	movs	r0, #1
100039fe:	e7d4      	b.n	100039aa <alarm_pool_cancel_alarm+0x2e>
10003a00:	4b13      	ldr	r3, [pc, #76]	; (10003a50 <alarm_pool_cancel_alarm+0xd4>)
10003a02:	4a14      	ldr	r2, [pc, #80]	; (10003a54 <alarm_pool_cancel_alarm+0xd8>)
10003a04:	2168      	movs	r1, #104	; 0x68
10003a06:	4814      	ldr	r0, [pc, #80]	; (10003a58 <alarm_pool_cancel_alarm+0xdc>)
10003a08:	f000 fe5c 	bl	100046c4 <__assert_func>
10003a0c:	212c      	movs	r1, #44	; 0x2c
10003a0e:	4b13      	ldr	r3, [pc, #76]	; (10003a5c <alarm_pool_cancel_alarm+0xe0>)
10003a10:	4a13      	ldr	r2, [pc, #76]	; (10003a60 <alarm_pool_cancel_alarm+0xe4>)
10003a12:	31ff      	adds	r1, #255	; 0xff
10003a14:	4813      	ldr	r0, [pc, #76]	; (10003a64 <alarm_pool_cancel_alarm+0xe8>)
10003a16:	f000 fe55 	bl	100046c4 <__assert_func>
10003a1a:	4b13      	ldr	r3, [pc, #76]	; (10003a68 <alarm_pool_cancel_alarm+0xec>)
10003a1c:	4a13      	ldr	r2, [pc, #76]	; (10003a6c <alarm_pool_cancel_alarm+0xf0>)
10003a1e:	2141      	movs	r1, #65	; 0x41
10003a20:	4810      	ldr	r0, [pc, #64]	; (10003a64 <alarm_pool_cancel_alarm+0xe8>)
10003a22:	f000 fe4f 	bl	100046c4 <__assert_func>
10003a26:	0019      	movs	r1, r3
10003a28:	0010      	movs	r0, r2
10003a2a:	f000 fc17 	bl	1000425c <ph_remove_and_free_node>
10003a2e:	2800      	cmp	r0, #0
10003a30:	d1ce      	bne.n	100039d0 <alarm_pool_cancel_alarm+0x54>
10003a32:	2199      	movs	r1, #153	; 0x99
10003a34:	4b0e      	ldr	r3, [pc, #56]	; (10003a70 <alarm_pool_cancel_alarm+0xf4>)
10003a36:	4a0a      	ldr	r2, [pc, #40]	; (10003a60 <alarm_pool_cancel_alarm+0xe4>)
10003a38:	0049      	lsls	r1, r1, #1
10003a3a:	480a      	ldr	r0, [pc, #40]	; (10003a64 <alarm_pool_cancel_alarm+0xe8>)
10003a3c:	f000 fe42 	bl	100046c4 <__assert_func>
10003a40:	6923      	ldr	r3, [r4, #16]
10003a42:	428b      	cmp	r3, r1
10003a44:	d1c4      	bne.n	100039d0 <alarm_pool_cancel_alarm+0x54>
10003a46:	2300      	movs	r3, #0
10003a48:	6123      	str	r3, [r4, #16]
10003a4a:	e7c1      	b.n	100039d0 <alarm_pool_cancel_alarm+0x54>
10003a4c:	2000      	movs	r0, #0
10003a4e:	e7c6      	b.n	100039de <alarm_pool_cancel_alarm+0x62>
10003a50:	1000aac8 	.word	0x1000aac8
10003a54:	1000ad90 	.word	0x1000ad90
10003a58:	1000aae4 	.word	0x1000aae4
10003a5c:	1000ac60 	.word	0x1000ac60
10003a60:	1000acd8 	.word	0x1000acd8
10003a64:	1000aa50 	.word	0x1000aa50
10003a68:	1000aaa4 	.word	0x1000aaa4
10003a6c:	1000ad48 	.word	0x1000ad48
10003a70:	1000ac84 	.word	0x1000ac84

10003a74 <sleep_until>:
10003a74:	b5f0      	push	{r4, r5, r6, r7, lr}
10003a76:	b087      	sub	sp, #28
10003a78:	0006      	movs	r6, r0
10003a7a:	000f      	movs	r7, r1
10003a7c:	f3ef 8305 	mrs	r3, IPSR
10003a80:	2b00      	cmp	r3, #0
10003a82:	d11f      	bne.n	10003ac4 <sleep_until+0x50>
10003a84:	2406      	movs	r4, #6
10003a86:	4264      	negs	r4, r4
10003a88:	17e5      	asrs	r5, r4, #31
10003a8a:	19a4      	adds	r4, r4, r6
10003a8c:	417d      	adcs	r5, r7
10003a8e:	428d      	cmp	r5, r1
10003a90:	d802      	bhi.n	10003a98 <sleep_until+0x24>
10003a92:	d103      	bne.n	10003a9c <sleep_until+0x28>
10003a94:	4284      	cmp	r4, r0
10003a96:	d901      	bls.n	10003a9c <sleep_until+0x28>
10003a98:	2400      	movs	r4, #0
10003a9a:	2500      	movs	r5, #0
10003a9c:	2d00      	cmp	r5, #0
10003a9e:	db14      	blt.n	10003aca <sleep_until+0x56>
10003aa0:	9404      	str	r4, [sp, #16]
10003aa2:	9505      	str	r5, [sp, #20]
10003aa4:	f000 f93a 	bl	10003d1c <time_us_64>
10003aa8:	0002      	movs	r2, r0
10003aaa:	1e0b      	subs	r3, r1, #0
10003aac:	db13      	blt.n	10003ad6 <sleep_until+0x62>
10003aae:	1aa4      	subs	r4, r4, r2
10003ab0:	419d      	sbcs	r5, r3
10003ab2:	2d00      	cmp	r5, #0
10003ab4:	dc17      	bgt.n	10003ae6 <sleep_until+0x72>
10003ab6:	d014      	beq.n	10003ae2 <sleep_until+0x6e>
10003ab8:	0030      	movs	r0, r6
10003aba:	0039      	movs	r1, r7
10003abc:	f000 f93a 	bl	10003d34 <busy_wait_until>
10003ac0:	b007      	add	sp, #28
10003ac2:	bdf0      	pop	{r4, r5, r6, r7, pc}
10003ac4:	4823      	ldr	r0, [pc, #140]	; (10003b54 <sleep_until+0xe0>)
10003ac6:	f000 fe97 	bl	100047f8 <panic>
10003aca:	4b23      	ldr	r3, [pc, #140]	; (10003b58 <sleep_until+0xe4>)
10003acc:	4a23      	ldr	r2, [pc, #140]	; (10003b5c <sleep_until+0xe8>)
10003ace:	213f      	movs	r1, #63	; 0x3f
10003ad0:	4823      	ldr	r0, [pc, #140]	; (10003b60 <sleep_until+0xec>)
10003ad2:	f000 fdf7 	bl	100046c4 <__assert_func>
10003ad6:	4b20      	ldr	r3, [pc, #128]	; (10003b58 <sleep_until+0xe4>)
10003ad8:	4a20      	ldr	r2, [pc, #128]	; (10003b5c <sleep_until+0xe8>)
10003ada:	213f      	movs	r1, #63	; 0x3f
10003adc:	4820      	ldr	r0, [pc, #128]	; (10003b60 <sleep_until+0xec>)
10003ade:	f000 fdf1 	bl	100046c4 <__assert_func>
10003ae2:	2c00      	cmp	r4, #0
10003ae4:	d0e8      	beq.n	10003ab8 <sleep_until+0x44>
10003ae6:	f7ff fe7f 	bl	100037e8 <alarm_pool_get_default>
10003aea:	2300      	movs	r3, #0
10003aec:	9302      	str	r3, [sp, #8]
10003aee:	9301      	str	r3, [sp, #4]
10003af0:	4b1c      	ldr	r3, [pc, #112]	; (10003b64 <sleep_until+0xf0>)
10003af2:	9300      	str	r3, [sp, #0]
10003af4:	9a04      	ldr	r2, [sp, #16]
10003af6:	9b05      	ldr	r3, [sp, #20]
10003af8:	f7ff fe8c 	bl	10003814 <alarm_pool_add_alarm_at>
10003afc:	2800      	cmp	r0, #0
10003afe:	da18      	bge.n	10003b32 <sleep_until+0xbe>
10003b00:	e7da      	b.n	10003ab8 <sleep_until+0x44>
10003b02:	2300      	movs	r3, #0
10003b04:	e000      	b.n	10003b08 <sleep_until+0x94>
10003b06:	2300      	movs	r3, #0
10003b08:	2b00      	cmp	r3, #0
10003b0a:	d1d5      	bne.n	10003ab8 <sleep_until+0x44>
10003b0c:	4b16      	ldr	r3, [pc, #88]	; (10003b68 <sleep_until+0xf4>)
10003b0e:	681a      	ldr	r2, [r3, #0]
10003b10:	f3ef 8110 	mrs	r1, PRIMASK
10003b14:	b672      	cpsid	i
10003b16:	6813      	ldr	r3, [r2, #0]
10003b18:	2b00      	cmp	r3, #0
10003b1a:	d0fc      	beq.n	10003b16 <sleep_until+0xa2>
10003b1c:	f3bf 8f5f 	dmb	sy
10003b20:	4b11      	ldr	r3, [pc, #68]	; (10003b68 <sleep_until+0xf4>)
10003b22:	681b      	ldr	r3, [r3, #0]
10003b24:	f3bf 8f5f 	dmb	sy
10003b28:	2200      	movs	r2, #0
10003b2a:	601a      	str	r2, [r3, #0]
10003b2c:	f381 8810 	msr	PRIMASK, r1
10003b30:	bf20      	wfe
10003b32:	9904      	ldr	r1, [sp, #16]
10003b34:	9a05      	ldr	r2, [sp, #20]
10003b36:	4b0d      	ldr	r3, [pc, #52]	; (10003b6c <sleep_until+0xf8>)
10003b38:	6a5b      	ldr	r3, [r3, #36]	; 0x24
10003b3a:	429a      	cmp	r2, r3
10003b3c:	d8e3      	bhi.n	10003b06 <sleep_until+0x92>
10003b3e:	480b      	ldr	r0, [pc, #44]	; (10003b6c <sleep_until+0xf8>)
10003b40:	6a80      	ldr	r0, [r0, #40]	; 0x28
10003b42:	4288      	cmp	r0, r1
10003b44:	d203      	bcs.n	10003b4e <sleep_until+0xda>
10003b46:	429a      	cmp	r2, r3
10003b48:	d0db      	beq.n	10003b02 <sleep_until+0x8e>
10003b4a:	2301      	movs	r3, #1
10003b4c:	e7dc      	b.n	10003b08 <sleep_until+0x94>
10003b4e:	2301      	movs	r3, #1
10003b50:	e7da      	b.n	10003b08 <sleep_until+0x94>
10003b52:	46c0      	nop			; (mov r8, r8)
10003b54:	1000ac88 	.word	0x1000ac88
10003b58:	1000a948 	.word	0x1000a948
10003b5c:	1000acf0 	.word	0x1000acf0
10003b60:	1000a964 	.word	0x1000a964
10003b64:	10003169 	.word	0x10003169
10003b68:	20002700 	.word	0x20002700
10003b6c:	40054000 	.word	0x40054000

10003b70 <sleep_us>:
10003b70:	b570      	push	{r4, r5, r6, lr}
10003b72:	0004      	movs	r4, r0
10003b74:	000d      	movs	r5, r1
10003b76:	f000 f8d1 	bl	10003d1c <time_us_64>
10003b7a:	0002      	movs	r2, r0
10003b7c:	1e0b      	subs	r3, r1, #0
10003b7e:	db0a      	blt.n	10003b96 <sleep_us+0x26>
10003b80:	0020      	movs	r0, r4
10003b82:	0029      	movs	r1, r5
10003b84:	1880      	adds	r0, r0, r2
10003b86:	4159      	adcs	r1, r3
10003b88:	2900      	cmp	r1, #0
10003b8a:	db0a      	blt.n	10003ba2 <sleep_us+0x32>
10003b8c:	2900      	cmp	r1, #0
10003b8e:	db0c      	blt.n	10003baa <sleep_us+0x3a>
10003b90:	f7ff ff70 	bl	10003a74 <sleep_until>
10003b94:	bd70      	pop	{r4, r5, r6, pc}
10003b96:	4b08      	ldr	r3, [pc, #32]	; (10003bb8 <sleep_us+0x48>)
10003b98:	4a08      	ldr	r2, [pc, #32]	; (10003bbc <sleep_us+0x4c>)
10003b9a:	213f      	movs	r1, #63	; 0x3f
10003b9c:	4808      	ldr	r0, [pc, #32]	; (10003bc0 <sleep_us+0x50>)
10003b9e:	f000 fd91 	bl	100046c4 <__assert_func>
10003ba2:	2001      	movs	r0, #1
10003ba4:	4240      	negs	r0, r0
10003ba6:	4907      	ldr	r1, [pc, #28]	; (10003bc4 <sleep_us+0x54>)
10003ba8:	e7f0      	b.n	10003b8c <sleep_us+0x1c>
10003baa:	4b03      	ldr	r3, [pc, #12]	; (10003bb8 <sleep_us+0x48>)
10003bac:	4a03      	ldr	r2, [pc, #12]	; (10003bbc <sleep_us+0x4c>)
10003bae:	213f      	movs	r1, #63	; 0x3f
10003bb0:	4803      	ldr	r0, [pc, #12]	; (10003bc0 <sleep_us+0x50>)
10003bb2:	f000 fd87 	bl	100046c4 <__assert_func>
10003bb6:	46c0      	nop			; (mov r8, r8)
10003bb8:	1000a948 	.word	0x1000a948
10003bbc:	1000acf0 	.word	0x1000acf0
10003bc0:	1000a964 	.word	0x1000a964
10003bc4:	7fffffff 	.word	0x7fffffff

10003bc8 <best_effort_wfe_or_timeout>:
10003bc8:	b570      	push	{r4, r5, r6, lr}
10003bca:	b084      	sub	sp, #16
10003bcc:	0005      	movs	r5, r0
10003bce:	000c      	movs	r4, r1
10003bd0:	f3ef 8305 	mrs	r3, IPSR
10003bd4:	2b00      	cmp	r3, #0
10003bd6:	d11e      	bne.n	10003c16 <best_effort_wfe_or_timeout+0x4e>
10003bd8:	f7ff fe06 	bl	100037e8 <alarm_pool_get_default>
10003bdc:	2300      	movs	r3, #0
10003bde:	9302      	str	r3, [sp, #8]
10003be0:	9301      	str	r3, [sp, #4]
10003be2:	4b22      	ldr	r3, [pc, #136]	; (10003c6c <best_effort_wfe_or_timeout+0xa4>)
10003be4:	9300      	str	r3, [sp, #0]
10003be6:	002a      	movs	r2, r5
10003be8:	0023      	movs	r3, r4
10003bea:	f7ff fe13 	bl	10003814 <alarm_pool_add_alarm_at>
10003bee:	1e06      	subs	r6, r0, #0
10003bf0:	dd23      	ble.n	10003c3a <best_effort_wfe_or_timeout+0x72>
10003bf2:	bf20      	wfe
10003bf4:	f7ff fdf8 	bl	100037e8 <alarm_pool_get_default>
10003bf8:	0031      	movs	r1, r6
10003bfa:	f7ff febf 	bl	1000397c <alarm_pool_cancel_alarm>
10003bfe:	4b1c      	ldr	r3, [pc, #112]	; (10003c70 <best_effort_wfe_or_timeout+0xa8>)
10003c00:	6a5b      	ldr	r3, [r3, #36]	; 0x24
10003c02:	429c      	cmp	r4, r3
10003c04:	d82d      	bhi.n	10003c62 <best_effort_wfe_or_timeout+0x9a>
10003c06:	4a1a      	ldr	r2, [pc, #104]	; (10003c70 <best_effort_wfe_or_timeout+0xa8>)
10003c08:	6a92      	ldr	r2, [r2, #40]	; 0x28
10003c0a:	42aa      	cmp	r2, r5
10003c0c:	d22c      	bcs.n	10003c68 <best_effort_wfe_or_timeout+0xa0>
10003c0e:	429c      	cmp	r4, r3
10003c10:	d025      	beq.n	10003c5e <best_effort_wfe_or_timeout+0x96>
10003c12:	2001      	movs	r0, #1
10003c14:	e026      	b.n	10003c64 <best_effort_wfe_or_timeout+0x9c>
10003c16:	4b16      	ldr	r3, [pc, #88]	; (10003c70 <best_effort_wfe_or_timeout+0xa8>)
10003c18:	6a5b      	ldr	r3, [r3, #36]	; 0x24
10003c1a:	4299      	cmp	r1, r3
10003c1c:	d809      	bhi.n	10003c32 <best_effort_wfe_or_timeout+0x6a>
10003c1e:	4a14      	ldr	r2, [pc, #80]	; (10003c70 <best_effort_wfe_or_timeout+0xa8>)
10003c20:	6a92      	ldr	r2, [r2, #40]	; 0x28
10003c22:	4282      	cmp	r2, r0
10003c24:	d207      	bcs.n	10003c36 <best_effort_wfe_or_timeout+0x6e>
10003c26:	4299      	cmp	r1, r3
10003c28:	d001      	beq.n	10003c2e <best_effort_wfe_or_timeout+0x66>
10003c2a:	2001      	movs	r0, #1
10003c2c:	e01a      	b.n	10003c64 <best_effort_wfe_or_timeout+0x9c>
10003c2e:	2000      	movs	r0, #0
10003c30:	e018      	b.n	10003c64 <best_effort_wfe_or_timeout+0x9c>
10003c32:	2000      	movs	r0, #0
10003c34:	e016      	b.n	10003c64 <best_effort_wfe_or_timeout+0x9c>
10003c36:	2001      	movs	r0, #1
10003c38:	e014      	b.n	10003c64 <best_effort_wfe_or_timeout+0x9c>
10003c3a:	4b0d      	ldr	r3, [pc, #52]	; (10003c70 <best_effort_wfe_or_timeout+0xa8>)
10003c3c:	6a5b      	ldr	r3, [r3, #36]	; 0x24
10003c3e:	429c      	cmp	r4, r3
10003c40:	d809      	bhi.n	10003c56 <best_effort_wfe_or_timeout+0x8e>
10003c42:	4a0b      	ldr	r2, [pc, #44]	; (10003c70 <best_effort_wfe_or_timeout+0xa8>)
10003c44:	6a92      	ldr	r2, [r2, #40]	; 0x28
10003c46:	42aa      	cmp	r2, r5
10003c48:	d207      	bcs.n	10003c5a <best_effort_wfe_or_timeout+0x92>
10003c4a:	429c      	cmp	r4, r3
10003c4c:	d001      	beq.n	10003c52 <best_effort_wfe_or_timeout+0x8a>
10003c4e:	2001      	movs	r0, #1
10003c50:	e008      	b.n	10003c64 <best_effort_wfe_or_timeout+0x9c>
10003c52:	2000      	movs	r0, #0
10003c54:	e006      	b.n	10003c64 <best_effort_wfe_or_timeout+0x9c>
10003c56:	2000      	movs	r0, #0
10003c58:	e004      	b.n	10003c64 <best_effort_wfe_or_timeout+0x9c>
10003c5a:	2001      	movs	r0, #1
10003c5c:	e002      	b.n	10003c64 <best_effort_wfe_or_timeout+0x9c>
10003c5e:	2000      	movs	r0, #0
10003c60:	e000      	b.n	10003c64 <best_effort_wfe_or_timeout+0x9c>
10003c62:	2000      	movs	r0, #0
10003c64:	b004      	add	sp, #16
10003c66:	bd70      	pop	{r4, r5, r6, pc}
10003c68:	2001      	movs	r0, #1
10003c6a:	e7fb      	b.n	10003c64 <best_effort_wfe_or_timeout+0x9c>
10003c6c:	10003169 	.word	0x10003169
10003c70:	40054000 	.word	0x40054000

10003c74 <hardware_alarm_irq_handler>:
10003c74:	b570      	push	{r4, r5, r6, lr}
10003c76:	f3ef 8005 	mrs	r0, IPSR
10003c7a:	3810      	subs	r0, #16
10003c7c:	f3ef 8c10 	mrs	ip, PRIMASK
10003c80:	b672      	cpsid	i
10003c82:	4b1a      	ldr	r3, [pc, #104]	; (10003cec <hardware_alarm_irq_handler+0x78>)
10003c84:	681b      	ldr	r3, [r3, #0]
10003c86:	2b00      	cmp	r3, #0
10003c88:	d0fb      	beq.n	10003c82 <hardware_alarm_irq_handler+0xe>
10003c8a:	f3bf 8f5f 	dmb	sy
10003c8e:	2201      	movs	r2, #1
10003c90:	0013      	movs	r3, r2
10003c92:	4083      	lsls	r3, r0
10003c94:	4916      	ldr	r1, [pc, #88]	; (10003cf0 <hardware_alarm_irq_handler+0x7c>)
10003c96:	634b      	str	r3, [r1, #52]	; 0x34
10003c98:	4916      	ldr	r1, [pc, #88]	; (10003cf4 <hardware_alarm_irq_handler+0x80>)
10003c9a:	600b      	str	r3, [r1, #0]
10003c9c:	4916      	ldr	r1, [pc, #88]	; (10003cf8 <hardware_alarm_irq_handler+0x84>)
10003c9e:	7809      	ldrb	r1, [r1, #0]
10003ca0:	000c      	movs	r4, r1
10003ca2:	40c4      	lsrs	r4, r0
10003ca4:	4222      	tst	r2, r4
10003ca6:	d014      	beq.n	10003cd2 <hardware_alarm_irq_handler+0x5e>
10003ca8:	4a11      	ldr	r2, [pc, #68]	; (10003cf0 <hardware_alarm_irq_handler+0x7c>)
10003caa:	6a54      	ldr	r4, [r2, #36]	; 0x24
10003cac:	0082      	lsls	r2, r0, #2
10003cae:	4d13      	ldr	r5, [pc, #76]	; (10003cfc <hardware_alarm_irq_handler+0x88>)
10003cb0:	5952      	ldr	r2, [r2, r5]
10003cb2:	4294      	cmp	r4, r2
10003cb4:	d306      	bcc.n	10003cc4 <hardware_alarm_irq_handler+0x50>
10003cb6:	0082      	lsls	r2, r0, #2
10003cb8:	4c11      	ldr	r4, [pc, #68]	; (10003d00 <hardware_alarm_irq_handler+0x8c>)
10003cba:	5912      	ldr	r2, [r2, r4]
10003cbc:	4399      	bics	r1, r3
10003cbe:	4b0e      	ldr	r3, [pc, #56]	; (10003cf8 <hardware_alarm_irq_handler+0x84>)
10003cc0:	7019      	strb	r1, [r3, #0]
10003cc2:	e007      	b.n	10003cd4 <hardware_alarm_irq_handler+0x60>
10003cc4:	4a0a      	ldr	r2, [pc, #40]	; (10003cf0 <hardware_alarm_irq_handler+0x7c>)
10003cc6:	1d03      	adds	r3, r0, #4
10003cc8:	009b      	lsls	r3, r3, #2
10003cca:	5899      	ldr	r1, [r3, r2]
10003ccc:	5099      	str	r1, [r3, r2]
10003cce:	2200      	movs	r2, #0
10003cd0:	e000      	b.n	10003cd4 <hardware_alarm_irq_handler+0x60>
10003cd2:	2200      	movs	r2, #0
10003cd4:	f3bf 8f5f 	dmb	sy
10003cd8:	4b04      	ldr	r3, [pc, #16]	; (10003cec <hardware_alarm_irq_handler+0x78>)
10003cda:	2100      	movs	r1, #0
10003cdc:	6019      	str	r1, [r3, #0]
10003cde:	f38c 8810 	msr	PRIMASK, ip
10003ce2:	2a00      	cmp	r2, #0
10003ce4:	d000      	beq.n	10003ce8 <hardware_alarm_irq_handler+0x74>
10003ce6:	4790      	blx	r2
10003ce8:	bd70      	pop	{r4, r5, r6, pc}
10003cea:	46c0      	nop			; (mov r8, r8)
10003cec:	d0000128 	.word	0xd0000128
10003cf0:	40054000 	.word	0x40054000
10003cf4:	4005703c 	.word	0x4005703c
10003cf8:	2000273b 	.word	0x2000273b
10003cfc:	20002718 	.word	0x20002718
10003d00:	20001ec4 	.word	0x20001ec4

10003d04 <hardware_alarm_claim>:
10003d04:	b510      	push	{r4, lr}
10003d06:	0001      	movs	r1, r0
10003d08:	4a02      	ldr	r2, [pc, #8]	; (10003d14 <hardware_alarm_claim+0x10>)
10003d0a:	4803      	ldr	r0, [pc, #12]	; (10003d18 <hardware_alarm_claim+0x14>)
10003d0c:	f7fe fe40 	bl	10002990 <hw_claim_or_assert>
10003d10:	bd10      	pop	{r4, pc}
10003d12:	46c0      	nop			; (mov r8, r8)
10003d14:	1000adb4 	.word	0x1000adb4
10003d18:	20002738 	.word	0x20002738

10003d1c <time_us_64>:
10003d1c:	4b04      	ldr	r3, [pc, #16]	; (10003d30 <time_us_64+0x14>)
10003d1e:	6a5b      	ldr	r3, [r3, #36]	; 0x24
10003d20:	4a03      	ldr	r2, [pc, #12]	; (10003d30 <time_us_64+0x14>)
10003d22:	6a90      	ldr	r0, [r2, #40]	; 0x28
10003d24:	0019      	movs	r1, r3
10003d26:	6a53      	ldr	r3, [r2, #36]	; 0x24
10003d28:	4299      	cmp	r1, r3
10003d2a:	d1f9      	bne.n	10003d20 <time_us_64+0x4>
10003d2c:	4770      	bx	lr
10003d2e:	46c0      	nop			; (mov r8, r8)
10003d30:	40054000 	.word	0x40054000

10003d34 <busy_wait_until>:
10003d34:	4b08      	ldr	r3, [pc, #32]	; (10003d58 <busy_wait_until+0x24>)
10003d36:	6a5b      	ldr	r3, [r3, #36]	; 0x24
10003d38:	e001      	b.n	10003d3e <busy_wait_until+0xa>
10003d3a:	4b07      	ldr	r3, [pc, #28]	; (10003d58 <busy_wait_until+0x24>)
10003d3c:	6a5b      	ldr	r3, [r3, #36]	; 0x24
10003d3e:	428b      	cmp	r3, r1
10003d40:	d3fb      	bcc.n	10003d3a <busy_wait_until+0x6>
10003d42:	e001      	b.n	10003d48 <busy_wait_until+0x14>
10003d44:	4b04      	ldr	r3, [pc, #16]	; (10003d58 <busy_wait_until+0x24>)
10003d46:	6a5b      	ldr	r3, [r3, #36]	; 0x24
10003d48:	428b      	cmp	r3, r1
10003d4a:	d103      	bne.n	10003d54 <busy_wait_until+0x20>
10003d4c:	4b02      	ldr	r3, [pc, #8]	; (10003d58 <busy_wait_until+0x24>)
10003d4e:	6a9b      	ldr	r3, [r3, #40]	; 0x28
10003d50:	4283      	cmp	r3, r0
10003d52:	d3f7      	bcc.n	10003d44 <busy_wait_until+0x10>
10003d54:	4770      	bx	lr
10003d56:	46c0      	nop			; (mov r8, r8)
10003d58:	40054000 	.word	0x40054000

10003d5c <hardware_alarm_set_callback>:
10003d5c:	b570      	push	{r4, r5, r6, lr}
10003d5e:	0004      	movs	r4, r0
10003d60:	000d      	movs	r5, r1
10003d62:	f3ef 8610 	mrs	r6, PRIMASK
10003d66:	b672      	cpsid	i
10003d68:	4b1b      	ldr	r3, [pc, #108]	; (10003dd8 <hardware_alarm_set_callback+0x7c>)
10003d6a:	681b      	ldr	r3, [r3, #0]
10003d6c:	2b00      	cmp	r3, #0
10003d6e:	d0fb      	beq.n	10003d68 <hardware_alarm_set_callback+0xc>
10003d70:	f3bf 8f5f 	dmb	sy
10003d74:	2d00      	cmp	r5, #0
10003d76:	d01c      	beq.n	10003db2 <hardware_alarm_set_callback+0x56>
10003d78:	0020      	movs	r0, r4
10003d7a:	f7fe fef5 	bl	10002b68 <irq_get_vtable_handler>
10003d7e:	4b17      	ldr	r3, [pc, #92]	; (10003ddc <hardware_alarm_set_callback+0x80>)
10003d80:	4283      	cmp	r3, r0
10003d82:	d00b      	beq.n	10003d9c <hardware_alarm_set_callback+0x40>
10003d84:	0019      	movs	r1, r3
10003d86:	0020      	movs	r0, r4
10003d88:	f7fe fef6 	bl	10002b78 <irq_set_exclusive_handler>
10003d8c:	2101      	movs	r1, #1
10003d8e:	0020      	movs	r0, r4
10003d90:	f7fe fee2 	bl	10002b58 <irq_set_enabled>
10003d94:	2301      	movs	r3, #1
10003d96:	40a3      	lsls	r3, r4
10003d98:	4a11      	ldr	r2, [pc, #68]	; (10003de0 <hardware_alarm_set_callback+0x84>)
10003d9a:	6013      	str	r3, [r2, #0]
10003d9c:	00a4      	lsls	r4, r4, #2
10003d9e:	4b11      	ldr	r3, [pc, #68]	; (10003de4 <hardware_alarm_set_callback+0x88>)
10003da0:	50e5      	str	r5, [r4, r3]
10003da2:	f3bf 8f5f 	dmb	sy
10003da6:	4b0c      	ldr	r3, [pc, #48]	; (10003dd8 <hardware_alarm_set_callback+0x7c>)
10003da8:	2200      	movs	r2, #0
10003daa:	601a      	str	r2, [r3, #0]
10003dac:	f386 8810 	msr	PRIMASK, r6
10003db0:	bd70      	pop	{r4, r5, r6, pc}
10003db2:	00a2      	lsls	r2, r4, #2
10003db4:	4b0b      	ldr	r3, [pc, #44]	; (10003de4 <hardware_alarm_set_callback+0x88>)
10003db6:	2100      	movs	r1, #0
10003db8:	50d1      	str	r1, [r2, r3]
10003dba:	2201      	movs	r2, #1
10003dbc:	40a2      	lsls	r2, r4
10003dbe:	490a      	ldr	r1, [pc, #40]	; (10003de8 <hardware_alarm_set_callback+0x8c>)
10003dc0:	780b      	ldrb	r3, [r1, #0]
10003dc2:	4393      	bics	r3, r2
10003dc4:	700b      	strb	r3, [r1, #0]
10003dc6:	4905      	ldr	r1, [pc, #20]	; (10003ddc <hardware_alarm_set_callback+0x80>)
10003dc8:	0020      	movs	r0, r4
10003dca:	f7ff f819 	bl	10002e00 <irq_remove_handler>
10003dce:	2100      	movs	r1, #0
10003dd0:	0020      	movs	r0, r4
10003dd2:	f7fe fec1 	bl	10002b58 <irq_set_enabled>
10003dd6:	e7e4      	b.n	10003da2 <hardware_alarm_set_callback+0x46>
10003dd8:	d0000128 	.word	0xd0000128
10003ddc:	10003c75 	.word	0x10003c75
10003de0:	40056038 	.word	0x40056038
10003de4:	20001ec4 	.word	0x20001ec4
10003de8:	2000273b 	.word	0x2000273b

10003dec <hardware_alarm_set_target>:
10003dec:	b5f0      	push	{r4, r5, r6, r7, lr}
10003dee:	46de      	mov	lr, fp
10003df0:	b500      	push	{lr}
10003df2:	b084      	sub	sp, #16
10003df4:	0004      	movs	r4, r0
10003df6:	0015      	movs	r5, r2
10003df8:	9201      	str	r2, [sp, #4]
10003dfa:	001e      	movs	r6, r3
10003dfc:	9302      	str	r3, [sp, #8]
10003dfe:	f7ff ff8d 	bl	10003d1c <time_us_64>
10003e02:	9503      	str	r5, [sp, #12]
10003e04:	428e      	cmp	r6, r1
10003e06:	d802      	bhi.n	10003e0e <hardware_alarm_set_target+0x22>
10003e08:	d14e      	bne.n	10003ea8 <hardware_alarm_set_target+0xbc>
10003e0a:	4285      	cmp	r5, r0
10003e0c:	d94c      	bls.n	10003ea8 <hardware_alarm_set_target+0xbc>
10003e0e:	f3ef 8b10 	mrs	fp, PRIMASK
10003e12:	b672      	cpsid	i
10003e14:	4b27      	ldr	r3, [pc, #156]	; (10003eb4 <hardware_alarm_set_target+0xc8>)
10003e16:	681b      	ldr	r3, [r3, #0]
10003e18:	2b00      	cmp	r3, #0
10003e1a:	d0fb      	beq.n	10003e14 <hardware_alarm_set_target+0x28>
10003e1c:	f3bf 8f5f 	dmb	sy
10003e20:	4a25      	ldr	r2, [pc, #148]	; (10003eb8 <hardware_alarm_set_target+0xcc>)
10003e22:	7817      	ldrb	r7, [r2, #0]
10003e24:	2501      	movs	r5, #1
10003e26:	40a5      	lsls	r5, r4
10003e28:	b2eb      	uxtb	r3, r5
10003e2a:	433b      	orrs	r3, r7
10003e2c:	7013      	strb	r3, [r2, #0]
10003e2e:	4b23      	ldr	r3, [pc, #140]	; (10003ebc <hardware_alarm_set_target+0xd0>)
10003e30:	635d      	str	r5, [r3, #52]	; 0x34
10003e32:	1d22      	adds	r2, r4, #4
10003e34:	0092      	lsls	r2, r2, #2
10003e36:	9901      	ldr	r1, [sp, #4]
10003e38:	50d1      	str	r1, [r2, r3]
10003e3a:	00a2      	lsls	r2, r4, #2
10003e3c:	4920      	ldr	r1, [pc, #128]	; (10003ec0 <hardware_alarm_set_target+0xd4>)
10003e3e:	9802      	ldr	r0, [sp, #8]
10003e40:	5050      	str	r0, [r2, r1]
10003e42:	6a1b      	ldr	r3, [r3, #32]
10003e44:	422b      	tst	r3, r5
10003e46:	d112      	bne.n	10003e6e <hardware_alarm_set_target+0x82>
10003e48:	4b1c      	ldr	r3, [pc, #112]	; (10003ebc <hardware_alarm_set_target+0xd0>)
10003e4a:	6c1b      	ldr	r3, [r3, #64]	; 0x40
10003e4c:	422b      	tst	r3, r5
10003e4e:	d008      	beq.n	10003e62 <hardware_alarm_set_target+0x76>
10003e50:	2000      	movs	r0, #0
10003e52:	f3bf 8f5f 	dmb	sy
10003e56:	4b17      	ldr	r3, [pc, #92]	; (10003eb4 <hardware_alarm_set_target+0xc8>)
10003e58:	2200      	movs	r2, #0
10003e5a:	601a      	str	r2, [r3, #0]
10003e5c:	f38b 8810 	msr	PRIMASK, fp
10003e60:	e023      	b.n	10003eaa <hardware_alarm_set_target+0xbe>
10003e62:	4b18      	ldr	r3, [pc, #96]	; (10003ec4 <hardware_alarm_set_target+0xd8>)
10003e64:	4a18      	ldr	r2, [pc, #96]	; (10003ec8 <hardware_alarm_set_target+0xdc>)
10003e66:	21c5      	movs	r1, #197	; 0xc5
10003e68:	4818      	ldr	r0, [pc, #96]	; (10003ecc <hardware_alarm_set_target+0xe0>)
10003e6a:	f000 fc2b 	bl	100046c4 <__assert_func>
10003e6e:	f7ff ff55 	bl	10003d1c <time_us_64>
10003e72:	428e      	cmp	r6, r1
10003e74:	d814      	bhi.n	10003ea0 <hardware_alarm_set_target+0xb4>
10003e76:	d102      	bne.n	10003e7e <hardware_alarm_set_target+0x92>
10003e78:	9b03      	ldr	r3, [sp, #12]
10003e7a:	4283      	cmp	r3, r0
10003e7c:	d810      	bhi.n	10003ea0 <hardware_alarm_set_target+0xb4>
10003e7e:	4b0e      	ldr	r3, [pc, #56]	; (10003eb8 <hardware_alarm_set_target+0xcc>)
10003e80:	781b      	ldrb	r3, [r3, #0]
10003e82:	42bb      	cmp	r3, r7
10003e84:	d00e      	beq.n	10003ea4 <hardware_alarm_set_target+0xb8>
10003e86:	4b0d      	ldr	r3, [pc, #52]	; (10003ebc <hardware_alarm_set_target+0xd0>)
10003e88:	621d      	str	r5, [r3, #32]
10003e8a:	635d      	str	r5, [r3, #52]	; 0x34
10003e8c:	201f      	movs	r0, #31
10003e8e:	4004      	ands	r4, r0
10003e90:	2301      	movs	r3, #1
10003e92:	40a3      	lsls	r3, r4
10003e94:	4a0e      	ldr	r2, [pc, #56]	; (10003ed0 <hardware_alarm_set_target+0xe4>)
10003e96:	6013      	str	r3, [r2, #0]
10003e98:	4b07      	ldr	r3, [pc, #28]	; (10003eb8 <hardware_alarm_set_target+0xcc>)
10003e9a:	701f      	strb	r7, [r3, #0]
10003e9c:	381e      	subs	r0, #30
10003e9e:	e7d8      	b.n	10003e52 <hardware_alarm_set_target+0x66>
10003ea0:	2000      	movs	r0, #0
10003ea2:	e7d6      	b.n	10003e52 <hardware_alarm_set_target+0x66>
10003ea4:	2001      	movs	r0, #1
10003ea6:	e7d4      	b.n	10003e52 <hardware_alarm_set_target+0x66>
10003ea8:	2001      	movs	r0, #1
10003eaa:	b004      	add	sp, #16
10003eac:	bc80      	pop	{r7}
10003eae:	46bb      	mov	fp, r7
10003eb0:	bdf0      	pop	{r4, r5, r6, r7, pc}
10003eb2:	46c0      	nop			; (mov r8, r8)
10003eb4:	d0000128 	.word	0xd0000128
10003eb8:	2000273b 	.word	0x2000273b
10003ebc:	40054000 	.word	0x40054000
10003ec0:	20002718 	.word	0x20002718
10003ec4:	1000add8 	.word	0x1000add8
10003ec8:	1000ae5c 	.word	0x1000ae5c
10003ecc:	1000adfc 	.word	0x1000adfc
10003ed0:	e000e280 	.word	0xe000e280

10003ed4 <hardware_alarm_cancel>:
10003ed4:	f3ef 8c10 	mrs	ip, PRIMASK
10003ed8:	b672      	cpsid	i
10003eda:	4b0b      	ldr	r3, [pc, #44]	; (10003f08 <hardware_alarm_cancel+0x34>)
10003edc:	681b      	ldr	r3, [r3, #0]
10003ede:	2b00      	cmp	r3, #0
10003ee0:	d0fb      	beq.n	10003eda <hardware_alarm_cancel+0x6>
10003ee2:	f3bf 8f5f 	dmb	sy
10003ee6:	2301      	movs	r3, #1
10003ee8:	4083      	lsls	r3, r0
10003eea:	4a08      	ldr	r2, [pc, #32]	; (10003f0c <hardware_alarm_cancel+0x38>)
10003eec:	6213      	str	r3, [r2, #32]
10003eee:	4908      	ldr	r1, [pc, #32]	; (10003f10 <hardware_alarm_cancel+0x3c>)
10003ef0:	780a      	ldrb	r2, [r1, #0]
10003ef2:	439a      	bics	r2, r3
10003ef4:	700a      	strb	r2, [r1, #0]
10003ef6:	f3bf 8f5f 	dmb	sy
10003efa:	4b03      	ldr	r3, [pc, #12]	; (10003f08 <hardware_alarm_cancel+0x34>)
10003efc:	2200      	movs	r2, #0
10003efe:	601a      	str	r2, [r3, #0]
10003f00:	f38c 8810 	msr	PRIMASK, ip
10003f04:	4770      	bx	lr
10003f06:	46c0      	nop			; (mov r8, r8)
10003f08:	d0000128 	.word	0xd0000128
10003f0c:	40054000 	.word	0x40054000
10003f10:	2000273b 	.word	0x2000273b

10003f14 <ph_add_child_node>:
10003f14:	b510      	push	{r4, lr}
10003f16:	2900      	cmp	r1, #0
10003f18:	d01e      	beq.n	10003f58 <ph_add_child_node+0x44>
10003f1a:	7b03      	ldrb	r3, [r0, #12]
10003f1c:	4299      	cmp	r1, r3
10003f1e:	d81b      	bhi.n	10003f58 <ph_add_child_node+0x44>
10003f20:	004b      	lsls	r3, r1, #1
10003f22:	185b      	adds	r3, r3, r1
10003f24:	3b03      	subs	r3, #3
10003f26:	6804      	ldr	r4, [r0, #0]
10003f28:	46a4      	mov	ip, r4
10003f2a:	4463      	add	r3, ip
10003f2c:	2900      	cmp	r1, #0
10003f2e:	d019      	beq.n	10003f64 <ph_add_child_node+0x50>
10003f30:	2a00      	cmp	r2, #0
10003f32:	d01d      	beq.n	10003f70 <ph_add_child_node+0x5c>
10003f34:	4291      	cmp	r1, r2
10003f36:	d021      	beq.n	10003f7c <ph_add_child_node+0x68>
10003f38:	2a00      	cmp	r2, #0
10003f3a:	d025      	beq.n	10003f88 <ph_add_child_node+0x74>
10003f3c:	7b04      	ldrb	r4, [r0, #12]
10003f3e:	42a2      	cmp	r2, r4
10003f40:	d822      	bhi.n	10003f88 <ph_add_child_node+0x74>
10003f42:	6804      	ldr	r4, [r0, #0]
10003f44:	0050      	lsls	r0, r2, #1
10003f46:	1880      	adds	r0, r0, r2
10003f48:	3803      	subs	r0, #3
10003f4a:	1820      	adds	r0, r4, r0
10003f4c:	7081      	strb	r1, [r0, #2]
10003f4e:	7819      	ldrb	r1, [r3, #0]
10003f50:	2900      	cmp	r1, #0
10003f52:	d11f      	bne.n	10003f94 <ph_add_child_node+0x80>
10003f54:	701a      	strb	r2, [r3, #0]
10003f56:	bd10      	pop	{r4, pc}
10003f58:	4b10      	ldr	r3, [pc, #64]	; (10003f9c <ph_add_child_node+0x88>)
10003f5a:	4a11      	ldr	r2, [pc, #68]	; (10003fa0 <ph_add_child_node+0x8c>)
10003f5c:	2168      	movs	r1, #104	; 0x68
10003f5e:	4811      	ldr	r0, [pc, #68]	; (10003fa4 <ph_add_child_node+0x90>)
10003f60:	f000 fbb0 	bl	100046c4 <__assert_func>
10003f64:	4b10      	ldr	r3, [pc, #64]	; (10003fa8 <ph_add_child_node+0x94>)
10003f66:	4a11      	ldr	r2, [pc, #68]	; (10003fac <ph_add_child_node+0x98>)
10003f68:	316f      	adds	r1, #111	; 0x6f
10003f6a:	480e      	ldr	r0, [pc, #56]	; (10003fa4 <ph_add_child_node+0x90>)
10003f6c:	f000 fbaa 	bl	100046c4 <__assert_func>
10003f70:	4b0f      	ldr	r3, [pc, #60]	; (10003fb0 <ph_add_child_node+0x9c>)
10003f72:	4a0e      	ldr	r2, [pc, #56]	; (10003fac <ph_add_child_node+0x98>)
10003f74:	2170      	movs	r1, #112	; 0x70
10003f76:	480b      	ldr	r0, [pc, #44]	; (10003fa4 <ph_add_child_node+0x90>)
10003f78:	f000 fba4 	bl	100046c4 <__assert_func>
10003f7c:	4b0d      	ldr	r3, [pc, #52]	; (10003fb4 <ph_add_child_node+0xa0>)
10003f7e:	4a0b      	ldr	r2, [pc, #44]	; (10003fac <ph_add_child_node+0x98>)
10003f80:	2171      	movs	r1, #113	; 0x71
10003f82:	4808      	ldr	r0, [pc, #32]	; (10003fa4 <ph_add_child_node+0x90>)
10003f84:	f000 fb9e 	bl	100046c4 <__assert_func>
10003f88:	4b04      	ldr	r3, [pc, #16]	; (10003f9c <ph_add_child_node+0x88>)
10003f8a:	4a05      	ldr	r2, [pc, #20]	; (10003fa0 <ph_add_child_node+0x8c>)
10003f8c:	2168      	movs	r1, #104	; 0x68
10003f8e:	4805      	ldr	r0, [pc, #20]	; (10003fa4 <ph_add_child_node+0x90>)
10003f90:	f000 fb98 	bl	100046c4 <__assert_func>
10003f94:	7041      	strb	r1, [r0, #1]
10003f96:	701a      	strb	r2, [r3, #0]
10003f98:	e7dd      	b.n	10003f56 <ph_add_child_node+0x42>
10003f9a:	46c0      	nop			; (mov r8, r8)
10003f9c:	1000aac8 	.word	0x1000aac8
10003fa0:	1000af80 	.word	0x1000af80
10003fa4:	1000aae4 	.word	0x1000aae4
10003fa8:	1000ab4c 	.word	0x1000ab4c
10003fac:	1000af6c 	.word	0x1000af6c
10003fb0:	1000ab58 	.word	0x1000ab58
10003fb4:	1000ab64 	.word	0x1000ab64

10003fb8 <ph_merge_nodes>:
10003fb8:	b570      	push	{r4, r5, r6, lr}
10003fba:	0006      	movs	r6, r0
10003fbc:	000d      	movs	r5, r1
10003fbe:	0014      	movs	r4, r2
10003fc0:	2900      	cmp	r1, #0
10003fc2:	d014      	beq.n	10003fee <ph_merge_nodes+0x36>
10003fc4:	2a00      	cmp	r2, #0
10003fc6:	d014      	beq.n	10003ff2 <ph_merge_nodes+0x3a>
10003fc8:	6880      	ldr	r0, [r0, #8]
10003fca:	6873      	ldr	r3, [r6, #4]
10003fcc:	4798      	blx	r3
10003fce:	2800      	cmp	r0, #0
10003fd0:	d006      	beq.n	10003fe0 <ph_merge_nodes+0x28>
10003fd2:	0022      	movs	r2, r4
10003fd4:	0029      	movs	r1, r5
10003fd6:	0030      	movs	r0, r6
10003fd8:	f7ff ff9c 	bl	10003f14 <ph_add_child_node>
10003fdc:	0028      	movs	r0, r5
10003fde:	e007      	b.n	10003ff0 <ph_merge_nodes+0x38>
10003fe0:	002a      	movs	r2, r5
10003fe2:	0021      	movs	r1, r4
10003fe4:	0030      	movs	r0, r6
10003fe6:	f7ff ff95 	bl	10003f14 <ph_add_child_node>
10003fea:	0020      	movs	r0, r4
10003fec:	e000      	b.n	10003ff0 <ph_merge_nodes+0x38>
10003fee:	0010      	movs	r0, r2
10003ff0:	bd70      	pop	{r4, r5, r6, pc}
10003ff2:	0008      	movs	r0, r1
10003ff4:	e7fc      	b.n	10003ff0 <ph_merge_nodes+0x38>
	...

10003ff8 <ph_clear>:
10003ff8:	b510      	push	{r4, lr}
10003ffa:	2300      	movs	r3, #0
10003ffc:	7343      	strb	r3, [r0, #13]
10003ffe:	3301      	adds	r3, #1
10004000:	7383      	strb	r3, [r0, #14]
10004002:	7b03      	ldrb	r3, [r0, #12]
10004004:	73c3      	strb	r3, [r0, #15]
10004006:	2301      	movs	r3, #1
10004008:	7b02      	ldrb	r2, [r0, #12]
1000400a:	429a      	cmp	r2, r3
1000400c:	d914      	bls.n	10004038 <ph_clear+0x40>
1000400e:	2b00      	cmp	r3, #0
10004010:	d00c      	beq.n	1000402c <ph_clear+0x34>
10004012:	7b02      	ldrb	r2, [r0, #12]
10004014:	4293      	cmp	r3, r2
10004016:	d809      	bhi.n	1000402c <ph_clear+0x34>
10004018:	005a      	lsls	r2, r3, #1
1000401a:	18d2      	adds	r2, r2, r3
1000401c:	3a03      	subs	r2, #3
1000401e:	6801      	ldr	r1, [r0, #0]
10004020:	468c      	mov	ip, r1
10004022:	4462      	add	r2, ip
10004024:	3301      	adds	r3, #1
10004026:	b2db      	uxtb	r3, r3
10004028:	7053      	strb	r3, [r2, #1]
1000402a:	e7ed      	b.n	10004008 <ph_clear+0x10>
1000402c:	4b0b      	ldr	r3, [pc, #44]	; (1000405c <ph_clear+0x64>)
1000402e:	4a0c      	ldr	r2, [pc, #48]	; (10004060 <ph_clear+0x68>)
10004030:	2168      	movs	r1, #104	; 0x68
10004032:	480c      	ldr	r0, [pc, #48]	; (10004064 <ph_clear+0x6c>)
10004034:	f000 fb46 	bl	100046c4 <__assert_func>
10004038:	2a00      	cmp	r2, #0
1000403a:	d009      	beq.n	10004050 <ph_clear+0x58>
1000403c:	4292      	cmp	r2, r2
1000403e:	d807      	bhi.n	10004050 <ph_clear+0x58>
10004040:	6801      	ldr	r1, [r0, #0]
10004042:	0053      	lsls	r3, r2, #1
10004044:	189a      	adds	r2, r3, r2
10004046:	3a03      	subs	r2, #3
10004048:	188a      	adds	r2, r1, r2
1000404a:	2300      	movs	r3, #0
1000404c:	7053      	strb	r3, [r2, #1]
1000404e:	bd10      	pop	{r4, pc}
10004050:	4b02      	ldr	r3, [pc, #8]	; (1000405c <ph_clear+0x64>)
10004052:	4a03      	ldr	r2, [pc, #12]	; (10004060 <ph_clear+0x68>)
10004054:	2168      	movs	r1, #104	; 0x68
10004056:	4803      	ldr	r0, [pc, #12]	; (10004064 <ph_clear+0x6c>)
10004058:	f000 fb34 	bl	100046c4 <__assert_func>
1000405c:	1000aac8 	.word	0x1000aac8
10004060:	1000af80 	.word	0x1000af80
10004064:	1000aae4 	.word	0x1000aae4

10004068 <ph_post_alloc_init>:
10004068:	b510      	push	{r4, lr}
1000406a:	7301      	strb	r1, [r0, #12]
1000406c:	6042      	str	r2, [r0, #4]
1000406e:	6083      	str	r3, [r0, #8]
10004070:	f7ff ffc2 	bl	10003ff8 <ph_clear>
10004074:	bd10      	pop	{r4, pc}
	...

10004078 <ph_merge_two_pass>:
10004078:	b570      	push	{r4, r5, r6, lr}
1000407a:	0004      	movs	r4, r0
1000407c:	1e08      	subs	r0, r1, #0
1000407e:	d100      	bne.n	10004082 <ph_merge_two_pass+0xa>
10004080:	bd70      	pop	{r4, r5, r6, pc}
10004082:	2900      	cmp	r1, #0
10004084:	d034      	beq.n	100040f0 <ph_merge_two_pass+0x78>
10004086:	7b23      	ldrb	r3, [r4, #12]
10004088:	4299      	cmp	r1, r3
1000408a:	d831      	bhi.n	100040f0 <ph_merge_two_pass+0x78>
1000408c:	004b      	lsls	r3, r1, #1
1000408e:	185b      	adds	r3, r3, r1
10004090:	3b03      	subs	r3, #3
10004092:	6822      	ldr	r2, [r4, #0]
10004094:	4694      	mov	ip, r2
10004096:	4463      	add	r3, ip
10004098:	785a      	ldrb	r2, [r3, #1]
1000409a:	2a00      	cmp	r2, #0
1000409c:	d0f0      	beq.n	10004080 <ph_merge_two_pass+0x8>
1000409e:	d02d      	beq.n	100040fc <ph_merge_two_pass+0x84>
100040a0:	7b23      	ldrb	r3, [r4, #12]
100040a2:	429a      	cmp	r2, r3
100040a4:	d82a      	bhi.n	100040fc <ph_merge_two_pass+0x84>
100040a6:	0053      	lsls	r3, r2, #1
100040a8:	189b      	adds	r3, r3, r2
100040aa:	3b03      	subs	r3, #3
100040ac:	6821      	ldr	r1, [r4, #0]
100040ae:	468c      	mov	ip, r1
100040b0:	4463      	add	r3, ip
100040b2:	785d      	ldrb	r5, [r3, #1]
100040b4:	2100      	movs	r1, #0
100040b6:	7059      	strb	r1, [r3, #1]
100040b8:	2800      	cmp	r0, #0
100040ba:	d025      	beq.n	10004108 <ph_merge_two_pass+0x90>
100040bc:	7b23      	ldrb	r3, [r4, #12]
100040be:	4298      	cmp	r0, r3
100040c0:	d822      	bhi.n	10004108 <ph_merge_two_pass+0x90>
100040c2:	0043      	lsls	r3, r0, #1
100040c4:	181b      	adds	r3, r3, r0
100040c6:	3b03      	subs	r3, #3
100040c8:	6821      	ldr	r1, [r4, #0]
100040ca:	468c      	mov	ip, r1
100040cc:	4463      	add	r3, ip
100040ce:	2100      	movs	r1, #0
100040d0:	7059      	strb	r1, [r3, #1]
100040d2:	0001      	movs	r1, r0
100040d4:	0020      	movs	r0, r4
100040d6:	f7ff ff6f 	bl	10003fb8 <ph_merge_nodes>
100040da:	0006      	movs	r6, r0
100040dc:	0029      	movs	r1, r5
100040de:	0020      	movs	r0, r4
100040e0:	f7ff ffca 	bl	10004078 <ph_merge_two_pass>
100040e4:	0002      	movs	r2, r0
100040e6:	0031      	movs	r1, r6
100040e8:	0020      	movs	r0, r4
100040ea:	f7ff ff65 	bl	10003fb8 <ph_merge_nodes>
100040ee:	e7c7      	b.n	10004080 <ph_merge_two_pass+0x8>
100040f0:	4b08      	ldr	r3, [pc, #32]	; (10004114 <ph_merge_two_pass+0x9c>)
100040f2:	4a09      	ldr	r2, [pc, #36]	; (10004118 <ph_merge_two_pass+0xa0>)
100040f4:	2168      	movs	r1, #104	; 0x68
100040f6:	4809      	ldr	r0, [pc, #36]	; (1000411c <ph_merge_two_pass+0xa4>)
100040f8:	f000 fae4 	bl	100046c4 <__assert_func>
100040fc:	4b05      	ldr	r3, [pc, #20]	; (10004114 <ph_merge_two_pass+0x9c>)
100040fe:	4a06      	ldr	r2, [pc, #24]	; (10004118 <ph_merge_two_pass+0xa0>)
10004100:	2168      	movs	r1, #104	; 0x68
10004102:	4806      	ldr	r0, [pc, #24]	; (1000411c <ph_merge_two_pass+0xa4>)
10004104:	f000 fade 	bl	100046c4 <__assert_func>
10004108:	4b02      	ldr	r3, [pc, #8]	; (10004114 <ph_merge_two_pass+0x9c>)
1000410a:	4a03      	ldr	r2, [pc, #12]	; (10004118 <ph_merge_two_pass+0xa0>)
1000410c:	2168      	movs	r1, #104	; 0x68
1000410e:	4803      	ldr	r0, [pc, #12]	; (1000411c <ph_merge_two_pass+0xa4>)
10004110:	f000 fad8 	bl	100046c4 <__assert_func>
10004114:	1000aac8 	.word	0x1000aac8
10004118:	1000af80 	.word	0x1000af80
1000411c:	1000aae4 	.word	0x1000aae4

10004120 <ph_remove_any_head>:
10004120:	b570      	push	{r4, r5, r6, lr}
10004122:	0005      	movs	r5, r0
10004124:	000c      	movs	r4, r1
10004126:	0016      	movs	r6, r2
10004128:	2900      	cmp	r1, #0
1000412a:	d02f      	beq.n	1000418c <ph_remove_any_head+0x6c>
1000412c:	d034      	beq.n	10004198 <ph_remove_any_head+0x78>
1000412e:	7b03      	ldrb	r3, [r0, #12]
10004130:	4299      	cmp	r1, r3
10004132:	d831      	bhi.n	10004198 <ph_remove_any_head+0x78>
10004134:	004b      	lsls	r3, r1, #1
10004136:	185b      	adds	r3, r3, r1
10004138:	3b03      	subs	r3, #3
1000413a:	6802      	ldr	r2, [r0, #0]
1000413c:	4694      	mov	ip, r2
1000413e:	4463      	add	r3, ip
10004140:	785a      	ldrb	r2, [r3, #1]
10004142:	2a00      	cmp	r2, #0
10004144:	d12e      	bne.n	100041a4 <ph_remove_any_head+0x84>
10004146:	789a      	ldrb	r2, [r3, #2]
10004148:	2a00      	cmp	r2, #0
1000414a:	d131      	bne.n	100041b0 <ph_remove_any_head+0x90>
1000414c:	7819      	ldrb	r1, [r3, #0]
1000414e:	f7ff ff93 	bl	10004078 <ph_merge_two_pass>
10004152:	0003      	movs	r3, r0
10004154:	2e00      	cmp	r6, #0
10004156:	d00a      	beq.n	1000416e <ph_remove_any_head+0x4e>
10004158:	7bea      	ldrb	r2, [r5, #15]
1000415a:	2a00      	cmp	r2, #0
1000415c:	d12e      	bne.n	100041bc <ph_remove_any_head+0x9c>
1000415e:	7baa      	ldrb	r2, [r5, #14]
10004160:	2a00      	cmp	r2, #0
10004162:	d103      	bne.n	1000416c <ph_remove_any_head+0x4c>
10004164:	7bea      	ldrb	r2, [r5, #15]
10004166:	2a00      	cmp	r2, #0
10004168:	d13b      	bne.n	100041e2 <ph_remove_any_head+0xc2>
1000416a:	73ac      	strb	r4, [r5, #14]
1000416c:	73ec      	strb	r4, [r5, #15]
1000416e:	2b00      	cmp	r3, #0
10004170:	d13d      	bne.n	100041ee <ph_remove_any_head+0xce>
10004172:	2c00      	cmp	r4, #0
10004174:	d04f      	beq.n	10004216 <ph_remove_any_head+0xf6>
10004176:	7b2b      	ldrb	r3, [r5, #12]
10004178:	429c      	cmp	r4, r3
1000417a:	d84c      	bhi.n	10004216 <ph_remove_any_head+0xf6>
1000417c:	682b      	ldr	r3, [r5, #0]
1000417e:	0061      	lsls	r1, r4, #1
10004180:	190c      	adds	r4, r1, r4
10004182:	3c03      	subs	r4, #3
10004184:	191c      	adds	r4, r3, r4
10004186:	2300      	movs	r3, #0
10004188:	7063      	strb	r3, [r4, #1]
1000418a:	bd70      	pop	{r4, r5, r6, pc}
1000418c:	4b25      	ldr	r3, [pc, #148]	; (10004224 <ph_remove_any_head+0x104>)
1000418e:	4a26      	ldr	r2, [pc, #152]	; (10004228 <ph_remove_any_head+0x108>)
10004190:	2138      	movs	r1, #56	; 0x38
10004192:	4826      	ldr	r0, [pc, #152]	; (1000422c <ph_remove_any_head+0x10c>)
10004194:	f000 fa96 	bl	100046c4 <__assert_func>
10004198:	4b25      	ldr	r3, [pc, #148]	; (10004230 <ph_remove_any_head+0x110>)
1000419a:	4a26      	ldr	r2, [pc, #152]	; (10004234 <ph_remove_any_head+0x114>)
1000419c:	2168      	movs	r1, #104	; 0x68
1000419e:	4826      	ldr	r0, [pc, #152]	; (10004238 <ph_remove_any_head+0x118>)
100041a0:	f000 fa90 	bl	100046c4 <__assert_func>
100041a4:	4b25      	ldr	r3, [pc, #148]	; (1000423c <ph_remove_any_head+0x11c>)
100041a6:	4a20      	ldr	r2, [pc, #128]	; (10004228 <ph_remove_any_head+0x108>)
100041a8:	213a      	movs	r1, #58	; 0x3a
100041aa:	4820      	ldr	r0, [pc, #128]	; (1000422c <ph_remove_any_head+0x10c>)
100041ac:	f000 fa8a 	bl	100046c4 <__assert_func>
100041b0:	4b23      	ldr	r3, [pc, #140]	; (10004240 <ph_remove_any_head+0x120>)
100041b2:	4a1d      	ldr	r2, [pc, #116]	; (10004228 <ph_remove_any_head+0x108>)
100041b4:	213b      	movs	r1, #59	; 0x3b
100041b6:	481d      	ldr	r0, [pc, #116]	; (1000422c <ph_remove_any_head+0x10c>)
100041b8:	f000 fa84 	bl	100046c4 <__assert_func>
100041bc:	2a00      	cmp	r2, #0
100041be:	d00a      	beq.n	100041d6 <ph_remove_any_head+0xb6>
100041c0:	7b29      	ldrb	r1, [r5, #12]
100041c2:	428a      	cmp	r2, r1
100041c4:	d807      	bhi.n	100041d6 <ph_remove_any_head+0xb6>
100041c6:	0051      	lsls	r1, r2, #1
100041c8:	188a      	adds	r2, r1, r2
100041ca:	3a03      	subs	r2, #3
100041cc:	6829      	ldr	r1, [r5, #0]
100041ce:	468c      	mov	ip, r1
100041d0:	4462      	add	r2, ip
100041d2:	7054      	strb	r4, [r2, #1]
100041d4:	e7c3      	b.n	1000415e <ph_remove_any_head+0x3e>
100041d6:	4b16      	ldr	r3, [pc, #88]	; (10004230 <ph_remove_any_head+0x110>)
100041d8:	4a16      	ldr	r2, [pc, #88]	; (10004234 <ph_remove_any_head+0x114>)
100041da:	2168      	movs	r1, #104	; 0x68
100041dc:	4816      	ldr	r0, [pc, #88]	; (10004238 <ph_remove_any_head+0x118>)
100041de:	f000 fa71 	bl	100046c4 <__assert_func>
100041e2:	4b18      	ldr	r3, [pc, #96]	; (10004244 <ph_remove_any_head+0x124>)
100041e4:	4a10      	ldr	r2, [pc, #64]	; (10004228 <ph_remove_any_head+0x108>)
100041e6:	2142      	movs	r1, #66	; 0x42
100041e8:	4810      	ldr	r0, [pc, #64]	; (1000422c <ph_remove_any_head+0x10c>)
100041ea:	f000 fa6b 	bl	100046c4 <__assert_func>
100041ee:	2b00      	cmp	r3, #0
100041f0:	d00b      	beq.n	1000420a <ph_remove_any_head+0xea>
100041f2:	7b2a      	ldrb	r2, [r5, #12]
100041f4:	4293      	cmp	r3, r2
100041f6:	d808      	bhi.n	1000420a <ph_remove_any_head+0xea>
100041f8:	0043      	lsls	r3, r0, #1
100041fa:	181b      	adds	r3, r3, r0
100041fc:	3b03      	subs	r3, #3
100041fe:	682a      	ldr	r2, [r5, #0]
10004200:	4694      	mov	ip, r2
10004202:	4463      	add	r3, ip
10004204:	2200      	movs	r2, #0
10004206:	709a      	strb	r2, [r3, #2]
10004208:	e7b3      	b.n	10004172 <ph_remove_any_head+0x52>
1000420a:	4b09      	ldr	r3, [pc, #36]	; (10004230 <ph_remove_any_head+0x110>)
1000420c:	4a09      	ldr	r2, [pc, #36]	; (10004234 <ph_remove_any_head+0x114>)
1000420e:	2168      	movs	r1, #104	; 0x68
10004210:	4809      	ldr	r0, [pc, #36]	; (10004238 <ph_remove_any_head+0x118>)
10004212:	f000 fa57 	bl	100046c4 <__assert_func>
10004216:	4b06      	ldr	r3, [pc, #24]	; (10004230 <ph_remove_any_head+0x110>)
10004218:	4a06      	ldr	r2, [pc, #24]	; (10004234 <ph_remove_any_head+0x114>)
1000421a:	2168      	movs	r1, #104	; 0x68
1000421c:	4806      	ldr	r0, [pc, #24]	; (10004238 <ph_remove_any_head+0x118>)
1000421e:	f000 fa51 	bl	100046c4 <__assert_func>
10004222:	46c0      	nop			; (mov r8, r8)
10004224:	1000ae78 	.word	0x1000ae78
10004228:	1000af58 	.word	0x1000af58
1000422c:	1000ae80 	.word	0x1000ae80
10004230:	1000aac8 	.word	0x1000aac8
10004234:	1000af80 	.word	0x1000af80
10004238:	1000aae4 	.word	0x1000aae4
1000423c:	1000aed4 	.word	0x1000aed4
10004240:	1000aefc 	.word	0x1000aefc
10004244:	1000ac28 	.word	0x1000ac28

10004248 <ph_remove_head>:
10004248:	b570      	push	{r4, r5, r6, lr}
1000424a:	0004      	movs	r4, r0
1000424c:	000a      	movs	r2, r1
1000424e:	7b45      	ldrb	r5, [r0, #13]
10004250:	0029      	movs	r1, r5
10004252:	f7ff ff65 	bl	10004120 <ph_remove_any_head>
10004256:	7360      	strb	r0, [r4, #13]
10004258:	0028      	movs	r0, r5
1000425a:	bd70      	pop	{r4, r5, r6, pc}

1000425c <ph_remove_and_free_node>:
1000425c:	b570      	push	{r4, r5, r6, lr}
1000425e:	0004      	movs	r4, r0
10004260:	2900      	cmp	r1, #0
10004262:	d067      	beq.n	10004334 <ph_remove_and_free_node+0xd8>
10004264:	7b43      	ldrb	r3, [r0, #13]
10004266:	428b      	cmp	r3, r1
10004268:	d00e      	beq.n	10004288 <ph_remove_and_free_node+0x2c>
1000426a:	2900      	cmp	r1, #0
1000426c:	d011      	beq.n	10004292 <ph_remove_and_free_node+0x36>
1000426e:	7b03      	ldrb	r3, [r0, #12]
10004270:	4299      	cmp	r1, r3
10004272:	d80e      	bhi.n	10004292 <ph_remove_and_free_node+0x36>
10004274:	004b      	lsls	r3, r1, #1
10004276:	185b      	adds	r3, r3, r1
10004278:	3b03      	subs	r3, #3
1000427a:	6802      	ldr	r2, [r0, #0]
1000427c:	18d0      	adds	r0, r2, r3
1000427e:	7883      	ldrb	r3, [r0, #2]
10004280:	2b00      	cmp	r3, #0
10004282:	d10c      	bne.n	1000429e <ph_remove_and_free_node+0x42>
10004284:	2000      	movs	r0, #0
10004286:	e056      	b.n	10004336 <ph_remove_and_free_node+0xda>
10004288:	2101      	movs	r1, #1
1000428a:	f7ff ffdd 	bl	10004248 <ph_remove_head>
1000428e:	2001      	movs	r0, #1
10004290:	e051      	b.n	10004336 <ph_remove_and_free_node+0xda>
10004292:	4b29      	ldr	r3, [pc, #164]	; (10004338 <ph_remove_and_free_node+0xdc>)
10004294:	4a29      	ldr	r2, [pc, #164]	; (1000433c <ph_remove_and_free_node+0xe0>)
10004296:	2168      	movs	r1, #104	; 0x68
10004298:	4829      	ldr	r0, [pc, #164]	; (10004340 <ph_remove_and_free_node+0xe4>)
1000429a:	f000 fa13 	bl	100046c4 <__assert_func>
1000429e:	2b00      	cmp	r3, #0
100042a0:	d020      	beq.n	100042e4 <ph_remove_and_free_node+0x88>
100042a2:	7b22      	ldrb	r2, [r4, #12]
100042a4:	4293      	cmp	r3, r2
100042a6:	d81d      	bhi.n	100042e4 <ph_remove_and_free_node+0x88>
100042a8:	005a      	lsls	r2, r3, #1
100042aa:	18d3      	adds	r3, r2, r3
100042ac:	3b03      	subs	r3, #3
100042ae:	6822      	ldr	r2, [r4, #0]
100042b0:	18d2      	adds	r2, r2, r3
100042b2:	6825      	ldr	r5, [r4, #0]
100042b4:	5ceb      	ldrb	r3, [r5, r3]
100042b6:	428b      	cmp	r3, r1
100042b8:	d01a      	beq.n	100042f0 <ph_remove_and_free_node+0x94>
100042ba:	2b00      	cmp	r3, #0
100042bc:	d01b      	beq.n	100042f6 <ph_remove_and_free_node+0x9a>
100042be:	7b22      	ldrb	r2, [r4, #12]
100042c0:	4293      	cmp	r3, r2
100042c2:	d818      	bhi.n	100042f6 <ph_remove_and_free_node+0x9a>
100042c4:	005a      	lsls	r2, r3, #1
100042c6:	18d3      	adds	r3, r2, r3
100042c8:	3b03      	subs	r3, #3
100042ca:	6822      	ldr	r2, [r4, #0]
100042cc:	18d2      	adds	r2, r2, r3
100042ce:	7853      	ldrb	r3, [r2, #1]
100042d0:	428b      	cmp	r3, r1
100042d2:	d016      	beq.n	10004302 <ph_remove_and_free_node+0xa6>
100042d4:	2b00      	cmp	r3, #0
100042d6:	d1f0      	bne.n	100042ba <ph_remove_and_free_node+0x5e>
100042d8:	4b1a      	ldr	r3, [pc, #104]	; (10004344 <ph_remove_and_free_node+0xe8>)
100042da:	4a1b      	ldr	r2, [pc, #108]	; (10004348 <ph_remove_and_free_node+0xec>)
100042dc:	216b      	movs	r1, #107	; 0x6b
100042de:	481b      	ldr	r0, [pc, #108]	; (1000434c <ph_remove_and_free_node+0xf0>)
100042e0:	f000 f9f0 	bl	100046c4 <__assert_func>
100042e4:	4b14      	ldr	r3, [pc, #80]	; (10004338 <ph_remove_and_free_node+0xdc>)
100042e6:	4a15      	ldr	r2, [pc, #84]	; (1000433c <ph_remove_and_free_node+0xe0>)
100042e8:	2168      	movs	r1, #104	; 0x68
100042ea:	4815      	ldr	r0, [pc, #84]	; (10004340 <ph_remove_and_free_node+0xe4>)
100042ec:	f000 f9ea 	bl	100046c4 <__assert_func>
100042f0:	7843      	ldrb	r3, [r0, #1]
100042f2:	7013      	strb	r3, [r2, #0]
100042f4:	e007      	b.n	10004306 <ph_remove_and_free_node+0xaa>
100042f6:	4b10      	ldr	r3, [pc, #64]	; (10004338 <ph_remove_and_free_node+0xdc>)
100042f8:	4a10      	ldr	r2, [pc, #64]	; (1000433c <ph_remove_and_free_node+0xe0>)
100042fa:	2168      	movs	r1, #104	; 0x68
100042fc:	4810      	ldr	r0, [pc, #64]	; (10004340 <ph_remove_and_free_node+0xe4>)
100042fe:	f000 f9e1 	bl	100046c4 <__assert_func>
10004302:	7843      	ldrb	r3, [r0, #1]
10004304:	7053      	strb	r3, [r2, #1]
10004306:	2300      	movs	r3, #0
10004308:	7083      	strb	r3, [r0, #2]
1000430a:	7043      	strb	r3, [r0, #1]
1000430c:	2201      	movs	r2, #1
1000430e:	0020      	movs	r0, r4
10004310:	f7ff ff06 	bl	10004120 <ph_remove_any_head>
10004314:	0002      	movs	r2, r0
10004316:	7b61      	ldrb	r1, [r4, #13]
10004318:	4281      	cmp	r1, r0
1000431a:	d005      	beq.n	10004328 <ph_remove_and_free_node+0xcc>
1000431c:	0020      	movs	r0, r4
1000431e:	f7ff fe4b 	bl	10003fb8 <ph_merge_nodes>
10004322:	7360      	strb	r0, [r4, #13]
10004324:	2001      	movs	r0, #1
10004326:	e006      	b.n	10004336 <ph_remove_and_free_node+0xda>
10004328:	4b09      	ldr	r3, [pc, #36]	; (10004350 <ph_remove_and_free_node+0xf4>)
1000432a:	4a07      	ldr	r2, [pc, #28]	; (10004348 <ph_remove_and_free_node+0xec>)
1000432c:	2171      	movs	r1, #113	; 0x71
1000432e:	4807      	ldr	r0, [pc, #28]	; (1000434c <ph_remove_and_free_node+0xf0>)
10004330:	f000 f9c8 	bl	100046c4 <__assert_func>
10004334:	2000      	movs	r0, #0
10004336:	bd70      	pop	{r4, r5, r6, pc}
10004338:	1000aac8 	.word	0x1000aac8
1000433c:	1000af80 	.word	0x1000af80
10004340:	1000aae4 	.word	0x1000aae4
10004344:	1000a838 	.word	0x1000a838
10004348:	1000af40 	.word	0x1000af40
1000434c:	1000ae80 	.word	0x1000ae80
10004350:	1000af20 	.word	0x1000af20

10004354 <clock_configure>:
10004354:	b5f8      	push	{r3, r4, r5, r6, r7, lr}
10004356:	46de      	mov	lr, fp
10004358:	4657      	mov	r7, sl
1000435a:	464e      	mov	r6, r9
1000435c:	4645      	mov	r5, r8
1000435e:	b5e0      	push	{r5, r6, r7, lr}
10004360:	0005      	movs	r5, r0
10004362:	000f      	movs	r7, r1
10004364:	4692      	mov	sl, r2
10004366:	9a0a      	ldr	r2, [sp, #40]	; 0x28
10004368:	4293      	cmp	r3, r2
1000436a:	d350      	bcc.n	1000440e <clock_configure+0xba>
1000436c:	0e1a      	lsrs	r2, r3, #24
1000436e:	4691      	mov	r9, r2
10004370:	021e      	lsls	r6, r3, #8
10004372:	9a0a      	ldr	r2, [sp, #40]	; 0x28
10004374:	2300      	movs	r3, #0
10004376:	0030      	movs	r0, r6
10004378:	4649      	mov	r1, r9
1000437a:	f001 fb8f 	bl	10005a9c <__wrap___aeabi_uldivmod>
1000437e:	4680      	mov	r8, r0
10004380:	006c      	lsls	r4, r5, #1
10004382:	1964      	adds	r4, r4, r5
10004384:	00a4      	lsls	r4, r4, #2
10004386:	4b30      	ldr	r3, [pc, #192]	; (10004448 <clock_configure+0xf4>)
10004388:	469c      	mov	ip, r3
1000438a:	4464      	add	r4, ip
1000438c:	6863      	ldr	r3, [r4, #4]
1000438e:	4283      	cmp	r3, r0
10004390:	d200      	bcs.n	10004394 <clock_configure+0x40>
10004392:	6060      	str	r0, [r4, #4]
10004394:	1f2b      	subs	r3, r5, #4
10004396:	b2db      	uxtb	r3, r3
10004398:	469b      	mov	fp, r3
1000439a:	2b01      	cmp	r3, #1
1000439c:	d93d      	bls.n	1000441a <clock_configure+0xc6>
1000439e:	23c0      	movs	r3, #192	; 0xc0
100043a0:	019b      	lsls	r3, r3, #6
100043a2:	4323      	orrs	r3, r4
100043a4:	2280      	movs	r2, #128	; 0x80
100043a6:	0112      	lsls	r2, r2, #4
100043a8:	601a      	str	r2, [r3, #0]
100043aa:	00ab      	lsls	r3, r5, #2
100043ac:	4a27      	ldr	r2, [pc, #156]	; (1000444c <clock_configure+0xf8>)
100043ae:	5899      	ldr	r1, [r3, r2]
100043b0:	2900      	cmp	r1, #0
100043b2:	d007      	beq.n	100043c4 <clock_configure+0x70>
100043b4:	6950      	ldr	r0, [r2, #20]
100043b6:	f001 fb33 	bl	10005a20 <__wrap___aeabi_uidiv>
100043ba:	1c43      	adds	r3, r0, #1
100043bc:	0058      	lsls	r0, r3, #1
100043be:	18c0      	adds	r0, r0, r3
100043c0:	3803      	subs	r0, #3
100043c2:	d2fd      	bcs.n	100043c0 <clock_configure+0x6c>
100043c4:	4653      	mov	r3, sl
100043c6:	015a      	lsls	r2, r3, #5
100043c8:	6823      	ldr	r3, [r4, #0]
100043ca:	405a      	eors	r2, r3
100043cc:	23e0      	movs	r3, #224	; 0xe0
100043ce:	401a      	ands	r2, r3
100043d0:	2380      	movs	r3, #128	; 0x80
100043d2:	015b      	lsls	r3, r3, #5
100043d4:	4323      	orrs	r3, r4
100043d6:	601a      	str	r2, [r3, #0]
100043d8:	465a      	mov	r2, fp
100043da:	2a01      	cmp	r2, #1
100043dc:	d928      	bls.n	10004430 <clock_configure+0xdc>
100043de:	2380      	movs	r3, #128	; 0x80
100043e0:	019b      	lsls	r3, r3, #6
100043e2:	4323      	orrs	r3, r4
100043e4:	2280      	movs	r2, #128	; 0x80
100043e6:	0112      	lsls	r2, r2, #4
100043e8:	601a      	str	r2, [r3, #0]
100043ea:	4643      	mov	r3, r8
100043ec:	6063      	str	r3, [r4, #4]
100043ee:	4642      	mov	r2, r8
100043f0:	2300      	movs	r3, #0
100043f2:	0030      	movs	r0, r6
100043f4:	4649      	mov	r1, r9
100043f6:	f001 fb51 	bl	10005a9c <__wrap___aeabi_uldivmod>
100043fa:	00ad      	lsls	r5, r5, #2
100043fc:	4b13      	ldr	r3, [pc, #76]	; (1000444c <clock_configure+0xf8>)
100043fe:	5158      	str	r0, [r3, r5]
10004400:	2001      	movs	r0, #1
10004402:	bcf0      	pop	{r4, r5, r6, r7}
10004404:	46bb      	mov	fp, r7
10004406:	46b2      	mov	sl, r6
10004408:	46a9      	mov	r9, r5
1000440a:	46a0      	mov	r8, r4
1000440c:	bdf8      	pop	{r3, r4, r5, r6, r7, pc}
1000440e:	4b10      	ldr	r3, [pc, #64]	; (10004450 <clock_configure+0xfc>)
10004410:	4a10      	ldr	r2, [pc, #64]	; (10004454 <clock_configure+0x100>)
10004412:	2133      	movs	r1, #51	; 0x33
10004414:	4810      	ldr	r0, [pc, #64]	; (10004458 <clock_configure+0x104>)
10004416:	f000 f955 	bl	100046c4 <__assert_func>
1000441a:	2f01      	cmp	r7, #1
1000441c:	d1bf      	bne.n	1000439e <clock_configure+0x4a>
1000441e:	23c0      	movs	r3, #192	; 0xc0
10004420:	019b      	lsls	r3, r3, #6
10004422:	4323      	orrs	r3, r4
10004424:	2203      	movs	r2, #3
10004426:	601a      	str	r2, [r3, #0]
10004428:	68a3      	ldr	r3, [r4, #8]
1000442a:	07db      	lsls	r3, r3, #31
1000442c:	d5fc      	bpl.n	10004428 <clock_configure+0xd4>
1000442e:	e7c9      	b.n	100043c4 <clock_configure+0x70>
10004430:	6821      	ldr	r1, [r4, #0]
10004432:	4079      	eors	r1, r7
10004434:	2203      	movs	r2, #3
10004436:	400a      	ands	r2, r1
10004438:	601a      	str	r2, [r3, #0]
1000443a:	68a2      	ldr	r2, [r4, #8]
1000443c:	2301      	movs	r3, #1
1000443e:	40bb      	lsls	r3, r7
10004440:	4213      	tst	r3, r2
10004442:	d0fa      	beq.n	1000443a <clock_configure+0xe6>
10004444:	e7cb      	b.n	100043de <clock_configure+0x8a>
10004446:	46c0      	nop			; (mov r8, r8)
10004448:	40008000 	.word	0x40008000
1000444c:	20002000 	.word	0x20002000
10004450:	1000af8c 	.word	0x1000af8c
10004454:	1000b000 	.word	0x1000b000
10004458:	1000afa0 	.word	0x1000afa0

1000445c <clocks_init>:
1000445c:	b530      	push	{r4, r5, lr}
1000445e:	b083      	sub	sp, #12
10004460:	200c      	movs	r0, #12
10004462:	f000 f90b 	bl	1000467c <watchdog_start_tick>
10004466:	f7fe fa73 	bl	10002950 <running_on_fpga>
1000446a:	2800      	cmp	r0, #0
1000446c:	d00d      	beq.n	1000448a <clocks_init+0x2e>
1000446e:	2300      	movs	r3, #0
10004470:	e004      	b.n	1000447c <clocks_init+0x20>
10004472:	0099      	lsls	r1, r3, #2
10004474:	4a2d      	ldr	r2, [pc, #180]	; (1000452c <clocks_init+0xd0>)
10004476:	482e      	ldr	r0, [pc, #184]	; (10004530 <clocks_init+0xd4>)
10004478:	5088      	str	r0, [r1, r2]
1000447a:	3301      	adds	r3, #1
1000447c:	2b09      	cmp	r3, #9
1000447e:	d9f8      	bls.n	10004472 <clocks_init+0x16>
10004480:	4b2a      	ldr	r3, [pc, #168]	; (1000452c <clocks_init+0xd0>)
10004482:	4a2c      	ldr	r2, [pc, #176]	; (10004534 <clocks_init+0xd8>)
10004484:	625a      	str	r2, [r3, #36]	; 0x24
10004486:	b003      	add	sp, #12
10004488:	bd30      	pop	{r4, r5, pc}
1000448a:	4b2b      	ldr	r3, [pc, #172]	; (10004538 <clocks_init+0xdc>)
1000448c:	2200      	movs	r2, #0
1000448e:	679a      	str	r2, [r3, #120]	; 0x78
10004490:	f000 f8fc 	bl	1000468c <xosc_init>
10004494:	4b29      	ldr	r3, [pc, #164]	; (1000453c <clocks_init+0xe0>)
10004496:	2201      	movs	r2, #1
10004498:	601a      	str	r2, [r3, #0]
1000449a:	4b27      	ldr	r3, [pc, #156]	; (10004538 <clocks_init+0xdc>)
1000449c:	6c5b      	ldr	r3, [r3, #68]	; 0x44
1000449e:	2b01      	cmp	r3, #1
100044a0:	d1fb      	bne.n	1000449a <clocks_init+0x3e>
100044a2:	4b27      	ldr	r3, [pc, #156]	; (10004540 <clocks_init+0xe4>)
100044a4:	2203      	movs	r2, #3
100044a6:	601a      	str	r2, [r3, #0]
100044a8:	4b23      	ldr	r3, [pc, #140]	; (10004538 <clocks_init+0xdc>)
100044aa:	6b9b      	ldr	r3, [r3, #56]	; 0x38
100044ac:	2b01      	cmp	r3, #1
100044ae:	d1fb      	bne.n	100044a8 <clocks_init+0x4c>
100044b0:	3301      	adds	r3, #1
100044b2:	9300      	str	r3, [sp, #0]
100044b4:	3304      	adds	r3, #4
100044b6:	4a23      	ldr	r2, [pc, #140]	; (10004544 <clocks_init+0xe8>)
100044b8:	2101      	movs	r1, #1
100044ba:	4823      	ldr	r0, [pc, #140]	; (10004548 <clocks_init+0xec>)
100044bc:	f000 f84e 	bl	1000455c <pll_init>
100044c0:	2305      	movs	r3, #5
100044c2:	9300      	str	r3, [sp, #0]
100044c4:	4a21      	ldr	r2, [pc, #132]	; (1000454c <clocks_init+0xf0>)
100044c6:	2101      	movs	r1, #1
100044c8:	4821      	ldr	r0, [pc, #132]	; (10004550 <clocks_init+0xf4>)
100044ca:	f000 f847 	bl	1000455c <pll_init>
100044ce:	4b21      	ldr	r3, [pc, #132]	; (10004554 <clocks_init+0xf8>)
100044d0:	9300      	str	r3, [sp, #0]
100044d2:	2200      	movs	r2, #0
100044d4:	2102      	movs	r1, #2
100044d6:	2004      	movs	r0, #4
100044d8:	f7ff ff3c 	bl	10004354 <clock_configure>
100044dc:	4d1e      	ldr	r5, [pc, #120]	; (10004558 <clocks_init+0xfc>)
100044de:	9500      	str	r5, [sp, #0]
100044e0:	002b      	movs	r3, r5
100044e2:	2200      	movs	r2, #0
100044e4:	2101      	movs	r1, #1
100044e6:	2005      	movs	r0, #5
100044e8:	f7ff ff34 	bl	10004354 <clock_configure>
100044ec:	4c10      	ldr	r4, [pc, #64]	; (10004530 <clocks_init+0xd4>)
100044ee:	9400      	str	r4, [sp, #0]
100044f0:	0023      	movs	r3, r4
100044f2:	2200      	movs	r2, #0
100044f4:	2100      	movs	r1, #0
100044f6:	2007      	movs	r0, #7
100044f8:	f7ff ff2c 	bl	10004354 <clock_configure>
100044fc:	9400      	str	r4, [sp, #0]
100044fe:	0023      	movs	r3, r4
10004500:	2200      	movs	r2, #0
10004502:	2100      	movs	r1, #0
10004504:	2008      	movs	r0, #8
10004506:	f7ff ff25 	bl	10004354 <clock_configure>
1000450a:	4b0a      	ldr	r3, [pc, #40]	; (10004534 <clocks_init+0xd8>)
1000450c:	9300      	str	r3, [sp, #0]
1000450e:	0023      	movs	r3, r4
10004510:	2200      	movs	r2, #0
10004512:	2100      	movs	r1, #0
10004514:	2009      	movs	r0, #9
10004516:	f7ff ff1d 	bl	10004354 <clock_configure>
1000451a:	9500      	str	r5, [sp, #0]
1000451c:	002b      	movs	r3, r5
1000451e:	2200      	movs	r2, #0
10004520:	2100      	movs	r1, #0
10004522:	2006      	movs	r0, #6
10004524:	f7ff ff16 	bl	10004354 <clock_configure>
10004528:	e7ad      	b.n	10004486 <clocks_init+0x2a>
1000452a:	46c0      	nop			; (mov r8, r8)
1000452c:	20002000 	.word	0x20002000
10004530:	02dc6c00 	.word	0x02dc6c00
10004534:	0000b71b 	.word	0x0000b71b
10004538:	40008000 	.word	0x40008000
1000453c:	4000b03c 	.word	0x4000b03c
10004540:	4000b030 	.word	0x4000b030
10004544:	59682f00 	.word	0x59682f00
10004548:	40028000 	.word	0x40028000
1000454c:	47868c00 	.word	0x47868c00
10004550:	4002c000 	.word	0x4002c000
10004554:	00b71b00 	.word	0x00b71b00
10004558:	07735940 	.word	0x07735940

1000455c <pll_init>:
1000455c:	b5f0      	push	{r4, r5, r6, r7, lr}
1000455e:	46c6      	mov	lr, r8
10004560:	b500      	push	{lr}
10004562:	0004      	movs	r4, r0
10004564:	000e      	movs	r6, r1
10004566:	0017      	movs	r7, r2
10004568:	001d      	movs	r5, r3
1000456a:	4837      	ldr	r0, [pc, #220]	; (10004648 <pll_init+0xec>)
1000456c:	f001 fa58 	bl	10005a20 <__wrap___aeabi_uidiv>
10004570:	4680      	mov	r8, r0
10004572:	4b36      	ldr	r3, [pc, #216]	; (1000464c <pll_init+0xf0>)
10004574:	18fa      	adds	r2, r7, r3
10004576:	4b36      	ldr	r3, [pc, #216]	; (10004650 <pll_init+0xf4>)
10004578:	429a      	cmp	r2, r3
1000457a:	d839      	bhi.n	100045f0 <pll_init+0x94>
1000457c:	0001      	movs	r1, r0
1000457e:	0038      	movs	r0, r7
10004580:	f001 fa4e 	bl	10005a20 <__wrap___aeabi_uidiv>
10004584:	0002      	movs	r2, r0
10004586:	3a10      	subs	r2, #16
10004588:	2398      	movs	r3, #152	; 0x98
1000458a:	005b      	lsls	r3, r3, #1
1000458c:	429a      	cmp	r2, r3
1000458e:	d835      	bhi.n	100045fc <pll_init+0xa0>
10004590:	1e6b      	subs	r3, r5, #1
10004592:	2b06      	cmp	r3, #6
10004594:	d838      	bhi.n	10004608 <pll_init+0xac>
10004596:	9b06      	ldr	r3, [sp, #24]
10004598:	3b01      	subs	r3, #1
1000459a:	2b06      	cmp	r3, #6
1000459c:	d834      	bhi.n	10004608 <pll_init+0xac>
1000459e:	093f      	lsrs	r7, r7, #4
100045a0:	4547      	cmp	r7, r8
100045a2:	d337      	bcc.n	10004614 <pll_init+0xb8>
100045a4:	042d      	lsls	r5, r5, #16
100045a6:	9b06      	ldr	r3, [sp, #24]
100045a8:	031a      	lsls	r2, r3, #12
100045aa:	4315      	orrs	r5, r2
100045ac:	6823      	ldr	r3, [r4, #0]
100045ae:	2b00      	cmp	r3, #0
100045b0:	db36      	blt.n	10004620 <pll_init+0xc4>
100045b2:	4b28      	ldr	r3, [pc, #160]	; (10004654 <pll_init+0xf8>)
100045b4:	429c      	cmp	r4, r3
100045b6:	d044      	beq.n	10004642 <pll_init+0xe6>
100045b8:	2280      	movs	r2, #128	; 0x80
100045ba:	0152      	lsls	r2, r2, #5
100045bc:	4b26      	ldr	r3, [pc, #152]	; (10004658 <pll_init+0xfc>)
100045be:	601a      	str	r2, [r3, #0]
100045c0:	4b26      	ldr	r3, [pc, #152]	; (1000465c <pll_init+0x100>)
100045c2:	601a      	str	r2, [r3, #0]
100045c4:	4b26      	ldr	r3, [pc, #152]	; (10004660 <pll_init+0x104>)
100045c6:	689b      	ldr	r3, [r3, #8]
100045c8:	0011      	movs	r1, r2
100045ca:	4399      	bics	r1, r3
100045cc:	d1fa      	bne.n	100045c4 <pll_init+0x68>
100045ce:	6026      	str	r6, [r4, #0]
100045d0:	60a0      	str	r0, [r4, #8]
100045d2:	1d23      	adds	r3, r4, #4
100045d4:	22c0      	movs	r2, #192	; 0xc0
100045d6:	0192      	lsls	r2, r2, #6
100045d8:	431a      	orrs	r2, r3
100045da:	2321      	movs	r3, #33	; 0x21
100045dc:	6013      	str	r3, [r2, #0]
100045de:	6823      	ldr	r3, [r4, #0]
100045e0:	2b00      	cmp	r3, #0
100045e2:	dafc      	bge.n	100045de <pll_init+0x82>
100045e4:	60e5      	str	r5, [r4, #12]
100045e6:	2308      	movs	r3, #8
100045e8:	6013      	str	r3, [r2, #0]
100045ea:	bc80      	pop	{r7}
100045ec:	46b8      	mov	r8, r7
100045ee:	bdf0      	pop	{r4, r5, r6, r7, pc}
100045f0:	4b1c      	ldr	r3, [pc, #112]	; (10004664 <pll_init+0x108>)
100045f2:	4a1d      	ldr	r2, [pc, #116]	; (10004668 <pll_init+0x10c>)
100045f4:	2111      	movs	r1, #17
100045f6:	481d      	ldr	r0, [pc, #116]	; (1000466c <pll_init+0x110>)
100045f8:	f000 f864 	bl	100046c4 <__assert_func>
100045fc:	4b1c      	ldr	r3, [pc, #112]	; (10004670 <pll_init+0x114>)
100045fe:	4a1a      	ldr	r2, [pc, #104]	; (10004668 <pll_init+0x10c>)
10004600:	2119      	movs	r1, #25
10004602:	481a      	ldr	r0, [pc, #104]	; (1000466c <pll_init+0x110>)
10004604:	f000 f85e 	bl	100046c4 <__assert_func>
10004608:	4b1a      	ldr	r3, [pc, #104]	; (10004674 <pll_init+0x118>)
1000460a:	4a17      	ldr	r2, [pc, #92]	; (10004668 <pll_init+0x10c>)
1000460c:	211c      	movs	r1, #28
1000460e:	4817      	ldr	r0, [pc, #92]	; (1000466c <pll_init+0x110>)
10004610:	f000 f858 	bl	100046c4 <__assert_func>
10004614:	4b18      	ldr	r3, [pc, #96]	; (10004678 <pll_init+0x11c>)
10004616:	4a14      	ldr	r2, [pc, #80]	; (10004668 <pll_init+0x10c>)
10004618:	2123      	movs	r1, #35	; 0x23
1000461a:	4814      	ldr	r0, [pc, #80]	; (1000466c <pll_init+0x110>)
1000461c:	f000 f852 	bl	100046c4 <__assert_func>
10004620:	6822      	ldr	r2, [r4, #0]
10004622:	233f      	movs	r3, #63	; 0x3f
10004624:	4013      	ands	r3, r2
10004626:	42b3      	cmp	r3, r6
10004628:	d1c3      	bne.n	100045b2 <pll_init+0x56>
1000462a:	68a3      	ldr	r3, [r4, #8]
1000462c:	051b      	lsls	r3, r3, #20
1000462e:	0d1b      	lsrs	r3, r3, #20
10004630:	4283      	cmp	r3, r0
10004632:	d1be      	bne.n	100045b2 <pll_init+0x56>
10004634:	68e3      	ldr	r3, [r4, #12]
10004636:	22ee      	movs	r2, #238	; 0xee
10004638:	02d2      	lsls	r2, r2, #11
1000463a:	4013      	ands	r3, r2
1000463c:	42ab      	cmp	r3, r5
1000463e:	d1b8      	bne.n	100045b2 <pll_init+0x56>
10004640:	e7d3      	b.n	100045ea <pll_init+0x8e>
10004642:	2280      	movs	r2, #128	; 0x80
10004644:	0192      	lsls	r2, r2, #6
10004646:	e7b9      	b.n	100045bc <pll_init+0x60>
10004648:	00b71b00 	.word	0x00b71b00
1000464c:	d34be880 	.word	0xd34be880
10004650:	32a9f880 	.word	0x32a9f880
10004654:	4002c000 	.word	0x4002c000
10004658:	4000e000 	.word	0x4000e000
1000465c:	4000f000 	.word	0x4000f000
10004660:	4000c000 	.word	0x4000c000
10004664:	1000b010 	.word	0x1000b010
10004668:	1000b150 	.word	0x1000b150
1000466c:	1000b070 	.word	0x1000b070
10004670:	1000b0cc 	.word	0x1000b0cc
10004674:	1000b0e8 	.word	0x1000b0e8
10004678:	1000b134 	.word	0x1000b134

1000467c <watchdog_start_tick>:
1000467c:	2380      	movs	r3, #128	; 0x80
1000467e:	009b      	lsls	r3, r3, #2
10004680:	4303      	orrs	r3, r0
10004682:	4a01      	ldr	r2, [pc, #4]	; (10004688 <watchdog_start_tick+0xc>)
10004684:	62d3      	str	r3, [r2, #44]	; 0x2c
10004686:	4770      	bx	lr
10004688:	40058000 	.word	0x40058000

1000468c <xosc_init>:
1000468c:	4b07      	ldr	r3, [pc, #28]	; (100046ac <xosc_init+0x20>)
1000468e:	22aa      	movs	r2, #170	; 0xaa
10004690:	0112      	lsls	r2, r2, #4
10004692:	601a      	str	r2, [r3, #0]
10004694:	3221      	adds	r2, #33	; 0x21
10004696:	32ff      	adds	r2, #255	; 0xff
10004698:	60da      	str	r2, [r3, #12]
1000469a:	4b05      	ldr	r3, [pc, #20]	; (100046b0 <xosc_init+0x24>)
1000469c:	4a05      	ldr	r2, [pc, #20]	; (100046b4 <xosc_init+0x28>)
1000469e:	601a      	str	r2, [r3, #0]
100046a0:	4b02      	ldr	r3, [pc, #8]	; (100046ac <xosc_init+0x20>)
100046a2:	685b      	ldr	r3, [r3, #4]
100046a4:	2b00      	cmp	r3, #0
100046a6:	dafb      	bge.n	100046a0 <xosc_init+0x14>
100046a8:	4770      	bx	lr
100046aa:	46c0      	nop			; (mov r8, r8)
100046ac:	40024000 	.word	0x40024000
100046b0:	40026000 	.word	0x40026000
100046b4:	00fab000 	.word	0x00fab000

100046b8 <_exit>:
100046b8:	be00      	bkpt	0x0000
100046ba:	e7fd      	b.n	100046b8 <_exit>

100046bc <exit>:
100046bc:	b510      	push	{r4, lr}
100046be:	f7ff fffb 	bl	100046b8 <_exit>
	...

100046c4 <__assert_func>:
100046c4:	b510      	push	{r4, lr}
100046c6:	b082      	sub	sp, #8
100046c8:	000c      	movs	r4, r1
100046ca:	0019      	movs	r1, r3
100046cc:	2a00      	cmp	r2, #0
100046ce:	d00c      	beq.n	100046ea <__assert_func+0x26>
100046d0:	4b08      	ldr	r3, [pc, #32]	; (100046f4 <__assert_func+0x30>)
100046d2:	2a00      	cmp	r2, #0
100046d4:	d00b      	beq.n	100046ee <__assert_func+0x2a>
100046d6:	9201      	str	r2, [sp, #4]
100046d8:	9300      	str	r3, [sp, #0]
100046da:	0023      	movs	r3, r4
100046dc:	0002      	movs	r2, r0
100046de:	4806      	ldr	r0, [pc, #24]	; (100046f8 <__assert_func+0x34>)
100046e0:	f002 fb12 	bl	10006d08 <__wrap_printf>
100046e4:	2001      	movs	r0, #1
100046e6:	f7ff ffe7 	bl	100046b8 <_exit>
100046ea:	4b04      	ldr	r3, [pc, #16]	; (100046fc <__assert_func+0x38>)
100046ec:	e7f1      	b.n	100046d2 <__assert_func+0xe>
100046ee:	4a03      	ldr	r2, [pc, #12]	; (100046fc <__assert_func+0x38>)
100046f0:	e7f1      	b.n	100046d6 <__assert_func+0x12>
100046f2:	46c0      	nop			; (mov r8, r8)
100046f4:	1000b15c 	.word	0x1000b15c
100046f8:	1000b16c 	.word	0x1000b16c
100046fc:	1000a028 	.word	0x1000a028

10004700 <runtime_init>:
10004700:	b570      	push	{r4, r5, r6, lr}
10004702:	4b2b      	ldr	r3, [pc, #172]	; (100047b0 <runtime_init+0xb0>)
10004704:	4a2b      	ldr	r2, [pc, #172]	; (100047b4 <runtime_init+0xb4>)
10004706:	601a      	str	r2, [r3, #0]
10004708:	4b2b      	ldr	r3, [pc, #172]	; (100047b8 <runtime_init+0xb8>)
1000470a:	4a2c      	ldr	r2, [pc, #176]	; (100047bc <runtime_init+0xbc>)
1000470c:	601a      	str	r2, [r3, #0]
1000470e:	4b2c      	ldr	r3, [pc, #176]	; (100047c0 <runtime_init+0xc0>)
10004710:	689a      	ldr	r2, [r3, #8]
10004712:	4b2a      	ldr	r3, [pc, #168]	; (100047bc <runtime_init+0xbc>)
10004714:	4393      	bics	r3, r2
10004716:	d1fa      	bne.n	1000470e <runtime_init+0xe>
10004718:	4c2a      	ldr	r4, [pc, #168]	; (100047c4 <runtime_init+0xc4>)
1000471a:	e001      	b.n	10004720 <runtime_init+0x20>
1000471c:	cc08      	ldmia	r4!, {r3}
1000471e:	4798      	blx	r3
10004720:	4b29      	ldr	r3, [pc, #164]	; (100047c8 <runtime_init+0xc8>)
10004722:	429c      	cmp	r4, r3
10004724:	d3fa      	bcc.n	1000471c <runtime_init+0x1c>
10004726:	f7ff fe99 	bl	1000445c <clocks_init>
1000472a:	4b23      	ldr	r3, [pc, #140]	; (100047b8 <runtime_init+0xb8>)
1000472c:	4a27      	ldr	r2, [pc, #156]	; (100047cc <runtime_init+0xcc>)
1000472e:	601a      	str	r2, [r3, #0]
10004730:	4b23      	ldr	r3, [pc, #140]	; (100047c0 <runtime_init+0xc0>)
10004732:	689b      	ldr	r3, [r3, #8]
10004734:	43db      	mvns	r3, r3
10004736:	01db      	lsls	r3, r3, #7
10004738:	d1fa      	bne.n	10004730 <runtime_init+0x30>
1000473a:	4b25      	ldr	r3, [pc, #148]	; (100047d0 <runtime_init+0xd0>)
1000473c:	2240      	movs	r2, #64	; 0x40
1000473e:	679a      	str	r2, [r3, #120]	; 0x78
10004740:	675a      	str	r2, [r3, #116]	; 0x74
10004742:	671a      	str	r2, [r3, #112]	; 0x70
10004744:	66da      	str	r2, [r3, #108]	; 0x6c
10004746:	4c23      	ldr	r4, [pc, #140]	; (100047d4 <runtime_init+0xd4>)
10004748:	e009      	b.n	1000475e <runtime_init+0x5e>
1000474a:	4b23      	ldr	r3, [pc, #140]	; (100047d8 <runtime_init+0xd8>)
1000474c:	4a23      	ldr	r2, [pc, #140]	; (100047dc <runtime_init+0xdc>)
1000474e:	2187      	movs	r1, #135	; 0x87
10004750:	4823      	ldr	r0, [pc, #140]	; (100047e0 <runtime_init+0xe0>)
10004752:	f7ff ffb7 	bl	100046c4 <__assert_func>
10004756:	0020      	movs	r0, r4
10004758:	f7fe fcb6 	bl	100030c8 <mutex_init>
1000475c:	3408      	adds	r4, #8
1000475e:	4b21      	ldr	r3, [pc, #132]	; (100047e4 <runtime_init+0xe4>)
10004760:	429c      	cmp	r4, r3
10004762:	d209      	bcs.n	10004778 <runtime_init+0x78>
10004764:	6823      	ldr	r3, [r4, #0]
10004766:	2b00      	cmp	r3, #0
10004768:	d0f5      	beq.n	10004756 <runtime_init+0x56>
1000476a:	2b01      	cmp	r3, #1
1000476c:	d1ed      	bne.n	1000474a <runtime_init+0x4a>
1000476e:	0020      	movs	r0, r4
10004770:	f7fe fcb7 	bl	100030e2 <recursive_mutex_init>
10004774:	3408      	adds	r4, #8
10004776:	e7f2      	b.n	1000475e <runtime_init+0x5e>
10004778:	4c1b      	ldr	r4, [pc, #108]	; (100047e8 <runtime_init+0xe8>)
1000477a:	68a1      	ldr	r1, [r4, #8]
1000477c:	4d1b      	ldr	r5, [pc, #108]	; (100047ec <runtime_init+0xec>)
1000477e:	22c0      	movs	r2, #192	; 0xc0
10004780:	0028      	movs	r0, r5
10004782:	f002 f971 	bl	10006a68 <__wrap___aeabi_memcpy>
10004786:	60a5      	str	r5, [r4, #8]
10004788:	f3ef 8305 	mrs	r3, IPSR
1000478c:	2b00      	cmp	r3, #0
1000478e:	d000      	beq.n	10004792 <runtime_init+0x92>
10004790:	be00      	bkpt	0x0000
10004792:	f7fe f93f 	bl	10002a14 <spin_locks_reset>
10004796:	f7fe fc81 	bl	1000309c <irq_init_priorities>
1000479a:	f7ff f805 	bl	100037a8 <alarm_pool_init_default>
1000479e:	4c14      	ldr	r4, [pc, #80]	; (100047f0 <runtime_init+0xf0>)
100047a0:	e001      	b.n	100047a6 <runtime_init+0xa6>
100047a2:	cc08      	ldmia	r4!, {r3}
100047a4:	4798      	blx	r3
100047a6:	4b13      	ldr	r3, [pc, #76]	; (100047f4 <runtime_init+0xf4>)
100047a8:	429c      	cmp	r4, r3
100047aa:	d3fa      	bcc.n	100047a2 <runtime_init+0xa2>
100047ac:	bd70      	pop	{r4, r5, r6, pc}
100047ae:	46c0      	nop			; (mov r8, r8)
100047b0:	4000e000 	.word	0x4000e000
100047b4:	fefbcdbf 	.word	0xfefbcdbf
100047b8:	4000f000 	.word	0x4000f000
100047bc:	003c7ffe 	.word	0x003c7ffe
100047c0:	4000c000 	.word	0x4000c000
100047c4:	20000ef8 	.word	0x20000ef8
100047c8:	20000f08 	.word	0x20000f08
100047cc:	01ffffff 	.word	0x01ffffff
100047d0:	4001f000 	.word	0x4001f000
100047d4:	20000ee8 	.word	0x20000ee8
100047d8:	1000b19c 	.word	0x1000b19c
100047dc:	1000b22c 	.word	0x1000b22c
100047e0:	1000b1bc 	.word	0x1000b1bc
100047e4:	20000ef8 	.word	0x20000ef8
100047e8:	e000ed00 	.word	0xe000ed00
100047ec:	20000000 	.word	0x20000000
100047f0:	20000f08 	.word	0x20000f08
100047f4:	20000f10 	.word	0x20000f10

100047f8 <panic>:
100047f8:	b40f      	push	{r0, r1, r2, r3}
100047fa:	b500      	push	{lr}
100047fc:	b083      	sub	sp, #12
100047fe:	4808      	ldr	r0, [pc, #32]	; (10004820 <panic+0x28>)
10004800:	f002 fa52 	bl	10006ca8 <__wrap_puts>
10004804:	9b04      	ldr	r3, [sp, #16]
10004806:	2b00      	cmp	r3, #0
10004808:	d007      	beq.n	1000481a <panic+0x22>
1000480a:	a905      	add	r1, sp, #20
1000480c:	9101      	str	r1, [sp, #4]
1000480e:	0018      	movs	r0, r3
10004810:	f002 fa5a 	bl	10006cc8 <__wrap_vprintf>
10004814:	4803      	ldr	r0, [pc, #12]	; (10004824 <panic+0x2c>)
10004816:	f002 fa47 	bl	10006ca8 <__wrap_puts>
1000481a:	2001      	movs	r0, #1
1000481c:	f7ff ff4c 	bl	100046b8 <_exit>
10004820:	1000b21c 	.word	0x1000b21c
10004824:	1000a050 	.word	0x1000a050

10004828 <_out_null>:
10004828:	4770      	bx	lr

1000482a <_out_fct>:
1000482a:	b510      	push	{r4, lr}
1000482c:	2800      	cmp	r0, #0
1000482e:	d002      	beq.n	10004836 <_out_fct+0xc>
10004830:	680b      	ldr	r3, [r1, #0]
10004832:	6849      	ldr	r1, [r1, #4]
10004834:	4798      	blx	r3
10004836:	bd10      	pop	{r4, pc}

10004838 <_atoi>:
10004838:	0001      	movs	r1, r0
1000483a:	2000      	movs	r0, #0
1000483c:	e007      	b.n	1000484e <_atoi+0x16>
1000483e:	0083      	lsls	r3, r0, #2
10004840:	181b      	adds	r3, r3, r0
10004842:	005b      	lsls	r3, r3, #1
10004844:	1c50      	adds	r0, r2, #1
10004846:	6008      	str	r0, [r1, #0]
10004848:	7810      	ldrb	r0, [r2, #0]
1000484a:	18c0      	adds	r0, r0, r3
1000484c:	3830      	subs	r0, #48	; 0x30
1000484e:	680a      	ldr	r2, [r1, #0]
10004850:	7813      	ldrb	r3, [r2, #0]
10004852:	3b30      	subs	r3, #48	; 0x30
10004854:	b2db      	uxtb	r3, r3
10004856:	2b09      	cmp	r3, #9
10004858:	d9f1      	bls.n	1000483e <_atoi+0x6>
1000485a:	4770      	bx	lr

1000485c <_out_rev>:
1000485c:	b5f0      	push	{r4, r5, r6, r7, lr}
1000485e:	46de      	mov	lr, fp
10004860:	4657      	mov	r7, sl
10004862:	464e      	mov	r6, r9
10004864:	4645      	mov	r5, r8
10004866:	b5e0      	push	{r5, r6, r7, lr}
10004868:	b083      	sub	sp, #12
1000486a:	4693      	mov	fp, r2
1000486c:	001f      	movs	r7, r3
1000486e:	9b0c      	ldr	r3, [sp, #48]	; 0x30
10004870:	469a      	mov	sl, r3
10004872:	9c0d      	ldr	r4, [sp, #52]	; 0x34
10004874:	9b0e      	ldr	r3, [sp, #56]	; 0x38
10004876:	4699      	mov	r9, r3
10004878:	9b0f      	ldr	r3, [sp, #60]	; 0x3c
1000487a:	079b      	lsls	r3, r3, #30
1000487c:	d003      	beq.n	10004886 <_out_rev+0x2a>
1000487e:	46b8      	mov	r8, r7
10004880:	000f      	movs	r7, r1
10004882:	0006      	movs	r6, r0
10004884:	e022      	b.n	100048cc <_out_rev+0x70>
10004886:	9201      	str	r2, [sp, #4]
10004888:	46a3      	mov	fp, r4
1000488a:	4688      	mov	r8, r1
1000488c:	464e      	mov	r6, r9
1000488e:	46b9      	mov	r9, r7
10004890:	0007      	movs	r7, r0
10004892:	42b4      	cmp	r4, r6
10004894:	d207      	bcs.n	100048a6 <_out_rev+0x4a>
10004896:	1c55      	adds	r5, r2, #1
10004898:	464b      	mov	r3, r9
1000489a:	4641      	mov	r1, r8
1000489c:	2020      	movs	r0, #32
1000489e:	47b8      	blx	r7
100048a0:	3401      	adds	r4, #1
100048a2:	002a      	movs	r2, r5
100048a4:	e7f5      	b.n	10004892 <_out_rev+0x36>
100048a6:	003d      	movs	r5, r7
100048a8:	464f      	mov	r7, r9
100048aa:	465c      	mov	r4, fp
100048ac:	9b01      	ldr	r3, [sp, #4]
100048ae:	469b      	mov	fp, r3
100048b0:	46b1      	mov	r9, r6
100048b2:	4646      	mov	r6, r8
100048b4:	46b8      	mov	r8, r7
100048b6:	0037      	movs	r7, r6
100048b8:	002e      	movs	r6, r5
100048ba:	e007      	b.n	100048cc <_out_rev+0x70>
100048bc:	3c01      	subs	r4, #1
100048be:	1c55      	adds	r5, r2, #1
100048c0:	4653      	mov	r3, sl
100048c2:	5d18      	ldrb	r0, [r3, r4]
100048c4:	4643      	mov	r3, r8
100048c6:	0039      	movs	r1, r7
100048c8:	47b0      	blx	r6
100048ca:	002a      	movs	r2, r5
100048cc:	2c00      	cmp	r4, #0
100048ce:	d1f5      	bne.n	100048bc <_out_rev+0x60>
100048d0:	0035      	movs	r5, r6
100048d2:	003e      	movs	r6, r7
100048d4:	4647      	mov	r7, r8
100048d6:	9b0f      	ldr	r3, [sp, #60]	; 0x3c
100048d8:	079b      	lsls	r3, r3, #30
100048da:	d407      	bmi.n	100048ec <_out_rev+0x90>
100048dc:	0010      	movs	r0, r2
100048de:	b003      	add	sp, #12
100048e0:	bcf0      	pop	{r4, r5, r6, r7}
100048e2:	46bb      	mov	fp, r7
100048e4:	46b2      	mov	sl, r6
100048e6:	46a9      	mov	r9, r5
100048e8:	46a0      	mov	r8, r4
100048ea:	bdf0      	pop	{r4, r5, r6, r7, pc}
100048ec:	46b0      	mov	r8, r6
100048ee:	464e      	mov	r6, r9
100048f0:	46b9      	mov	r9, r7
100048f2:	002f      	movs	r7, r5
100048f4:	465d      	mov	r5, fp
100048f6:	1b53      	subs	r3, r2, r5
100048f8:	42b3      	cmp	r3, r6
100048fa:	d2ef      	bcs.n	100048dc <_out_rev+0x80>
100048fc:	1c54      	adds	r4, r2, #1
100048fe:	464b      	mov	r3, r9
10004900:	4641      	mov	r1, r8
10004902:	2020      	movs	r0, #32
10004904:	47b8      	blx	r7
10004906:	0022      	movs	r2, r4
10004908:	e7f5      	b.n	100048f6 <_out_rev+0x9a>

1000490a <_ntoa_format>:
1000490a:	b5f0      	push	{r4, r5, r6, r7, lr}
1000490c:	46ce      	mov	lr, r9
1000490e:	4647      	mov	r7, r8
10004910:	b580      	push	{r7, lr}
10004912:	b085      	sub	sp, #20
10004914:	4694      	mov	ip, r2
10004916:	4698      	mov	r8, r3
10004918:	9d0c      	ldr	r5, [sp, #48]	; 0x30
1000491a:	9c0d      	ldr	r4, [sp, #52]	; 0x34
1000491c:	ab0e      	add	r3, sp, #56	; 0x38
1000491e:	781b      	ldrb	r3, [r3, #0]
10004920:	4699      	mov	r9, r3
10004922:	9a10      	ldr	r2, [sp, #64]	; 0x40
10004924:	9b11      	ldr	r3, [sp, #68]	; 0x44
10004926:	9e12      	ldr	r6, [sp, #72]	; 0x48
10004928:	07b7      	lsls	r7, r6, #30
1000492a:	d41c      	bmi.n	10004966 <_ntoa_format+0x5c>
1000492c:	2b00      	cmp	r3, #0
1000492e:	d00c      	beq.n	1000494a <_ntoa_format+0x40>
10004930:	07f7      	lsls	r7, r6, #31
10004932:	d50a      	bpl.n	1000494a <_ntoa_format+0x40>
10004934:	464f      	mov	r7, r9
10004936:	2f00      	cmp	r7, #0
10004938:	d102      	bne.n	10004940 <_ntoa_format+0x36>
1000493a:	370c      	adds	r7, #12
1000493c:	4237      	tst	r7, r6
1000493e:	d004      	beq.n	1000494a <_ntoa_format+0x40>
10004940:	3b01      	subs	r3, #1
10004942:	e002      	b.n	1000494a <_ntoa_format+0x40>
10004944:	2730      	movs	r7, #48	; 0x30
10004946:	552f      	strb	r7, [r5, r4]
10004948:	3401      	adds	r4, #1
1000494a:	4294      	cmp	r4, r2
1000494c:	d201      	bcs.n	10004952 <_ntoa_format+0x48>
1000494e:	2c1f      	cmp	r4, #31
10004950:	d9f8      	bls.n	10004944 <_ntoa_format+0x3a>
10004952:	07f7      	lsls	r7, r6, #31
10004954:	d507      	bpl.n	10004966 <_ntoa_format+0x5c>
10004956:	429c      	cmp	r4, r3
10004958:	d205      	bcs.n	10004966 <_ntoa_format+0x5c>
1000495a:	2c1f      	cmp	r4, #31
1000495c:	d803      	bhi.n	10004966 <_ntoa_format+0x5c>
1000495e:	2730      	movs	r7, #48	; 0x30
10004960:	552f      	strb	r7, [r5, r4]
10004962:	3401      	adds	r4, #1
10004964:	e7f5      	b.n	10004952 <_ntoa_format+0x48>
10004966:	06f7      	lsls	r7, r6, #27
10004968:	d515      	bpl.n	10004996 <_ntoa_format+0x8c>
1000496a:	0577      	lsls	r7, r6, #21
1000496c:	d405      	bmi.n	1000497a <_ntoa_format+0x70>
1000496e:	2c00      	cmp	r4, #0
10004970:	d003      	beq.n	1000497a <_ntoa_format+0x70>
10004972:	4294      	cmp	r4, r2
10004974:	d024      	beq.n	100049c0 <_ntoa_format+0xb6>
10004976:	429c      	cmp	r4, r3
10004978:	d022      	beq.n	100049c0 <_ntoa_format+0xb6>
1000497a:	9a0f      	ldr	r2, [sp, #60]	; 0x3c
1000497c:	2a10      	cmp	r2, #16
1000497e:	d02b      	beq.n	100049d8 <_ntoa_format+0xce>
10004980:	9a0f      	ldr	r2, [sp, #60]	; 0x3c
10004982:	2a10      	cmp	r2, #16
10004984:	d030      	beq.n	100049e8 <_ntoa_format+0xde>
10004986:	9a0f      	ldr	r2, [sp, #60]	; 0x3c
10004988:	2a02      	cmp	r2, #2
1000498a:	d035      	beq.n	100049f8 <_ntoa_format+0xee>
1000498c:	2c1f      	cmp	r4, #31
1000498e:	d802      	bhi.n	10004996 <_ntoa_format+0x8c>
10004990:	2230      	movs	r2, #48	; 0x30
10004992:	552a      	strb	r2, [r5, r4]
10004994:	3401      	adds	r4, #1
10004996:	2c1f      	cmp	r4, #31
10004998:	d805      	bhi.n	100049a6 <_ntoa_format+0x9c>
1000499a:	464a      	mov	r2, r9
1000499c:	2a00      	cmp	r2, #0
1000499e:	d031      	beq.n	10004a04 <_ntoa_format+0xfa>
100049a0:	222d      	movs	r2, #45	; 0x2d
100049a2:	552a      	strb	r2, [r5, r4]
100049a4:	3401      	adds	r4, #1
100049a6:	9603      	str	r6, [sp, #12]
100049a8:	9302      	str	r3, [sp, #8]
100049aa:	9401      	str	r4, [sp, #4]
100049ac:	9500      	str	r5, [sp, #0]
100049ae:	4643      	mov	r3, r8
100049b0:	4662      	mov	r2, ip
100049b2:	f7ff ff53 	bl	1000485c <_out_rev>
100049b6:	b005      	add	sp, #20
100049b8:	bcc0      	pop	{r6, r7}
100049ba:	46b9      	mov	r9, r7
100049bc:	46b0      	mov	r8, r6
100049be:	bdf0      	pop	{r4, r5, r6, r7, pc}
100049c0:	1e62      	subs	r2, r4, #1
100049c2:	2c01      	cmp	r4, #1
100049c4:	d006      	beq.n	100049d4 <_ntoa_format+0xca>
100049c6:	9f0f      	ldr	r7, [sp, #60]	; 0x3c
100049c8:	2f10      	cmp	r7, #16
100049ca:	d001      	beq.n	100049d0 <_ntoa_format+0xc6>
100049cc:	0014      	movs	r4, r2
100049ce:	e7d4      	b.n	1000497a <_ntoa_format+0x70>
100049d0:	3c02      	subs	r4, #2
100049d2:	e7d2      	b.n	1000497a <_ntoa_format+0x70>
100049d4:	0014      	movs	r4, r2
100049d6:	e7d0      	b.n	1000497a <_ntoa_format+0x70>
100049d8:	06b2      	lsls	r2, r6, #26
100049da:	d4d1      	bmi.n	10004980 <_ntoa_format+0x76>
100049dc:	2c1f      	cmp	r4, #31
100049de:	d8cf      	bhi.n	10004980 <_ntoa_format+0x76>
100049e0:	2278      	movs	r2, #120	; 0x78
100049e2:	552a      	strb	r2, [r5, r4]
100049e4:	3401      	adds	r4, #1
100049e6:	e7d1      	b.n	1000498c <_ntoa_format+0x82>
100049e8:	06b2      	lsls	r2, r6, #26
100049ea:	d5cc      	bpl.n	10004986 <_ntoa_format+0x7c>
100049ec:	2c1f      	cmp	r4, #31
100049ee:	d8ca      	bhi.n	10004986 <_ntoa_format+0x7c>
100049f0:	2258      	movs	r2, #88	; 0x58
100049f2:	552a      	strb	r2, [r5, r4]
100049f4:	3401      	adds	r4, #1
100049f6:	e7c9      	b.n	1000498c <_ntoa_format+0x82>
100049f8:	2c1f      	cmp	r4, #31
100049fa:	d8c7      	bhi.n	1000498c <_ntoa_format+0x82>
100049fc:	3260      	adds	r2, #96	; 0x60
100049fe:	552a      	strb	r2, [r5, r4]
10004a00:	3401      	adds	r4, #1
10004a02:	e7c3      	b.n	1000498c <_ntoa_format+0x82>
10004a04:	0772      	lsls	r2, r6, #29
10004a06:	d503      	bpl.n	10004a10 <_ntoa_format+0x106>
10004a08:	222b      	movs	r2, #43	; 0x2b
10004a0a:	552a      	strb	r2, [r5, r4]
10004a0c:	3401      	adds	r4, #1
10004a0e:	e7ca      	b.n	100049a6 <_ntoa_format+0x9c>
10004a10:	0732      	lsls	r2, r6, #28
10004a12:	d5c8      	bpl.n	100049a6 <_ntoa_format+0x9c>
10004a14:	2220      	movs	r2, #32
10004a16:	552a      	strb	r2, [r5, r4]
10004a18:	3401      	adds	r4, #1
10004a1a:	e7c4      	b.n	100049a6 <_ntoa_format+0x9c>

10004a1c <_ntoa_long>:
10004a1c:	b5f0      	push	{r4, r5, r6, r7, lr}
10004a1e:	46de      	mov	lr, fp
10004a20:	4657      	mov	r7, sl
10004a22:	464e      	mov	r6, r9
10004a24:	4645      	mov	r5, r8
10004a26:	b5e0      	push	{r5, r6, r7, lr}
10004a28:	b093      	sub	sp, #76	; 0x4c
10004a2a:	4681      	mov	r9, r0
10004a2c:	468a      	mov	sl, r1
10004a2e:	9208      	str	r2, [sp, #32]
10004a30:	9309      	str	r3, [sp, #36]	; 0x24
10004a32:	ab1c      	add	r3, sp, #112	; 0x70
10004a34:	cb10      	ldmia	r3!, {r4}
10004a36:	781b      	ldrb	r3, [r3, #0]
10004a38:	469b      	mov	fp, r3
10004a3a:	9d1e      	ldr	r5, [sp, #120]	; 0x78
10004a3c:	9b21      	ldr	r3, [sp, #132]	; 0x84
10004a3e:	4698      	mov	r8, r3
10004a40:	2c00      	cmp	r4, #0
10004a42:	d103      	bne.n	10004a4c <_ntoa_long+0x30>
10004a44:	2310      	movs	r3, #16
10004a46:	4642      	mov	r2, r8
10004a48:	439a      	bics	r2, r3
10004a4a:	4690      	mov	r8, r2
10004a4c:	2380      	movs	r3, #128	; 0x80
10004a4e:	00db      	lsls	r3, r3, #3
10004a50:	4646      	mov	r6, r8
10004a52:	401e      	ands	r6, r3
10004a54:	4642      	mov	r2, r8
10004a56:	421a      	tst	r2, r3
10004a58:	d012      	beq.n	10004a80 <_ntoa_long+0x64>
10004a5a:	2c00      	cmp	r4, #0
10004a5c:	d022      	beq.n	10004aa4 <_ntoa_long+0x88>
10004a5e:	2600      	movs	r6, #0
10004a60:	e00e      	b.n	10004a80 <_ntoa_long+0x64>
10004a62:	3330      	adds	r3, #48	; 0x30
10004a64:	b2d9      	uxtb	r1, r3
10004a66:	1c77      	adds	r7, r6, #1
10004a68:	ab0a      	add	r3, sp, #40	; 0x28
10004a6a:	5599      	strb	r1, [r3, r6]
10004a6c:	0029      	movs	r1, r5
10004a6e:	0020      	movs	r0, r4
10004a70:	f000 ffd6 	bl	10005a20 <__wrap___aeabi_uidiv>
10004a74:	42ac      	cmp	r4, r5
10004a76:	d316      	bcc.n	10004aa6 <_ntoa_long+0x8a>
10004a78:	2f1f      	cmp	r7, #31
10004a7a:	d814      	bhi.n	10004aa6 <_ntoa_long+0x8a>
10004a7c:	003e      	movs	r6, r7
10004a7e:	0004      	movs	r4, r0
10004a80:	0029      	movs	r1, r5
10004a82:	0020      	movs	r0, r4
10004a84:	f000 ffcc 	bl	10005a20 <__wrap___aeabi_uidiv>
10004a88:	b2cb      	uxtb	r3, r1
10004a8a:	2b09      	cmp	r3, #9
10004a8c:	d9e9      	bls.n	10004a62 <_ntoa_long+0x46>
10004a8e:	4642      	mov	r2, r8
10004a90:	0692      	lsls	r2, r2, #26
10004a92:	d505      	bpl.n	10004aa0 <_ntoa_long+0x84>
10004a94:	2141      	movs	r1, #65	; 0x41
10004a96:	18c9      	adds	r1, r1, r3
10004a98:	b2c9      	uxtb	r1, r1
10004a9a:	390a      	subs	r1, #10
10004a9c:	b2c9      	uxtb	r1, r1
10004a9e:	e7e2      	b.n	10004a66 <_ntoa_long+0x4a>
10004aa0:	2161      	movs	r1, #97	; 0x61
10004aa2:	e7f8      	b.n	10004a96 <_ntoa_long+0x7a>
10004aa4:	0027      	movs	r7, r4
10004aa6:	4643      	mov	r3, r8
10004aa8:	9306      	str	r3, [sp, #24]
10004aaa:	9b20      	ldr	r3, [sp, #128]	; 0x80
10004aac:	9305      	str	r3, [sp, #20]
10004aae:	9b1f      	ldr	r3, [sp, #124]	; 0x7c
10004ab0:	9304      	str	r3, [sp, #16]
10004ab2:	9503      	str	r5, [sp, #12]
10004ab4:	465b      	mov	r3, fp
10004ab6:	9302      	str	r3, [sp, #8]
10004ab8:	9701      	str	r7, [sp, #4]
10004aba:	ab0a      	add	r3, sp, #40	; 0x28
10004abc:	9300      	str	r3, [sp, #0]
10004abe:	9b09      	ldr	r3, [sp, #36]	; 0x24
10004ac0:	9a08      	ldr	r2, [sp, #32]
10004ac2:	4651      	mov	r1, sl
10004ac4:	4648      	mov	r0, r9
10004ac6:	f7ff ff20 	bl	1000490a <_ntoa_format>
10004aca:	b013      	add	sp, #76	; 0x4c
10004acc:	bcf0      	pop	{r4, r5, r6, r7}
10004ace:	46bb      	mov	fp, r7
10004ad0:	46b2      	mov	sl, r6
10004ad2:	46a9      	mov	r9, r5
10004ad4:	46a0      	mov	r8, r4
10004ad6:	bdf0      	pop	{r4, r5, r6, r7, pc}

10004ad8 <_ntoa_long_long>:
10004ad8:	b5f0      	push	{r4, r5, r6, r7, lr}
10004ada:	46de      	mov	lr, fp
10004adc:	4657      	mov	r7, sl
10004ade:	464e      	mov	r6, r9
10004ae0:	4645      	mov	r5, r8
10004ae2:	b5e0      	push	{r5, r6, r7, lr}
10004ae4:	b095      	sub	sp, #84	; 0x54
10004ae6:	9008      	str	r0, [sp, #32]
10004ae8:	9109      	str	r1, [sp, #36]	; 0x24
10004aea:	920a      	str	r2, [sp, #40]	; 0x28
10004aec:	930b      	str	r3, [sp, #44]	; 0x2c
10004aee:	9e1e      	ldr	r6, [sp, #120]	; 0x78
10004af0:	9c1f      	ldr	r4, [sp, #124]	; 0x7c
10004af2:	ab20      	add	r3, sp, #128	; 0x80
10004af4:	781b      	ldrb	r3, [r3, #0]
10004af6:	469b      	mov	fp, r3
10004af8:	9b22      	ldr	r3, [sp, #136]	; 0x88
10004afa:	4699      	mov	r9, r3
10004afc:	9d23      	ldr	r5, [sp, #140]	; 0x8c
10004afe:	9b26      	ldr	r3, [sp, #152]	; 0x98
10004b00:	469a      	mov	sl, r3
10004b02:	0033      	movs	r3, r6
10004b04:	4323      	orrs	r3, r4
10004b06:	d103      	bne.n	10004b10 <_ntoa_long_long+0x38>
10004b08:	3310      	adds	r3, #16
10004b0a:	4652      	mov	r2, sl
10004b0c:	439a      	bics	r2, r3
10004b0e:	4692      	mov	sl, r2
10004b10:	2380      	movs	r3, #128	; 0x80
10004b12:	00db      	lsls	r3, r3, #3
10004b14:	4657      	mov	r7, sl
10004b16:	401f      	ands	r7, r3
10004b18:	4652      	mov	r2, sl
10004b1a:	421a      	tst	r2, r3
10004b1c:	d019      	beq.n	10004b52 <_ntoa_long_long+0x7a>
10004b1e:	0033      	movs	r3, r6
10004b20:	4323      	orrs	r3, r4
10004b22:	d02d      	beq.n	10004b80 <_ntoa_long_long+0xa8>
10004b24:	2700      	movs	r7, #0
10004b26:	e014      	b.n	10004b52 <_ntoa_long_long+0x7a>
10004b28:	3330      	adds	r3, #48	; 0x30
10004b2a:	b2da      	uxtb	r2, r3
10004b2c:	1c7b      	adds	r3, r7, #1
10004b2e:	4698      	mov	r8, r3
10004b30:	ab0c      	add	r3, sp, #48	; 0x30
10004b32:	55da      	strb	r2, [r3, r7]
10004b34:	464a      	mov	r2, r9
10004b36:	002b      	movs	r3, r5
10004b38:	0030      	movs	r0, r6
10004b3a:	0021      	movs	r1, r4
10004b3c:	f000 ffae 	bl	10005a9c <__wrap___aeabi_uldivmod>
10004b40:	42a5      	cmp	r5, r4
10004b42:	d81f      	bhi.n	10004b84 <_ntoa_long_long+0xac>
10004b44:	d019      	beq.n	10004b7a <_ntoa_long_long+0xa2>
10004b46:	4643      	mov	r3, r8
10004b48:	2b1f      	cmp	r3, #31
10004b4a:	d81b      	bhi.n	10004b84 <_ntoa_long_long+0xac>
10004b4c:	4647      	mov	r7, r8
10004b4e:	0006      	movs	r6, r0
10004b50:	000c      	movs	r4, r1
10004b52:	464a      	mov	r2, r9
10004b54:	002b      	movs	r3, r5
10004b56:	0030      	movs	r0, r6
10004b58:	0021      	movs	r1, r4
10004b5a:	f000 ff9f 	bl	10005a9c <__wrap___aeabi_uldivmod>
10004b5e:	b2d3      	uxtb	r3, r2
10004b60:	2b09      	cmp	r3, #9
10004b62:	d9e1      	bls.n	10004b28 <_ntoa_long_long+0x50>
10004b64:	4652      	mov	r2, sl
10004b66:	0692      	lsls	r2, r2, #26
10004b68:	d505      	bpl.n	10004b76 <_ntoa_long_long+0x9e>
10004b6a:	2241      	movs	r2, #65	; 0x41
10004b6c:	18d2      	adds	r2, r2, r3
10004b6e:	b2d2      	uxtb	r2, r2
10004b70:	3a0a      	subs	r2, #10
10004b72:	b2d2      	uxtb	r2, r2
10004b74:	e7da      	b.n	10004b2c <_ntoa_long_long+0x54>
10004b76:	2261      	movs	r2, #97	; 0x61
10004b78:	e7f8      	b.n	10004b6c <_ntoa_long_long+0x94>
10004b7a:	45b1      	cmp	r9, r6
10004b7c:	d9e3      	bls.n	10004b46 <_ntoa_long_long+0x6e>
10004b7e:	e001      	b.n	10004b84 <_ntoa_long_long+0xac>
10004b80:	2300      	movs	r3, #0
10004b82:	4698      	mov	r8, r3
10004b84:	4653      	mov	r3, sl
10004b86:	9306      	str	r3, [sp, #24]
10004b88:	9b25      	ldr	r3, [sp, #148]	; 0x94
10004b8a:	9305      	str	r3, [sp, #20]
10004b8c:	9b24      	ldr	r3, [sp, #144]	; 0x90
10004b8e:	9304      	str	r3, [sp, #16]
10004b90:	464b      	mov	r3, r9
10004b92:	9303      	str	r3, [sp, #12]
10004b94:	465b      	mov	r3, fp
10004b96:	9302      	str	r3, [sp, #8]
10004b98:	4643      	mov	r3, r8
10004b9a:	9301      	str	r3, [sp, #4]
10004b9c:	ab0c      	add	r3, sp, #48	; 0x30
10004b9e:	9300      	str	r3, [sp, #0]
10004ba0:	9b0b      	ldr	r3, [sp, #44]	; 0x2c
10004ba2:	9a0a      	ldr	r2, [sp, #40]	; 0x28
10004ba4:	9909      	ldr	r1, [sp, #36]	; 0x24
10004ba6:	9808      	ldr	r0, [sp, #32]
10004ba8:	f7ff feaf 	bl	1000490a <_ntoa_format>
10004bac:	b015      	add	sp, #84	; 0x54
10004bae:	bcf0      	pop	{r4, r5, r6, r7}
10004bb0:	46bb      	mov	fp, r7
10004bb2:	46b2      	mov	sl, r6
10004bb4:	46a9      	mov	r9, r5
10004bb6:	46a0      	mov	r8, r4
10004bb8:	bdf0      	pop	{r4, r5, r6, r7, pc}
	...

10004bbc <_etoa>:
10004bbc:	b5f0      	push	{r4, r5, r6, r7, lr}
10004bbe:	46de      	mov	lr, fp
10004bc0:	4657      	mov	r7, sl
10004bc2:	464e      	mov	r6, r9
10004bc4:	4645      	mov	r5, r8
10004bc6:	b5e0      	push	{r5, r6, r7, lr}
10004bc8:	b091      	sub	sp, #68	; 0x44
10004bca:	4683      	mov	fp, r0
10004bcc:	468a      	mov	sl, r1
10004bce:	920c      	str	r2, [sp, #48]	; 0x30
10004bd0:	4698      	mov	r8, r3
10004bd2:	9c1a      	ldr	r4, [sp, #104]	; 0x68
10004bd4:	9408      	str	r4, [sp, #32]
10004bd6:	9d1b      	ldr	r5, [sp, #108]	; 0x6c
10004bd8:	9509      	str	r5, [sp, #36]	; 0x24
10004bda:	0022      	movs	r2, r4
10004bdc:	002b      	movs	r3, r5
10004bde:	0020      	movs	r0, r4
10004be0:	0029      	movs	r1, r5
10004be2:	f001 f9e6 	bl	10005fb2 <__wrap___aeabi_dcmpun>
10004be6:	2800      	cmp	r0, #0
10004be8:	d000      	beq.n	10004bec <_etoa+0x30>
10004bea:	e0e5      	b.n	10004db8 <_etoa+0x1fc>
10004bec:	2201      	movs	r2, #1
10004bee:	4252      	negs	r2, r2
10004bf0:	4bd7      	ldr	r3, [pc, #860]	; (10004f50 <_etoa+0x394>)
10004bf2:	0020      	movs	r0, r4
10004bf4:	0029      	movs	r1, r5
10004bf6:	f001 f9d7 	bl	10005fa8 <__wrap___aeabi_dcmpgt>
10004bfa:	2800      	cmp	r0, #0
10004bfc:	d000      	beq.n	10004c00 <_etoa+0x44>
10004bfe:	e0db      	b.n	10004db8 <_etoa+0x1fc>
10004c00:	2201      	movs	r2, #1
10004c02:	4252      	negs	r2, r2
10004c04:	4bd3      	ldr	r3, [pc, #844]	; (10004f54 <_etoa+0x398>)
10004c06:	0020      	movs	r0, r4
10004c08:	0029      	movs	r1, r5
10004c0a:	f001 f9b7 	bl	10005f7c <__wrap___aeabi_dcmplt>
10004c0e:	2800      	cmp	r0, #0
10004c10:	d000      	beq.n	10004c14 <_etoa+0x58>
10004c12:	e0d1      	b.n	10004db8 <_etoa+0x1fc>
10004c14:	2200      	movs	r2, #0
10004c16:	2300      	movs	r3, #0
10004c18:	9e08      	ldr	r6, [sp, #32]
10004c1a:	0030      	movs	r0, r6
10004c1c:	9d09      	ldr	r5, [sp, #36]	; 0x24
10004c1e:	0029      	movs	r1, r5
10004c20:	f001 f9ac 	bl	10005f7c <__wrap___aeabi_dcmplt>
10004c24:	2800      	cmp	r0, #0
10004c26:	d000      	beq.n	10004c2a <_etoa+0x6e>
10004c28:	e0dd      	b.n	10004de6 <_etoa+0x22a>
10004c2a:	9808      	ldr	r0, [sp, #32]
10004c2c:	9909      	ldr	r1, [sp, #36]	; 0x24
10004c2e:	9006      	str	r0, [sp, #24]
10004c30:	9107      	str	r1, [sp, #28]
10004c32:	2380      	movs	r3, #128	; 0x80
10004c34:	00db      	lsls	r3, r3, #3
10004c36:	9a1e      	ldr	r2, [sp, #120]	; 0x78
10004c38:	401a      	ands	r2, r3
10004c3a:	920d      	str	r2, [sp, #52]	; 0x34
10004c3c:	9a1e      	ldr	r2, [sp, #120]	; 0x78
10004c3e:	421a      	tst	r2, r3
10004c40:	d101      	bne.n	10004c46 <_etoa+0x8a>
10004c42:	2306      	movs	r3, #6
10004c44:	931c      	str	r3, [sp, #112]	; 0x70
10004c46:	9806      	ldr	r0, [sp, #24]
10004c48:	9907      	ldr	r1, [sp, #28]
10004c4a:	0004      	movs	r4, r0
10004c4c:	000d      	movs	r5, r1
10004c4e:	000a      	movs	r2, r1
10004c50:	0006      	movs	r6, r0
10004c52:	4302      	orrs	r2, r0
10004c54:	d100      	bne.n	10004c58 <_etoa+0x9c>
10004c56:	e0d1      	b.n	10004dfc <_etoa+0x240>
10004c58:	0d08      	lsrs	r0, r1, #20
10004c5a:	0540      	lsls	r0, r0, #21
10004c5c:	0d40      	lsrs	r0, r0, #21
10004c5e:	4cbe      	ldr	r4, [pc, #760]	; (10004f58 <_etoa+0x39c>)
10004c60:	46a4      	mov	ip, r4
10004c62:	4460      	add	r0, ip
10004c64:	030a      	lsls	r2, r1, #12
10004c66:	0b12      	lsrs	r2, r2, #12
10004c68:	4bbc      	ldr	r3, [pc, #752]	; (10004f5c <_etoa+0x3a0>)
10004c6a:	4313      	orrs	r3, r2
10004c6c:	001f      	movs	r7, r3
10004c6e:	f001 f9b3 	bl	10005fd8 <__wrap___aeabi_i2d>
10004c72:	4abb      	ldr	r2, [pc, #748]	; (10004f60 <_etoa+0x3a4>)
10004c74:	4bbb      	ldr	r3, [pc, #748]	; (10004f64 <_etoa+0x3a8>)
10004c76:	f001 f93e 	bl	10005ef6 <__wrap___aeabi_dmul>
10004c7a:	4abb      	ldr	r2, [pc, #748]	; (10004f68 <_etoa+0x3ac>)
10004c7c:	4bbb      	ldr	r3, [pc, #748]	; (10004f6c <_etoa+0x3b0>)
10004c7e:	f001 f913 	bl	10005ea8 <__wrap___aeabi_dadd>
10004c82:	0004      	movs	r4, r0
10004c84:	000d      	movs	r5, r1
10004c86:	2200      	movs	r2, #0
10004c88:	4bb9      	ldr	r3, [pc, #740]	; (10004f70 <_etoa+0x3b4>)
10004c8a:	0030      	movs	r0, r6
10004c8c:	0039      	movs	r1, r7
10004c8e:	f001 f902 	bl	10005e96 <__wrap___aeabi_dsub>
10004c92:	4ab8      	ldr	r2, [pc, #736]	; (10004f74 <_etoa+0x3b8>)
10004c94:	4bb8      	ldr	r3, [pc, #736]	; (10004f78 <_etoa+0x3bc>)
10004c96:	f001 f92e 	bl	10005ef6 <__wrap___aeabi_dmul>
10004c9a:	0002      	movs	r2, r0
10004c9c:	000b      	movs	r3, r1
10004c9e:	0020      	movs	r0, r4
10004ca0:	0029      	movs	r1, r5
10004ca2:	f001 f901 	bl	10005ea8 <__wrap___aeabi_dadd>
10004ca6:	f001 f9af 	bl	10006008 <__wrap___aeabi_d2iz>
10004caa:	4681      	mov	r9, r0
10004cac:	f001 f994 	bl	10005fd8 <__wrap___aeabi_i2d>
10004cb0:	0004      	movs	r4, r0
10004cb2:	000d      	movs	r5, r1
10004cb4:	4ab1      	ldr	r2, [pc, #708]	; (10004f7c <_etoa+0x3c0>)
10004cb6:	4bb2      	ldr	r3, [pc, #712]	; (10004f80 <_etoa+0x3c4>)
10004cb8:	f001 f91d 	bl	10005ef6 <__wrap___aeabi_dmul>
10004cbc:	2200      	movs	r2, #0
10004cbe:	4bb1      	ldr	r3, [pc, #708]	; (10004f84 <_etoa+0x3c8>)
10004cc0:	f001 f8f2 	bl	10005ea8 <__wrap___aeabi_dadd>
10004cc4:	f001 f9a0 	bl	10006008 <__wrap___aeabi_d2iz>
10004cc8:	0006      	movs	r6, r0
10004cca:	4aaf      	ldr	r2, [pc, #700]	; (10004f88 <_etoa+0x3cc>)
10004ccc:	4baf      	ldr	r3, [pc, #700]	; (10004f8c <_etoa+0x3d0>)
10004cce:	0020      	movs	r0, r4
10004cd0:	0029      	movs	r1, r5
10004cd2:	f001 f910 	bl	10005ef6 <__wrap___aeabi_dmul>
10004cd6:	0004      	movs	r4, r0
10004cd8:	000d      	movs	r5, r1
10004cda:	0030      	movs	r0, r6
10004cdc:	f001 f97c 	bl	10005fd8 <__wrap___aeabi_i2d>
10004ce0:	4aab      	ldr	r2, [pc, #684]	; (10004f90 <_etoa+0x3d4>)
10004ce2:	4bac      	ldr	r3, [pc, #688]	; (10004f94 <_etoa+0x3d8>)
10004ce4:	f001 f907 	bl	10005ef6 <__wrap___aeabi_dmul>
10004ce8:	0002      	movs	r2, r0
10004cea:	000b      	movs	r3, r1
10004cec:	0020      	movs	r0, r4
10004cee:	0029      	movs	r1, r5
10004cf0:	f001 f8d1 	bl	10005e96 <__wrap___aeabi_dsub>
10004cf4:	0004      	movs	r4, r0
10004cf6:	000d      	movs	r5, r1
10004cf8:	0002      	movs	r2, r0
10004cfa:	000b      	movs	r3, r1
10004cfc:	f001 f8fb 	bl	10005ef6 <__wrap___aeabi_dmul>
10004d00:	900a      	str	r0, [sp, #40]	; 0x28
10004d02:	910b      	str	r1, [sp, #44]	; 0x2c
10004d04:	4ba4      	ldr	r3, [pc, #656]	; (10004f98 <_etoa+0x3dc>)
10004d06:	18f3      	adds	r3, r6, r3
10004d08:	2600      	movs	r6, #0
10004d0a:	051f      	lsls	r7, r3, #20
10004d0c:	0022      	movs	r2, r4
10004d0e:	002b      	movs	r3, r5
10004d10:	0020      	movs	r0, r4
10004d12:	0029      	movs	r1, r5
10004d14:	f001 f8c8 	bl	10005ea8 <__wrap___aeabi_dadd>
10004d18:	900e      	str	r0, [sp, #56]	; 0x38
10004d1a:	910f      	str	r1, [sp, #60]	; 0x3c
10004d1c:	0022      	movs	r2, r4
10004d1e:	002b      	movs	r3, r5
10004d20:	2000      	movs	r0, #0
10004d22:	2180      	movs	r1, #128	; 0x80
10004d24:	05c9      	lsls	r1, r1, #23
10004d26:	f001 f8b6 	bl	10005e96 <__wrap___aeabi_dsub>
10004d2a:	0004      	movs	r4, r0
10004d2c:	000d      	movs	r5, r1
10004d2e:	2200      	movs	r2, #0
10004d30:	4b9a      	ldr	r3, [pc, #616]	; (10004f9c <_etoa+0x3e0>)
10004d32:	980a      	ldr	r0, [sp, #40]	; 0x28
10004d34:	990b      	ldr	r1, [sp, #44]	; 0x2c
10004d36:	f001 f8c0 	bl	10005eba <__wrap___aeabi_ddiv>
10004d3a:	2200      	movs	r2, #0
10004d3c:	4b98      	ldr	r3, [pc, #608]	; (10004fa0 <_etoa+0x3e4>)
10004d3e:	f001 f8b3 	bl	10005ea8 <__wrap___aeabi_dadd>
10004d42:	0002      	movs	r2, r0
10004d44:	000b      	movs	r3, r1
10004d46:	980a      	ldr	r0, [sp, #40]	; 0x28
10004d48:	990b      	ldr	r1, [sp, #44]	; 0x2c
10004d4a:	f001 f8b6 	bl	10005eba <__wrap___aeabi_ddiv>
10004d4e:	2200      	movs	r2, #0
10004d50:	4b94      	ldr	r3, [pc, #592]	; (10004fa4 <_etoa+0x3e8>)
10004d52:	f001 f8a9 	bl	10005ea8 <__wrap___aeabi_dadd>
10004d56:	0002      	movs	r2, r0
10004d58:	000b      	movs	r3, r1
10004d5a:	980a      	ldr	r0, [sp, #40]	; 0x28
10004d5c:	990b      	ldr	r1, [sp, #44]	; 0x2c
10004d5e:	f001 f8ac 	bl	10005eba <__wrap___aeabi_ddiv>
10004d62:	0002      	movs	r2, r0
10004d64:	000b      	movs	r3, r1
10004d66:	0020      	movs	r0, r4
10004d68:	0029      	movs	r1, r5
10004d6a:	f001 f89d 	bl	10005ea8 <__wrap___aeabi_dadd>
10004d6e:	0002      	movs	r2, r0
10004d70:	000b      	movs	r3, r1
10004d72:	980e      	ldr	r0, [sp, #56]	; 0x38
10004d74:	990f      	ldr	r1, [sp, #60]	; 0x3c
10004d76:	f001 f8a0 	bl	10005eba <__wrap___aeabi_ddiv>
10004d7a:	2200      	movs	r2, #0
10004d7c:	4b77      	ldr	r3, [pc, #476]	; (10004f5c <_etoa+0x3a0>)
10004d7e:	f001 f893 	bl	10005ea8 <__wrap___aeabi_dadd>
10004d82:	0032      	movs	r2, r6
10004d84:	003b      	movs	r3, r7
10004d86:	f001 f8b6 	bl	10005ef6 <__wrap___aeabi_dmul>
10004d8a:	0006      	movs	r6, r0
10004d8c:	000f      	movs	r7, r1
10004d8e:	0004      	movs	r4, r0
10004d90:	000d      	movs	r5, r1
10004d92:	9a06      	ldr	r2, [sp, #24]
10004d94:	9b07      	ldr	r3, [sp, #28]
10004d96:	f001 f907 	bl	10005fa8 <__wrap___aeabi_dcmpgt>
10004d9a:	2800      	cmp	r0, #0
10004d9c:	d030      	beq.n	10004e00 <_etoa+0x244>
10004d9e:	2301      	movs	r3, #1
10004da0:	425b      	negs	r3, r3
10004da2:	469c      	mov	ip, r3
10004da4:	44e1      	add	r9, ip
10004da6:	2200      	movs	r2, #0
10004da8:	4b7d      	ldr	r3, [pc, #500]	; (10004fa0 <_etoa+0x3e4>)
10004daa:	0030      	movs	r0, r6
10004dac:	0039      	movs	r1, r7
10004dae:	f001 f884 	bl	10005eba <__wrap___aeabi_ddiv>
10004db2:	0004      	movs	r4, r0
10004db4:	000d      	movs	r5, r1
10004db6:	e023      	b.n	10004e00 <_etoa+0x244>
10004db8:	9b1e      	ldr	r3, [sp, #120]	; 0x78
10004dba:	9304      	str	r3, [sp, #16]
10004dbc:	9b1d      	ldr	r3, [sp, #116]	; 0x74
10004dbe:	9303      	str	r3, [sp, #12]
10004dc0:	9b1c      	ldr	r3, [sp, #112]	; 0x70
10004dc2:	9302      	str	r3, [sp, #8]
10004dc4:	9a08      	ldr	r2, [sp, #32]
10004dc6:	9b09      	ldr	r3, [sp, #36]	; 0x24
10004dc8:	9200      	str	r2, [sp, #0]
10004dca:	9301      	str	r3, [sp, #4]
10004dcc:	4643      	mov	r3, r8
10004dce:	9a0c      	ldr	r2, [sp, #48]	; 0x30
10004dd0:	4651      	mov	r1, sl
10004dd2:	4658      	mov	r0, fp
10004dd4:	f000 f8fc 	bl	10004fd0 <_ftoa>
10004dd8:	b011      	add	sp, #68	; 0x44
10004dda:	bcf0      	pop	{r4, r5, r6, r7}
10004ddc:	46bb      	mov	fp, r7
10004dde:	46b2      	mov	sl, r6
10004de0:	46a9      	mov	r9, r5
10004de2:	46a0      	mov	r8, r4
10004de4:	bdf0      	pop	{r4, r5, r6, r7, pc}
10004de6:	2300      	movs	r3, #0
10004de8:	2400      	movs	r4, #0
10004dea:	9306      	str	r3, [sp, #24]
10004dec:	9407      	str	r4, [sp, #28]
10004dee:	9606      	str	r6, [sp, #24]
10004df0:	2380      	movs	r3, #128	; 0x80
10004df2:	061b      	lsls	r3, r3, #24
10004df4:	469c      	mov	ip, r3
10004df6:	4465      	add	r5, ip
10004df8:	9507      	str	r5, [sp, #28]
10004dfa:	e71a      	b.n	10004c32 <_etoa+0x76>
10004dfc:	2300      	movs	r3, #0
10004dfe:	4699      	mov	r9, r3
10004e00:	464b      	mov	r3, r9
10004e02:	3363      	adds	r3, #99	; 0x63
10004e04:	2bc6      	cmp	r3, #198	; 0xc6
10004e06:	d81e      	bhi.n	10004e46 <_etoa+0x28a>
10004e08:	2604      	movs	r6, #4
10004e0a:	9b1e      	ldr	r3, [sp, #120]	; 0x78
10004e0c:	051b      	lsls	r3, r3, #20
10004e0e:	d526      	bpl.n	10004e5e <_etoa+0x2a2>
10004e10:	002b      	movs	r3, r5
10004e12:	4323      	orrs	r3, r4
10004e14:	d00f      	beq.n	10004e36 <_etoa+0x27a>
10004e16:	4a64      	ldr	r2, [pc, #400]	; (10004fa8 <_etoa+0x3ec>)
10004e18:	4b64      	ldr	r3, [pc, #400]	; (10004fac <_etoa+0x3f0>)
10004e1a:	9806      	ldr	r0, [sp, #24]
10004e1c:	9907      	ldr	r1, [sp, #28]
10004e1e:	f001 f8bb 	bl	10005f98 <__wrap___aeabi_dcmpge>
10004e22:	2800      	cmp	r0, #0
10004e24:	d079      	beq.n	10004f1a <_etoa+0x35e>
10004e26:	2200      	movs	r2, #0
10004e28:	4b61      	ldr	r3, [pc, #388]	; (10004fb0 <_etoa+0x3f4>)
10004e2a:	9806      	ldr	r0, [sp, #24]
10004e2c:	9907      	ldr	r1, [sp, #28]
10004e2e:	f001 f8a5 	bl	10005f7c <__wrap___aeabi_dcmplt>
10004e32:	2800      	cmp	r0, #0
10004e34:	d071      	beq.n	10004f1a <_etoa+0x35e>
10004e36:	9b1c      	ldr	r3, [sp, #112]	; 0x70
10004e38:	454b      	cmp	r3, r9
10004e3a:	dd06      	ble.n	10004e4a <_etoa+0x28e>
10004e3c:	464a      	mov	r2, r9
10004e3e:	1a98      	subs	r0, r3, r2
10004e40:	1e43      	subs	r3, r0, #1
10004e42:	931c      	str	r3, [sp, #112]	; 0x70
10004e44:	e003      	b.n	10004e4e <_etoa+0x292>
10004e46:	2605      	movs	r6, #5
10004e48:	e7df      	b.n	10004e0a <_etoa+0x24e>
10004e4a:	2300      	movs	r3, #0
10004e4c:	931c      	str	r3, [sp, #112]	; 0x70
10004e4e:	2380      	movs	r3, #128	; 0x80
10004e50:	00db      	lsls	r3, r3, #3
10004e52:	9a1e      	ldr	r2, [sp, #120]	; 0x78
10004e54:	431a      	orrs	r2, r3
10004e56:	921e      	str	r2, [sp, #120]	; 0x78
10004e58:	2600      	movs	r6, #0
10004e5a:	2300      	movs	r3, #0
10004e5c:	4699      	mov	r9, r3
10004e5e:	9b1d      	ldr	r3, [sp, #116]	; 0x74
10004e60:	429e      	cmp	r6, r3
10004e62:	d264      	bcs.n	10004f2e <_etoa+0x372>
10004e64:	1b9f      	subs	r7, r3, r6
10004e66:	2302      	movs	r3, #2
10004e68:	9a1e      	ldr	r2, [sp, #120]	; 0x78
10004e6a:	401a      	ands	r2, r3
10004e6c:	920a      	str	r2, [sp, #40]	; 0x28
10004e6e:	9a1e      	ldr	r2, [sp, #120]	; 0x78
10004e70:	4213      	tst	r3, r2
10004e72:	d002      	beq.n	10004e7a <_etoa+0x2be>
10004e74:	2e00      	cmp	r6, #0
10004e76:	d000      	beq.n	10004e7a <_etoa+0x2be>
10004e78:	2700      	movs	r7, #0
10004e7a:	464b      	mov	r3, r9
10004e7c:	2b00      	cmp	r3, #0
10004e7e:	d007      	beq.n	10004e90 <_etoa+0x2d4>
10004e80:	0022      	movs	r2, r4
10004e82:	002b      	movs	r3, r5
10004e84:	9806      	ldr	r0, [sp, #24]
10004e86:	9907      	ldr	r1, [sp, #28]
10004e88:	f001 f817 	bl	10005eba <__wrap___aeabi_ddiv>
10004e8c:	9006      	str	r0, [sp, #24]
10004e8e:	9107      	str	r1, [sp, #28]
10004e90:	2200      	movs	r2, #0
10004e92:	2300      	movs	r3, #0
10004e94:	9808      	ldr	r0, [sp, #32]
10004e96:	9909      	ldr	r1, [sp, #36]	; 0x24
10004e98:	f001 f870 	bl	10005f7c <__wrap___aeabi_dcmplt>
10004e9c:	2800      	cmp	r0, #0
10004e9e:	d148      	bne.n	10004f32 <_etoa+0x376>
10004ea0:	4b44      	ldr	r3, [pc, #272]	; (10004fb4 <_etoa+0x3f8>)
10004ea2:	9a1e      	ldr	r2, [sp, #120]	; 0x78
10004ea4:	4013      	ands	r3, r2
10004ea6:	9304      	str	r3, [sp, #16]
10004ea8:	9703      	str	r7, [sp, #12]
10004eaa:	9b1c      	ldr	r3, [sp, #112]	; 0x70
10004eac:	9302      	str	r3, [sp, #8]
10004eae:	9b06      	ldr	r3, [sp, #24]
10004eb0:	9c07      	ldr	r4, [sp, #28]
10004eb2:	9300      	str	r3, [sp, #0]
10004eb4:	9401      	str	r4, [sp, #4]
10004eb6:	4643      	mov	r3, r8
10004eb8:	9a0c      	ldr	r2, [sp, #48]	; 0x30
10004eba:	4651      	mov	r1, sl
10004ebc:	4658      	mov	r0, fp
10004ebe:	f000 f887 	bl	10004fd0 <_ftoa>
10004ec2:	2e00      	cmp	r6, #0
10004ec4:	d100      	bne.n	10004ec8 <_etoa+0x30c>
10004ec6:	e787      	b.n	10004dd8 <_etoa+0x21c>
10004ec8:	9b1e      	ldr	r3, [sp, #120]	; 0x78
10004eca:	069b      	lsls	r3, r3, #26
10004ecc:	d53d      	bpl.n	10004f4a <_etoa+0x38e>
10004ece:	2545      	movs	r5, #69	; 0x45
10004ed0:	1c44      	adds	r4, r0, #1
10004ed2:	4643      	mov	r3, r8
10004ed4:	0002      	movs	r2, r0
10004ed6:	4651      	mov	r1, sl
10004ed8:	0028      	movs	r0, r5
10004eda:	47d8      	blx	fp
10004edc:	464b      	mov	r3, r9
10004ede:	17da      	asrs	r2, r3, #31
10004ee0:	189b      	adds	r3, r3, r2
10004ee2:	4053      	eors	r3, r2
10004ee4:	2205      	movs	r2, #5
10004ee6:	9205      	str	r2, [sp, #20]
10004ee8:	3e01      	subs	r6, #1
10004eea:	9604      	str	r6, [sp, #16]
10004eec:	2200      	movs	r2, #0
10004eee:	9203      	str	r2, [sp, #12]
10004ef0:	320a      	adds	r2, #10
10004ef2:	9202      	str	r2, [sp, #8]
10004ef4:	464a      	mov	r2, r9
10004ef6:	0fd0      	lsrs	r0, r2, #31
10004ef8:	9001      	str	r0, [sp, #4]
10004efa:	9300      	str	r3, [sp, #0]
10004efc:	4643      	mov	r3, r8
10004efe:	0022      	movs	r2, r4
10004f00:	4651      	mov	r1, sl
10004f02:	4658      	mov	r0, fp
10004f04:	f7ff fd8a 	bl	10004a1c <_ntoa_long>
10004f08:	9b0a      	ldr	r3, [sp, #40]	; 0x28
10004f0a:	2b00      	cmp	r3, #0
10004f0c:	d100      	bne.n	10004f10 <_etoa+0x354>
10004f0e:	e763      	b.n	10004dd8 <_etoa+0x21c>
10004f10:	0002      	movs	r2, r0
10004f12:	465f      	mov	r7, fp
10004f14:	9e0c      	ldr	r6, [sp, #48]	; 0x30
10004f16:	9d1d      	ldr	r5, [sp, #116]	; 0x74
10004f18:	e054      	b.n	10004fc4 <_etoa+0x408>
10004f1a:	9b1c      	ldr	r3, [sp, #112]	; 0x70
10004f1c:	2b00      	cmp	r3, #0
10004f1e:	d09e      	beq.n	10004e5e <_etoa+0x2a2>
10004f20:	9b0d      	ldr	r3, [sp, #52]	; 0x34
10004f22:	2b00      	cmp	r3, #0
10004f24:	d09b      	beq.n	10004e5e <_etoa+0x2a2>
10004f26:	9b1c      	ldr	r3, [sp, #112]	; 0x70
10004f28:	3b01      	subs	r3, #1
10004f2a:	931c      	str	r3, [sp, #112]	; 0x70
10004f2c:	e797      	b.n	10004e5e <_etoa+0x2a2>
10004f2e:	2700      	movs	r7, #0
10004f30:	e799      	b.n	10004e66 <_etoa+0x2aa>
10004f32:	9c06      	ldr	r4, [sp, #24]
10004f34:	9d07      	ldr	r5, [sp, #28]
10004f36:	0022      	movs	r2, r4
10004f38:	0029      	movs	r1, r5
10004f3a:	2080      	movs	r0, #128	; 0x80
10004f3c:	0600      	lsls	r0, r0, #24
10004f3e:	4684      	mov	ip, r0
10004f40:	4461      	add	r1, ip
10004f42:	000b      	movs	r3, r1
10004f44:	9206      	str	r2, [sp, #24]
10004f46:	9307      	str	r3, [sp, #28]
10004f48:	e7aa      	b.n	10004ea0 <_etoa+0x2e4>
10004f4a:	2565      	movs	r5, #101	; 0x65
10004f4c:	e7c0      	b.n	10004ed0 <_etoa+0x314>
10004f4e:	46c0      	nop			; (mov r8, r8)
10004f50:	7fefffff 	.word	0x7fefffff
10004f54:	ffefffff 	.word	0xffefffff
10004f58:	fffffc01 	.word	0xfffffc01
10004f5c:	3ff00000 	.word	0x3ff00000
10004f60:	509f79fb 	.word	0x509f79fb
10004f64:	3fd34413 	.word	0x3fd34413
10004f68:	8b60c8b3 	.word	0x8b60c8b3
10004f6c:	3fc68a28 	.word	0x3fc68a28
10004f70:	3ff80000 	.word	0x3ff80000
10004f74:	636f4361 	.word	0x636f4361
10004f78:	3fd287a7 	.word	0x3fd287a7
10004f7c:	0979a371 	.word	0x0979a371
10004f80:	400a934f 	.word	0x400a934f
10004f84:	3fe00000 	.word	0x3fe00000
10004f88:	bbb55516 	.word	0xbbb55516
10004f8c:	40026bb1 	.word	0x40026bb1
10004f90:	fefa39ef 	.word	0xfefa39ef
10004f94:	3fe62e42 	.word	0x3fe62e42
10004f98:	000003ff 	.word	0x000003ff
10004f9c:	402c0000 	.word	0x402c0000
10004fa0:	40240000 	.word	0x40240000
10004fa4:	40180000 	.word	0x40180000
10004fa8:	eb1c432d 	.word	0xeb1c432d
10004fac:	3f1a36e2 	.word	0x3f1a36e2
10004fb0:	412e8480 	.word	0x412e8480
10004fb4:	fffff7ff 	.word	0xfffff7ff
10004fb8:	1c54      	adds	r4, r2, #1
10004fba:	4643      	mov	r3, r8
10004fbc:	4651      	mov	r1, sl
10004fbe:	2020      	movs	r0, #32
10004fc0:	47b8      	blx	r7
10004fc2:	0022      	movs	r2, r4
10004fc4:	1b93      	subs	r3, r2, r6
10004fc6:	42ab      	cmp	r3, r5
10004fc8:	d3f6      	bcc.n	10004fb8 <_etoa+0x3fc>
10004fca:	0010      	movs	r0, r2
10004fcc:	e704      	b.n	10004dd8 <_etoa+0x21c>
10004fce:	46c0      	nop			; (mov r8, r8)

10004fd0 <_ftoa>:
10004fd0:	b5f0      	push	{r4, r5, r6, r7, lr}
10004fd2:	46de      	mov	lr, fp
10004fd4:	4657      	mov	r7, sl
10004fd6:	464e      	mov	r6, r9
10004fd8:	4645      	mov	r5, r8
10004fda:	b5e0      	push	{r5, r6, r7, lr}
10004fdc:	b095      	sub	sp, #84	; 0x54
10004fde:	9006      	str	r0, [sp, #24]
10004fe0:	9107      	str	r1, [sp, #28]
10004fe2:	4693      	mov	fp, r2
10004fe4:	4699      	mov	r9, r3
10004fe6:	9f20      	ldr	r7, [sp, #128]	; 0x80
10004fe8:	9a1e      	ldr	r2, [sp, #120]	; 0x78
10004fea:	9b1f      	ldr	r3, [sp, #124]	; 0x7c
10004fec:	0010      	movs	r0, r2
10004fee:	0019      	movs	r1, r3
10004ff0:	f000 ffdf 	bl	10005fb2 <__wrap___aeabi_dcmpun>
10004ff4:	2800      	cmp	r0, #0
10004ff6:	d131      	bne.n	1000505c <_ftoa+0x8c>
10004ff8:	2201      	movs	r2, #1
10004ffa:	4252      	negs	r2, r2
10004ffc:	4bbf      	ldr	r3, [pc, #764]	; (100052fc <_ftoa+0x32c>)
10004ffe:	981e      	ldr	r0, [sp, #120]	; 0x78
10005000:	991f      	ldr	r1, [sp, #124]	; 0x7c
10005002:	f000 ffbb 	bl	10005f7c <__wrap___aeabi_dcmplt>
10005006:	2800      	cmp	r0, #0
10005008:	d137      	bne.n	1000507a <_ftoa+0xaa>
1000500a:	2201      	movs	r2, #1
1000500c:	4252      	negs	r2, r2
1000500e:	4bbc      	ldr	r3, [pc, #752]	; (10005300 <_ftoa+0x330>)
10005010:	981e      	ldr	r0, [sp, #120]	; 0x78
10005012:	991f      	ldr	r1, [sp, #124]	; 0x7c
10005014:	f000 ffc8 	bl	10005fa8 <__wrap___aeabi_dcmpgt>
10005018:	2800      	cmp	r0, #0
1000501a:	d13d      	bne.n	10005098 <_ftoa+0xc8>
1000501c:	2200      	movs	r2, #0
1000501e:	4bb9      	ldr	r3, [pc, #740]	; (10005304 <_ftoa+0x334>)
10005020:	981e      	ldr	r0, [sp, #120]	; 0x78
10005022:	991f      	ldr	r1, [sp, #124]	; 0x7c
10005024:	f000 ffc0 	bl	10005fa8 <__wrap___aeabi_dcmpgt>
10005028:	2800      	cmp	r0, #0
1000502a:	d150      	bne.n	100050ce <_ftoa+0xfe>
1000502c:	2200      	movs	r2, #0
1000502e:	4bb6      	ldr	r3, [pc, #728]	; (10005308 <_ftoa+0x338>)
10005030:	981e      	ldr	r0, [sp, #120]	; 0x78
10005032:	991f      	ldr	r1, [sp, #124]	; 0x7c
10005034:	f000 ffa2 	bl	10005f7c <__wrap___aeabi_dcmplt>
10005038:	2800      	cmp	r0, #0
1000503a:	d148      	bne.n	100050ce <_ftoa+0xfe>
1000503c:	2200      	movs	r2, #0
1000503e:	2300      	movs	r3, #0
10005040:	981e      	ldr	r0, [sp, #120]	; 0x78
10005042:	991f      	ldr	r1, [sp, #124]	; 0x7c
10005044:	f000 ff9a 	bl	10005f7c <__wrap___aeabi_dcmplt>
10005048:	2800      	cmp	r0, #0
1000504a:	d150      	bne.n	100050ee <_ftoa+0x11e>
1000504c:	2300      	movs	r3, #0
1000504e:	4698      	mov	r8, r3
10005050:	9b22      	ldr	r3, [sp, #136]	; 0x88
10005052:	055b      	lsls	r3, r3, #21
10005054:	d400      	bmi.n	10005058 <_ftoa+0x88>
10005056:	e0b6      	b.n	100051c6 <_ftoa+0x1f6>
10005058:	2400      	movs	r4, #0
1000505a:	e058      	b.n	1000510e <_ftoa+0x13e>
1000505c:	9b22      	ldr	r3, [sp, #136]	; 0x88
1000505e:	9303      	str	r3, [sp, #12]
10005060:	9b21      	ldr	r3, [sp, #132]	; 0x84
10005062:	9302      	str	r3, [sp, #8]
10005064:	2303      	movs	r3, #3
10005066:	9301      	str	r3, [sp, #4]
10005068:	4ba8      	ldr	r3, [pc, #672]	; (1000530c <_ftoa+0x33c>)
1000506a:	9300      	str	r3, [sp, #0]
1000506c:	464b      	mov	r3, r9
1000506e:	465a      	mov	r2, fp
10005070:	9907      	ldr	r1, [sp, #28]
10005072:	9806      	ldr	r0, [sp, #24]
10005074:	f7ff fbf2 	bl	1000485c <_out_rev>
10005078:	e10e      	b.n	10005298 <_ftoa+0x2c8>
1000507a:	9b22      	ldr	r3, [sp, #136]	; 0x88
1000507c:	9303      	str	r3, [sp, #12]
1000507e:	9b21      	ldr	r3, [sp, #132]	; 0x84
10005080:	9302      	str	r3, [sp, #8]
10005082:	2304      	movs	r3, #4
10005084:	9301      	str	r3, [sp, #4]
10005086:	4ba2      	ldr	r3, [pc, #648]	; (10005310 <_ftoa+0x340>)
10005088:	9300      	str	r3, [sp, #0]
1000508a:	464b      	mov	r3, r9
1000508c:	465a      	mov	r2, fp
1000508e:	9907      	ldr	r1, [sp, #28]
10005090:	9806      	ldr	r0, [sp, #24]
10005092:	f7ff fbe3 	bl	1000485c <_out_rev>
10005096:	e0ff      	b.n	10005298 <_ftoa+0x2c8>
10005098:	2304      	movs	r3, #4
1000509a:	9a22      	ldr	r2, [sp, #136]	; 0x88
1000509c:	401a      	ands	r2, r3
1000509e:	9922      	ldr	r1, [sp, #136]	; 0x88
100050a0:	420b      	tst	r3, r1
100050a2:	d010      	beq.n	100050c6 <_ftoa+0xf6>
100050a4:	4b9b      	ldr	r3, [pc, #620]	; (10005314 <_ftoa+0x344>)
100050a6:	2a00      	cmp	r2, #0
100050a8:	d00f      	beq.n	100050ca <_ftoa+0xfa>
100050aa:	2204      	movs	r2, #4
100050ac:	9922      	ldr	r1, [sp, #136]	; 0x88
100050ae:	9103      	str	r1, [sp, #12]
100050b0:	9921      	ldr	r1, [sp, #132]	; 0x84
100050b2:	9102      	str	r1, [sp, #8]
100050b4:	9201      	str	r2, [sp, #4]
100050b6:	9300      	str	r3, [sp, #0]
100050b8:	464b      	mov	r3, r9
100050ba:	465a      	mov	r2, fp
100050bc:	9907      	ldr	r1, [sp, #28]
100050be:	9806      	ldr	r0, [sp, #24]
100050c0:	f7ff fbcc 	bl	1000485c <_out_rev>
100050c4:	e0e8      	b.n	10005298 <_ftoa+0x2c8>
100050c6:	4b94      	ldr	r3, [pc, #592]	; (10005318 <_ftoa+0x348>)
100050c8:	e7ed      	b.n	100050a6 <_ftoa+0xd6>
100050ca:	2203      	movs	r2, #3
100050cc:	e7ee      	b.n	100050ac <_ftoa+0xdc>
100050ce:	9b22      	ldr	r3, [sp, #136]	; 0x88
100050d0:	9304      	str	r3, [sp, #16]
100050d2:	9b21      	ldr	r3, [sp, #132]	; 0x84
100050d4:	9303      	str	r3, [sp, #12]
100050d6:	9702      	str	r7, [sp, #8]
100050d8:	9b1e      	ldr	r3, [sp, #120]	; 0x78
100050da:	9c1f      	ldr	r4, [sp, #124]	; 0x7c
100050dc:	9300      	str	r3, [sp, #0]
100050de:	9401      	str	r4, [sp, #4]
100050e0:	464b      	mov	r3, r9
100050e2:	465a      	mov	r2, fp
100050e4:	9907      	ldr	r1, [sp, #28]
100050e6:	9806      	ldr	r0, [sp, #24]
100050e8:	f7ff fd68 	bl	10004bbc <_etoa>
100050ec:	e0d4      	b.n	10005298 <_ftoa+0x2c8>
100050ee:	9a1e      	ldr	r2, [sp, #120]	; 0x78
100050f0:	9b1f      	ldr	r3, [sp, #124]	; 0x7c
100050f2:	2000      	movs	r0, #0
100050f4:	2100      	movs	r1, #0
100050f6:	f000 fece 	bl	10005e96 <__wrap___aeabi_dsub>
100050fa:	901e      	str	r0, [sp, #120]	; 0x78
100050fc:	911f      	str	r1, [sp, #124]	; 0x7c
100050fe:	2301      	movs	r3, #1
10005100:	4698      	mov	r8, r3
10005102:	e7a5      	b.n	10005050 <_ftoa+0x80>
10005104:	ab0c      	add	r3, sp, #48	; 0x30
10005106:	2230      	movs	r2, #48	; 0x30
10005108:	551a      	strb	r2, [r3, r4]
1000510a:	3f01      	subs	r7, #1
1000510c:	3401      	adds	r4, #1
1000510e:	2c1f      	cmp	r4, #31
10005110:	d801      	bhi.n	10005116 <_ftoa+0x146>
10005112:	2f09      	cmp	r7, #9
10005114:	d8f6      	bhi.n	10005104 <_ftoa+0x134>
10005116:	981e      	ldr	r0, [sp, #120]	; 0x78
10005118:	991f      	ldr	r1, [sp, #124]	; 0x7c
1000511a:	f000 ff75 	bl	10006008 <__wrap___aeabi_d2iz>
1000511e:	0005      	movs	r5, r0
10005120:	f000 ff5a 	bl	10005fd8 <__wrap___aeabi_i2d>
10005124:	0002      	movs	r2, r0
10005126:	000b      	movs	r3, r1
10005128:	981e      	ldr	r0, [sp, #120]	; 0x78
1000512a:	991f      	ldr	r1, [sp, #124]	; 0x7c
1000512c:	f000 feb3 	bl	10005e96 <__wrap___aeabi_dsub>
10005130:	00fa      	lsls	r2, r7, #3
10005132:	4b7a      	ldr	r3, [pc, #488]	; (1000531c <_ftoa+0x34c>)
10005134:	189b      	adds	r3, r3, r2
10005136:	681a      	ldr	r2, [r3, #0]
10005138:	685b      	ldr	r3, [r3, #4]
1000513a:	920a      	str	r2, [sp, #40]	; 0x28
1000513c:	930b      	str	r3, [sp, #44]	; 0x2c
1000513e:	f000 feda 	bl	10005ef6 <__wrap___aeabi_dmul>
10005142:	9008      	str	r0, [sp, #32]
10005144:	9109      	str	r1, [sp, #36]	; 0x24
10005146:	f000 ff83 	bl	10006050 <__wrap___aeabi_d2uiz>
1000514a:	0006      	movs	r6, r0
1000514c:	f000 ff40 	bl	10005fd0 <__wrap___aeabi_ui2d>
10005150:	0002      	movs	r2, r0
10005152:	000b      	movs	r3, r1
10005154:	9808      	ldr	r0, [sp, #32]
10005156:	9909      	ldr	r1, [sp, #36]	; 0x24
10005158:	f000 fe9d 	bl	10005e96 <__wrap___aeabi_dsub>
1000515c:	9008      	str	r0, [sp, #32]
1000515e:	9109      	str	r1, [sp, #36]	; 0x24
10005160:	2200      	movs	r2, #0
10005162:	4b6f      	ldr	r3, [pc, #444]	; (10005320 <_ftoa+0x350>)
10005164:	f000 ff20 	bl	10005fa8 <__wrap___aeabi_dcmpgt>
10005168:	2800      	cmp	r0, #0
1000516a:	d02e      	beq.n	100051ca <_ftoa+0x1fa>
1000516c:	3601      	adds	r6, #1
1000516e:	0030      	movs	r0, r6
10005170:	f000 ff2e 	bl	10005fd0 <__wrap___aeabi_ui2d>
10005174:	0002      	movs	r2, r0
10005176:	000b      	movs	r3, r1
10005178:	980a      	ldr	r0, [sp, #40]	; 0x28
1000517a:	990b      	ldr	r1, [sp, #44]	; 0x2c
1000517c:	f000 ff04 	bl	10005f88 <__wrap___aeabi_dcmple>
10005180:	2800      	cmp	r0, #0
10005182:	d001      	beq.n	10005188 <_ftoa+0x1b8>
10005184:	3501      	adds	r5, #1
10005186:	2600      	movs	r6, #0
10005188:	2f00      	cmp	r7, #0
1000518a:	d12c      	bne.n	100051e6 <_ftoa+0x216>
1000518c:	0028      	movs	r0, r5
1000518e:	f000 ff23 	bl	10005fd8 <__wrap___aeabi_i2d>
10005192:	0002      	movs	r2, r0
10005194:	000b      	movs	r3, r1
10005196:	981e      	ldr	r0, [sp, #120]	; 0x78
10005198:	991f      	ldr	r1, [sp, #124]	; 0x7c
1000519a:	f000 fe7c 	bl	10005e96 <__wrap___aeabi_dsub>
1000519e:	0006      	movs	r6, r0
100051a0:	000f      	movs	r7, r1
100051a2:	2200      	movs	r2, #0
100051a4:	4b5e      	ldr	r3, [pc, #376]	; (10005320 <_ftoa+0x350>)
100051a6:	f000 fee9 	bl	10005f7c <__wrap___aeabi_dcmplt>
100051aa:	2800      	cmp	r0, #0
100051ac:	d146      	bne.n	1000523c <_ftoa+0x26c>
100051ae:	2200      	movs	r2, #0
100051b0:	4b5b      	ldr	r3, [pc, #364]	; (10005320 <_ftoa+0x350>)
100051b2:	0030      	movs	r0, r6
100051b4:	0039      	movs	r1, r7
100051b6:	f000 fef7 	bl	10005fa8 <__wrap___aeabi_dcmpgt>
100051ba:	2800      	cmp	r0, #0
100051bc:	d13e      	bne.n	1000523c <_ftoa+0x26c>
100051be:	07eb      	lsls	r3, r5, #31
100051c0:	d53c      	bpl.n	1000523c <_ftoa+0x26c>
100051c2:	3501      	adds	r5, #1
100051c4:	e03a      	b.n	1000523c <_ftoa+0x26c>
100051c6:	2706      	movs	r7, #6
100051c8:	e746      	b.n	10005058 <_ftoa+0x88>
100051ca:	2200      	movs	r2, #0
100051cc:	4b54      	ldr	r3, [pc, #336]	; (10005320 <_ftoa+0x350>)
100051ce:	9808      	ldr	r0, [sp, #32]
100051d0:	9909      	ldr	r1, [sp, #36]	; 0x24
100051d2:	f000 fed3 	bl	10005f7c <__wrap___aeabi_dcmplt>
100051d6:	2800      	cmp	r0, #0
100051d8:	d1d6      	bne.n	10005188 <_ftoa+0x1b8>
100051da:	2e00      	cmp	r6, #0
100051dc:	d001      	beq.n	100051e2 <_ftoa+0x212>
100051de:	07f3      	lsls	r3, r6, #31
100051e0:	d5d2      	bpl.n	10005188 <_ftoa+0x1b8>
100051e2:	3601      	adds	r6, #1
100051e4:	e7d0      	b.n	10005188 <_ftoa+0x1b8>
100051e6:	46aa      	mov	sl, r5
100051e8:	2c1f      	cmp	r4, #31
100051ea:	d811      	bhi.n	10005210 <_ftoa+0x240>
100051ec:	3f01      	subs	r7, #1
100051ee:	210a      	movs	r1, #10
100051f0:	0030      	movs	r0, r6
100051f2:	f000 fc15 	bl	10005a20 <__wrap___aeabi_uidiv>
100051f6:	1c65      	adds	r5, r4, #1
100051f8:	3130      	adds	r1, #48	; 0x30
100051fa:	ab0c      	add	r3, sp, #48	; 0x30
100051fc:	5519      	strb	r1, [r3, r4]
100051fe:	210a      	movs	r1, #10
10005200:	0030      	movs	r0, r6
10005202:	f000 fc0d 	bl	10005a20 <__wrap___aeabi_uidiv>
10005206:	2e09      	cmp	r6, #9
10005208:	d90e      	bls.n	10005228 <_ftoa+0x258>
1000520a:	0006      	movs	r6, r0
1000520c:	002c      	movs	r4, r5
1000520e:	e7eb      	b.n	100051e8 <_ftoa+0x218>
10005210:	4655      	mov	r5, sl
10005212:	2c1f      	cmp	r4, #31
10005214:	d80c      	bhi.n	10005230 <_ftoa+0x260>
10005216:	1e7b      	subs	r3, r7, #1
10005218:	2f00      	cmp	r7, #0
1000521a:	d009      	beq.n	10005230 <_ftoa+0x260>
1000521c:	aa0c      	add	r2, sp, #48	; 0x30
1000521e:	2130      	movs	r1, #48	; 0x30
10005220:	5511      	strb	r1, [r2, r4]
10005222:	001f      	movs	r7, r3
10005224:	3401      	adds	r4, #1
10005226:	e7f4      	b.n	10005212 <_ftoa+0x242>
10005228:	002b      	movs	r3, r5
1000522a:	4655      	mov	r5, sl
1000522c:	001c      	movs	r4, r3
1000522e:	e7f0      	b.n	10005212 <_ftoa+0x242>
10005230:	2c1f      	cmp	r4, #31
10005232:	d803      	bhi.n	1000523c <_ftoa+0x26c>
10005234:	ab0c      	add	r3, sp, #48	; 0x30
10005236:	222e      	movs	r2, #46	; 0x2e
10005238:	551a      	strb	r2, [r3, r4]
1000523a:	3401      	adds	r4, #1
1000523c:	2c1f      	cmp	r4, #31
1000523e:	d810      	bhi.n	10005262 <_ftoa+0x292>
10005240:	210a      	movs	r1, #10
10005242:	0028      	movs	r0, r5
10005244:	f000 fbc4 	bl	100059d0 <__wrap___aeabi_idiv>
10005248:	1c66      	adds	r6, r4, #1
1000524a:	3130      	adds	r1, #48	; 0x30
1000524c:	ab0c      	add	r3, sp, #48	; 0x30
1000524e:	5519      	strb	r1, [r3, r4]
10005250:	210a      	movs	r1, #10
10005252:	0028      	movs	r0, r5
10005254:	f000 fbbc 	bl	100059d0 <__wrap___aeabi_idiv>
10005258:	1e05      	subs	r5, r0, #0
1000525a:	d001      	beq.n	10005260 <_ftoa+0x290>
1000525c:	0034      	movs	r4, r6
1000525e:	e7ed      	b.n	1000523c <_ftoa+0x26c>
10005260:	0034      	movs	r4, r6
10005262:	2303      	movs	r3, #3
10005264:	9a22      	ldr	r2, [sp, #136]	; 0x88
10005266:	4013      	ands	r3, r2
10005268:	2b01      	cmp	r3, #1
1000526a:	d01c      	beq.n	100052a6 <_ftoa+0x2d6>
1000526c:	2c1f      	cmp	r4, #31
1000526e:	d806      	bhi.n	1000527e <_ftoa+0x2ae>
10005270:	4643      	mov	r3, r8
10005272:	2b00      	cmp	r3, #0
10005274:	d032      	beq.n	100052dc <_ftoa+0x30c>
10005276:	ab0c      	add	r3, sp, #48	; 0x30
10005278:	222d      	movs	r2, #45	; 0x2d
1000527a:	551a      	strb	r2, [r3, r4]
1000527c:	3401      	adds	r4, #1
1000527e:	9b22      	ldr	r3, [sp, #136]	; 0x88
10005280:	9303      	str	r3, [sp, #12]
10005282:	9b21      	ldr	r3, [sp, #132]	; 0x84
10005284:	9302      	str	r3, [sp, #8]
10005286:	9401      	str	r4, [sp, #4]
10005288:	ab0c      	add	r3, sp, #48	; 0x30
1000528a:	9300      	str	r3, [sp, #0]
1000528c:	464b      	mov	r3, r9
1000528e:	465a      	mov	r2, fp
10005290:	9907      	ldr	r1, [sp, #28]
10005292:	9806      	ldr	r0, [sp, #24]
10005294:	f7ff fae2 	bl	1000485c <_out_rev>
10005298:	b015      	add	sp, #84	; 0x54
1000529a:	bcf0      	pop	{r4, r5, r6, r7}
1000529c:	46bb      	mov	fp, r7
1000529e:	46b2      	mov	sl, r6
100052a0:	46a9      	mov	r9, r5
100052a2:	46a0      	mov	r8, r4
100052a4:	bdf0      	pop	{r4, r5, r6, r7, pc}
100052a6:	9b21      	ldr	r3, [sp, #132]	; 0x84
100052a8:	2b00      	cmp	r3, #0
100052aa:	d013      	beq.n	100052d4 <_ftoa+0x304>
100052ac:	4643      	mov	r3, r8
100052ae:	2b00      	cmp	r3, #0
100052b0:	d102      	bne.n	100052b8 <_ftoa+0x2e8>
100052b2:	330c      	adds	r3, #12
100052b4:	4213      	tst	r3, r2
100052b6:	d00f      	beq.n	100052d8 <_ftoa+0x308>
100052b8:	9b21      	ldr	r3, [sp, #132]	; 0x84
100052ba:	3b01      	subs	r3, #1
100052bc:	9321      	str	r3, [sp, #132]	; 0x84
100052be:	0019      	movs	r1, r3
100052c0:	e003      	b.n	100052ca <_ftoa+0x2fa>
100052c2:	ab0c      	add	r3, sp, #48	; 0x30
100052c4:	2230      	movs	r2, #48	; 0x30
100052c6:	551a      	strb	r2, [r3, r4]
100052c8:	3401      	adds	r4, #1
100052ca:	428c      	cmp	r4, r1
100052cc:	d2ce      	bcs.n	1000526c <_ftoa+0x29c>
100052ce:	2c1f      	cmp	r4, #31
100052d0:	d9f7      	bls.n	100052c2 <_ftoa+0x2f2>
100052d2:	e7cb      	b.n	1000526c <_ftoa+0x29c>
100052d4:	9921      	ldr	r1, [sp, #132]	; 0x84
100052d6:	e7f8      	b.n	100052ca <_ftoa+0x2fa>
100052d8:	9921      	ldr	r1, [sp, #132]	; 0x84
100052da:	e7f6      	b.n	100052ca <_ftoa+0x2fa>
100052dc:	9b22      	ldr	r3, [sp, #136]	; 0x88
100052de:	075b      	lsls	r3, r3, #29
100052e0:	d504      	bpl.n	100052ec <_ftoa+0x31c>
100052e2:	ab0c      	add	r3, sp, #48	; 0x30
100052e4:	222b      	movs	r2, #43	; 0x2b
100052e6:	551a      	strb	r2, [r3, r4]
100052e8:	3401      	adds	r4, #1
100052ea:	e7c8      	b.n	1000527e <_ftoa+0x2ae>
100052ec:	9b22      	ldr	r3, [sp, #136]	; 0x88
100052ee:	071b      	lsls	r3, r3, #28
100052f0:	d5c5      	bpl.n	1000527e <_ftoa+0x2ae>
100052f2:	ab0c      	add	r3, sp, #48	; 0x30
100052f4:	2220      	movs	r2, #32
100052f6:	551a      	strb	r2, [r3, r4]
100052f8:	3401      	adds	r4, #1
100052fa:	e7c0      	b.n	1000527e <_ftoa+0x2ae>
100052fc:	ffefffff 	.word	0xffefffff
10005300:	7fefffff 	.word	0x7fefffff
10005304:	41cdcd65 	.word	0x41cdcd65
10005308:	c1cdcd65 	.word	0xc1cdcd65
1000530c:	1000b248 	.word	0x1000b248
10005310:	1000b24c 	.word	0x1000b24c
10005314:	1000b240 	.word	0x1000b240
10005318:	1000b23c 	.word	0x1000b23c
1000531c:	1000b438 	.word	0x1000b438
10005320:	3fe00000 	.word	0x3fe00000

10005324 <_vsnprintf>:
10005324:	b5f0      	push	{r4, r5, r6, r7, lr}
10005326:	46de      	mov	lr, fp
10005328:	4657      	mov	r7, sl
1000532a:	464e      	mov	r6, r9
1000532c:	4645      	mov	r5, r8
1000532e:	b5e0      	push	{r5, r6, r7, lr}
10005330:	b093      	sub	sp, #76	; 0x4c
10005332:	4682      	mov	sl, r0
10005334:	468b      	mov	fp, r1
10005336:	4690      	mov	r8, r2
10005338:	9311      	str	r3, [sp, #68]	; 0x44
1000533a:	2900      	cmp	r1, #0
1000533c:	d100      	bne.n	10005340 <_vsnprintf+0x1c>
1000533e:	e2eb      	b.n	10005918 <_vsnprintf+0x5f4>
10005340:	2700      	movs	r7, #0
10005342:	4655      	mov	r5, sl
10005344:	9b11      	ldr	r3, [sp, #68]	; 0x44
10005346:	7818      	ldrb	r0, [r3, #0]
10005348:	2800      	cmp	r0, #0
1000534a:	d100      	bne.n	1000534e <_vsnprintf+0x2a>
1000534c:	e2e7      	b.n	1000591e <_vsnprintf+0x5fa>
1000534e:	2825      	cmp	r0, #37	; 0x25
10005350:	d009      	beq.n	10005366 <_vsnprintf+0x42>
10005352:	1c7c      	adds	r4, r7, #1
10005354:	4643      	mov	r3, r8
10005356:	003a      	movs	r2, r7
10005358:	4659      	mov	r1, fp
1000535a:	47a8      	blx	r5
1000535c:	9b11      	ldr	r3, [sp, #68]	; 0x44
1000535e:	3301      	adds	r3, #1
10005360:	9311      	str	r3, [sp, #68]	; 0x44
10005362:	0027      	movs	r7, r4
10005364:	e7ee      	b.n	10005344 <_vsnprintf+0x20>
10005366:	3301      	adds	r3, #1
10005368:	9311      	str	r3, [sp, #68]	; 0x44
1000536a:	2400      	movs	r4, #0
1000536c:	9a11      	ldr	r2, [sp, #68]	; 0x44
1000536e:	7811      	ldrb	r1, [r2, #0]
10005370:	000b      	movs	r3, r1
10005372:	3b20      	subs	r3, #32
10005374:	b2d8      	uxtb	r0, r3
10005376:	2810      	cmp	r0, #16
10005378:	d803      	bhi.n	10005382 <_vsnprintf+0x5e>
1000537a:	0083      	lsls	r3, r0, #2
1000537c:	48d0      	ldr	r0, [pc, #832]	; (100056c0 <_vsnprintf+0x39c>)
1000537e:	58c3      	ldr	r3, [r0, r3]
10005380:	469f      	mov	pc, r3
10005382:	000b      	movs	r3, r1
10005384:	3b30      	subs	r3, #48	; 0x30
10005386:	b2db      	uxtb	r3, r3
10005388:	2b09      	cmp	r3, #9
1000538a:	d92c      	bls.n	100053e6 <_vsnprintf+0xc2>
1000538c:	292a      	cmp	r1, #42	; 0x2a
1000538e:	d02f      	beq.n	100053f0 <_vsnprintf+0xcc>
10005390:	2300      	movs	r3, #0
10005392:	930a      	str	r3, [sp, #40]	; 0x28
10005394:	9b11      	ldr	r3, [sp, #68]	; 0x44
10005396:	781a      	ldrb	r2, [r3, #0]
10005398:	2a2e      	cmp	r2, #46	; 0x2e
1000539a:	d039      	beq.n	10005410 <_vsnprintf+0xec>
1000539c:	2300      	movs	r3, #0
1000539e:	469a      	mov	sl, r3
100053a0:	9a11      	ldr	r2, [sp, #68]	; 0x44
100053a2:	7813      	ldrb	r3, [r2, #0]
100053a4:	3b68      	subs	r3, #104	; 0x68
100053a6:	b2d9      	uxtb	r1, r3
100053a8:	2912      	cmp	r1, #18
100053aa:	d876      	bhi.n	1000549a <_vsnprintf+0x176>
100053ac:	008b      	lsls	r3, r1, #2
100053ae:	49c5      	ldr	r1, [pc, #788]	; (100056c4 <_vsnprintf+0x3a0>)
100053b0:	58cb      	ldr	r3, [r1, r3]
100053b2:	469f      	mov	pc, r3
100053b4:	2301      	movs	r3, #1
100053b6:	431c      	orrs	r4, r3
100053b8:	3201      	adds	r2, #1
100053ba:	9211      	str	r2, [sp, #68]	; 0x44
100053bc:	e7d6      	b.n	1000536c <_vsnprintf+0x48>
100053be:	2302      	movs	r3, #2
100053c0:	431c      	orrs	r4, r3
100053c2:	3201      	adds	r2, #1
100053c4:	9211      	str	r2, [sp, #68]	; 0x44
100053c6:	e7d1      	b.n	1000536c <_vsnprintf+0x48>
100053c8:	2304      	movs	r3, #4
100053ca:	431c      	orrs	r4, r3
100053cc:	3201      	adds	r2, #1
100053ce:	9211      	str	r2, [sp, #68]	; 0x44
100053d0:	e7cc      	b.n	1000536c <_vsnprintf+0x48>
100053d2:	2308      	movs	r3, #8
100053d4:	431c      	orrs	r4, r3
100053d6:	3201      	adds	r2, #1
100053d8:	9211      	str	r2, [sp, #68]	; 0x44
100053da:	e7c7      	b.n	1000536c <_vsnprintf+0x48>
100053dc:	2310      	movs	r3, #16
100053de:	431c      	orrs	r4, r3
100053e0:	3201      	adds	r2, #1
100053e2:	9211      	str	r2, [sp, #68]	; 0x44
100053e4:	e7c2      	b.n	1000536c <_vsnprintf+0x48>
100053e6:	a811      	add	r0, sp, #68	; 0x44
100053e8:	f7ff fa26 	bl	10004838 <_atoi>
100053ec:	900a      	str	r0, [sp, #40]	; 0x28
100053ee:	e7d1      	b.n	10005394 <_vsnprintf+0x70>
100053f0:	9b1c      	ldr	r3, [sp, #112]	; 0x70
100053f2:	1d1a      	adds	r2, r3, #4
100053f4:	921c      	str	r2, [sp, #112]	; 0x70
100053f6:	6818      	ldr	r0, [r3, #0]
100053f8:	2800      	cmp	r0, #0
100053fa:	db04      	blt.n	10005406 <_vsnprintf+0xe2>
100053fc:	900a      	str	r0, [sp, #40]	; 0x28
100053fe:	9b11      	ldr	r3, [sp, #68]	; 0x44
10005400:	3301      	adds	r3, #1
10005402:	9311      	str	r3, [sp, #68]	; 0x44
10005404:	e7c6      	b.n	10005394 <_vsnprintf+0x70>
10005406:	2302      	movs	r3, #2
10005408:	431c      	orrs	r4, r3
1000540a:	4243      	negs	r3, r0
1000540c:	930a      	str	r3, [sp, #40]	; 0x28
1000540e:	e7f6      	b.n	100053fe <_vsnprintf+0xda>
10005410:	2280      	movs	r2, #128	; 0x80
10005412:	00d2      	lsls	r2, r2, #3
10005414:	4314      	orrs	r4, r2
10005416:	1c5a      	adds	r2, r3, #1
10005418:	9211      	str	r2, [sp, #68]	; 0x44
1000541a:	785a      	ldrb	r2, [r3, #1]
1000541c:	0013      	movs	r3, r2
1000541e:	3b30      	subs	r3, #48	; 0x30
10005420:	b2db      	uxtb	r3, r3
10005422:	2b09      	cmp	r3, #9
10005424:	d904      	bls.n	10005430 <_vsnprintf+0x10c>
10005426:	2a2a      	cmp	r2, #42	; 0x2a
10005428:	d007      	beq.n	1000543a <_vsnprintf+0x116>
1000542a:	2300      	movs	r3, #0
1000542c:	469a      	mov	sl, r3
1000542e:	e7b7      	b.n	100053a0 <_vsnprintf+0x7c>
10005430:	a811      	add	r0, sp, #68	; 0x44
10005432:	f7ff fa01 	bl	10004838 <_atoi>
10005436:	4682      	mov	sl, r0
10005438:	e7b2      	b.n	100053a0 <_vsnprintf+0x7c>
1000543a:	9b1c      	ldr	r3, [sp, #112]	; 0x70
1000543c:	1d1a      	adds	r2, r3, #4
1000543e:	921c      	str	r2, [sp, #112]	; 0x70
10005440:	6818      	ldr	r0, [r3, #0]
10005442:	2800      	cmp	r0, #0
10005444:	db04      	blt.n	10005450 <_vsnprintf+0x12c>
10005446:	4682      	mov	sl, r0
10005448:	9b11      	ldr	r3, [sp, #68]	; 0x44
1000544a:	3301      	adds	r3, #1
1000544c:	9311      	str	r3, [sp, #68]	; 0x44
1000544e:	e7a7      	b.n	100053a0 <_vsnprintf+0x7c>
10005450:	2000      	movs	r0, #0
10005452:	e7f8      	b.n	10005446 <_vsnprintf+0x122>
10005454:	2380      	movs	r3, #128	; 0x80
10005456:	005b      	lsls	r3, r3, #1
10005458:	4323      	orrs	r3, r4
1000545a:	1c51      	adds	r1, r2, #1
1000545c:	9111      	str	r1, [sp, #68]	; 0x44
1000545e:	7852      	ldrb	r2, [r2, #1]
10005460:	2a6c      	cmp	r2, #108	; 0x6c
10005462:	d001      	beq.n	10005468 <_vsnprintf+0x144>
10005464:	001c      	movs	r4, r3
10005466:	e018      	b.n	1000549a <_vsnprintf+0x176>
10005468:	23c0      	movs	r3, #192	; 0xc0
1000546a:	009b      	lsls	r3, r3, #2
1000546c:	431c      	orrs	r4, r3
1000546e:	3101      	adds	r1, #1
10005470:	9111      	str	r1, [sp, #68]	; 0x44
10005472:	e012      	b.n	1000549a <_vsnprintf+0x176>
10005474:	2380      	movs	r3, #128	; 0x80
10005476:	4323      	orrs	r3, r4
10005478:	1c51      	adds	r1, r2, #1
1000547a:	9111      	str	r1, [sp, #68]	; 0x44
1000547c:	7852      	ldrb	r2, [r2, #1]
1000547e:	2a68      	cmp	r2, #104	; 0x68
10005480:	d001      	beq.n	10005486 <_vsnprintf+0x162>
10005482:	001c      	movs	r4, r3
10005484:	e009      	b.n	1000549a <_vsnprintf+0x176>
10005486:	23c0      	movs	r3, #192	; 0xc0
10005488:	431c      	orrs	r4, r3
1000548a:	3101      	adds	r1, #1
1000548c:	9111      	str	r1, [sp, #68]	; 0x44
1000548e:	e004      	b.n	1000549a <_vsnprintf+0x176>
10005490:	2380      	movs	r3, #128	; 0x80
10005492:	005b      	lsls	r3, r3, #1
10005494:	431c      	orrs	r4, r3
10005496:	3201      	adds	r2, #1
10005498:	9211      	str	r2, [sp, #68]	; 0x44
1000549a:	9b11      	ldr	r3, [sp, #68]	; 0x44
1000549c:	7818      	ldrb	r0, [r3, #0]
1000549e:	0003      	movs	r3, r0
100054a0:	3b25      	subs	r3, #37	; 0x25
100054a2:	b2da      	uxtb	r2, r3
100054a4:	2a53      	cmp	r2, #83	; 0x53
100054a6:	d900      	bls.n	100054aa <_vsnprintf+0x186>
100054a8:	e22c      	b.n	10005904 <_vsnprintf+0x5e0>
100054aa:	0093      	lsls	r3, r2, #2
100054ac:	4a86      	ldr	r2, [pc, #536]	; (100056c8 <_vsnprintf+0x3a4>)
100054ae:	58d3      	ldr	r3, [r2, r3]
100054b0:	469f      	mov	pc, r3
100054b2:	2380      	movs	r3, #128	; 0x80
100054b4:	009b      	lsls	r3, r3, #2
100054b6:	431c      	orrs	r4, r3
100054b8:	3201      	adds	r2, #1
100054ba:	9211      	str	r2, [sp, #68]	; 0x44
100054bc:	e7ed      	b.n	1000549a <_vsnprintf+0x176>
100054be:	2380      	movs	r3, #128	; 0x80
100054c0:	005b      	lsls	r3, r3, #1
100054c2:	431c      	orrs	r4, r3
100054c4:	3201      	adds	r2, #1
100054c6:	9211      	str	r2, [sp, #68]	; 0x44
100054c8:	e7e7      	b.n	1000549a <_vsnprintf+0x176>
100054ca:	2878      	cmp	r0, #120	; 0x78
100054cc:	d009      	beq.n	100054e2 <_vsnprintf+0x1be>
100054ce:	2858      	cmp	r0, #88	; 0x58
100054d0:	d038      	beq.n	10005544 <_vsnprintf+0x220>
100054d2:	286f      	cmp	r0, #111	; 0x6f
100054d4:	d038      	beq.n	10005548 <_vsnprintf+0x224>
100054d6:	2862      	cmp	r0, #98	; 0x62
100054d8:	d038      	beq.n	1000554c <_vsnprintf+0x228>
100054da:	2310      	movs	r3, #16
100054dc:	439c      	bics	r4, r3
100054de:	260a      	movs	r6, #10
100054e0:	e000      	b.n	100054e4 <_vsnprintf+0x1c0>
100054e2:	2610      	movs	r6, #16
100054e4:	2858      	cmp	r0, #88	; 0x58
100054e6:	d033      	beq.n	10005550 <_vsnprintf+0x22c>
100054e8:	2869      	cmp	r0, #105	; 0x69
100054ea:	d003      	beq.n	100054f4 <_vsnprintf+0x1d0>
100054ec:	2864      	cmp	r0, #100	; 0x64
100054ee:	d001      	beq.n	100054f4 <_vsnprintf+0x1d0>
100054f0:	220c      	movs	r2, #12
100054f2:	4394      	bics	r4, r2
100054f4:	0563      	lsls	r3, r4, #21
100054f6:	d501      	bpl.n	100054fc <_vsnprintf+0x1d8>
100054f8:	2201      	movs	r2, #1
100054fa:	4394      	bics	r4, r2
100054fc:	2869      	cmp	r0, #105	; 0x69
100054fe:	d02a      	beq.n	10005556 <_vsnprintf+0x232>
10005500:	2864      	cmp	r0, #100	; 0x64
10005502:	d028      	beq.n	10005556 <_vsnprintf+0x232>
10005504:	05a3      	lsls	r3, r4, #22
10005506:	d500      	bpl.n	1000550a <_vsnprintf+0x1e6>
10005508:	e09f      	b.n	1000564a <_vsnprintf+0x326>
1000550a:	05e3      	lsls	r3, r4, #23
1000550c:	d500      	bpl.n	10005510 <_vsnprintf+0x1ec>
1000550e:	e0b8      	b.n	10005682 <_vsnprintf+0x35e>
10005510:	0663      	lsls	r3, r4, #25
10005512:	d400      	bmi.n	10005516 <_vsnprintf+0x1f2>
10005514:	e0ca      	b.n	100056ac <_vsnprintf+0x388>
10005516:	9a1c      	ldr	r2, [sp, #112]	; 0x70
10005518:	1d11      	adds	r1, r2, #4
1000551a:	911c      	str	r1, [sp, #112]	; 0x70
1000551c:	6811      	ldr	r1, [r2, #0]
1000551e:	22ff      	movs	r2, #255	; 0xff
10005520:	400a      	ands	r2, r1
10005522:	9405      	str	r4, [sp, #20]
10005524:	9b0a      	ldr	r3, [sp, #40]	; 0x28
10005526:	9304      	str	r3, [sp, #16]
10005528:	4653      	mov	r3, sl
1000552a:	9303      	str	r3, [sp, #12]
1000552c:	9602      	str	r6, [sp, #8]
1000552e:	2300      	movs	r3, #0
10005530:	9301      	str	r3, [sp, #4]
10005532:	9200      	str	r2, [sp, #0]
10005534:	4643      	mov	r3, r8
10005536:	003a      	movs	r2, r7
10005538:	4659      	mov	r1, fp
1000553a:	0028      	movs	r0, r5
1000553c:	f7ff fa6e 	bl	10004a1c <_ntoa_long>
10005540:	0007      	movs	r7, r0
10005542:	e027      	b.n	10005594 <_vsnprintf+0x270>
10005544:	2610      	movs	r6, #16
10005546:	e7cd      	b.n	100054e4 <_vsnprintf+0x1c0>
10005548:	2608      	movs	r6, #8
1000554a:	e7cb      	b.n	100054e4 <_vsnprintf+0x1c0>
1000554c:	2602      	movs	r6, #2
1000554e:	e7c9      	b.n	100054e4 <_vsnprintf+0x1c0>
10005550:	2220      	movs	r2, #32
10005552:	4314      	orrs	r4, r2
10005554:	e7c8      	b.n	100054e8 <_vsnprintf+0x1c4>
10005556:	05a3      	lsls	r3, r4, #22
10005558:	d420      	bmi.n	1000559c <_vsnprintf+0x278>
1000555a:	05e3      	lsls	r3, r4, #23
1000555c:	d450      	bmi.n	10005600 <_vsnprintf+0x2dc>
1000555e:	0663      	lsls	r3, r4, #25
10005560:	d566      	bpl.n	10005630 <_vsnprintf+0x30c>
10005562:	9a1c      	ldr	r2, [sp, #112]	; 0x70
10005564:	1d11      	adds	r1, r2, #4
10005566:	911c      	str	r1, [sp, #112]	; 0x70
10005568:	6811      	ldr	r1, [r2, #0]
1000556a:	22ff      	movs	r2, #255	; 0xff
1000556c:	400a      	ands	r2, r1
1000556e:	17d3      	asrs	r3, r2, #31
10005570:	18d1      	adds	r1, r2, r3
10005572:	4059      	eors	r1, r3
10005574:	9405      	str	r4, [sp, #20]
10005576:	9b0a      	ldr	r3, [sp, #40]	; 0x28
10005578:	9304      	str	r3, [sp, #16]
1000557a:	4653      	mov	r3, sl
1000557c:	9303      	str	r3, [sp, #12]
1000557e:	9602      	str	r6, [sp, #8]
10005580:	0fd2      	lsrs	r2, r2, #31
10005582:	9201      	str	r2, [sp, #4]
10005584:	9100      	str	r1, [sp, #0]
10005586:	4643      	mov	r3, r8
10005588:	003a      	movs	r2, r7
1000558a:	4659      	mov	r1, fp
1000558c:	0028      	movs	r0, r5
1000558e:	f7ff fa45 	bl	10004a1c <_ntoa_long>
10005592:	0007      	movs	r7, r0
10005594:	9b11      	ldr	r3, [sp, #68]	; 0x44
10005596:	3301      	adds	r3, #1
10005598:	9311      	str	r3, [sp, #68]	; 0x44
1000559a:	e6d3      	b.n	10005344 <_vsnprintf+0x20>
1000559c:	9b1c      	ldr	r3, [sp, #112]	; 0x70
1000559e:	1dda      	adds	r2, r3, #7
100055a0:	2107      	movs	r1, #7
100055a2:	438a      	bics	r2, r1
100055a4:	0011      	movs	r1, r2
100055a6:	3108      	adds	r1, #8
100055a8:	911c      	str	r1, [sp, #112]	; 0x70
100055aa:	6811      	ldr	r1, [r2, #0]
100055ac:	6853      	ldr	r3, [r2, #4]
100055ae:	469c      	mov	ip, r3
100055b0:	17db      	asrs	r3, r3, #31
100055b2:	930c      	str	r3, [sp, #48]	; 0x30
100055b4:	930d      	str	r3, [sp, #52]	; 0x34
100055b6:	9a0c      	ldr	r2, [sp, #48]	; 0x30
100055b8:	9b0d      	ldr	r3, [sp, #52]	; 0x34
100055ba:	0010      	movs	r0, r2
100055bc:	4048      	eors	r0, r1
100055be:	900e      	str	r0, [sp, #56]	; 0x38
100055c0:	4662      	mov	r2, ip
100055c2:	4053      	eors	r3, r2
100055c4:	930f      	str	r3, [sp, #60]	; 0x3c
100055c6:	980e      	ldr	r0, [sp, #56]	; 0x38
100055c8:	990f      	ldr	r1, [sp, #60]	; 0x3c
100055ca:	9a0c      	ldr	r2, [sp, #48]	; 0x30
100055cc:	9b0d      	ldr	r3, [sp, #52]	; 0x34
100055ce:	1a80      	subs	r0, r0, r2
100055d0:	4199      	sbcs	r1, r3
100055d2:	900e      	str	r0, [sp, #56]	; 0x38
100055d4:	910f      	str	r1, [sp, #60]	; 0x3c
100055d6:	9408      	str	r4, [sp, #32]
100055d8:	9b0a      	ldr	r3, [sp, #40]	; 0x28
100055da:	9307      	str	r3, [sp, #28]
100055dc:	4653      	mov	r3, sl
100055de:	9306      	str	r3, [sp, #24]
100055e0:	9604      	str	r6, [sp, #16]
100055e2:	2300      	movs	r3, #0
100055e4:	9305      	str	r3, [sp, #20]
100055e6:	4663      	mov	r3, ip
100055e8:	0fda      	lsrs	r2, r3, #31
100055ea:	9202      	str	r2, [sp, #8]
100055ec:	9000      	str	r0, [sp, #0]
100055ee:	9101      	str	r1, [sp, #4]
100055f0:	4643      	mov	r3, r8
100055f2:	003a      	movs	r2, r7
100055f4:	4659      	mov	r1, fp
100055f6:	0028      	movs	r0, r5
100055f8:	f7ff fa6e 	bl	10004ad8 <_ntoa_long_long>
100055fc:	0007      	movs	r7, r0
100055fe:	e7c9      	b.n	10005594 <_vsnprintf+0x270>
10005600:	9a1c      	ldr	r2, [sp, #112]	; 0x70
10005602:	1d11      	adds	r1, r2, #4
10005604:	911c      	str	r1, [sp, #112]	; 0x70
10005606:	6812      	ldr	r2, [r2, #0]
10005608:	17d3      	asrs	r3, r2, #31
1000560a:	18d1      	adds	r1, r2, r3
1000560c:	4059      	eors	r1, r3
1000560e:	9405      	str	r4, [sp, #20]
10005610:	9b0a      	ldr	r3, [sp, #40]	; 0x28
10005612:	9304      	str	r3, [sp, #16]
10005614:	4653      	mov	r3, sl
10005616:	9303      	str	r3, [sp, #12]
10005618:	9602      	str	r6, [sp, #8]
1000561a:	0fd2      	lsrs	r2, r2, #31
1000561c:	9201      	str	r2, [sp, #4]
1000561e:	9100      	str	r1, [sp, #0]
10005620:	4643      	mov	r3, r8
10005622:	003a      	movs	r2, r7
10005624:	4659      	mov	r1, fp
10005626:	0028      	movs	r0, r5
10005628:	f7ff f9f8 	bl	10004a1c <_ntoa_long>
1000562c:	0007      	movs	r7, r0
1000562e:	e7b1      	b.n	10005594 <_vsnprintf+0x270>
10005630:	0623      	lsls	r3, r4, #24
10005632:	d505      	bpl.n	10005640 <_vsnprintf+0x31c>
10005634:	9a1c      	ldr	r2, [sp, #112]	; 0x70
10005636:	1d11      	adds	r1, r2, #4
10005638:	911c      	str	r1, [sp, #112]	; 0x70
1000563a:	2300      	movs	r3, #0
1000563c:	5ed2      	ldrsh	r2, [r2, r3]
1000563e:	e796      	b.n	1000556e <_vsnprintf+0x24a>
10005640:	9a1c      	ldr	r2, [sp, #112]	; 0x70
10005642:	1d11      	adds	r1, r2, #4
10005644:	911c      	str	r1, [sp, #112]	; 0x70
10005646:	6812      	ldr	r2, [r2, #0]
10005648:	e791      	b.n	1000556e <_vsnprintf+0x24a>
1000564a:	9b1c      	ldr	r3, [sp, #112]	; 0x70
1000564c:	1dda      	adds	r2, r3, #7
1000564e:	2107      	movs	r1, #7
10005650:	438a      	bics	r2, r1
10005652:	0011      	movs	r1, r2
10005654:	3108      	adds	r1, #8
10005656:	911c      	str	r1, [sp, #112]	; 0x70
10005658:	9408      	str	r4, [sp, #32]
1000565a:	9b0a      	ldr	r3, [sp, #40]	; 0x28
1000565c:	9307      	str	r3, [sp, #28]
1000565e:	4653      	mov	r3, sl
10005660:	9306      	str	r3, [sp, #24]
10005662:	9604      	str	r6, [sp, #16]
10005664:	2300      	movs	r3, #0
10005666:	9305      	str	r3, [sp, #20]
10005668:	9302      	str	r3, [sp, #8]
1000566a:	6813      	ldr	r3, [r2, #0]
1000566c:	6854      	ldr	r4, [r2, #4]
1000566e:	9300      	str	r3, [sp, #0]
10005670:	9401      	str	r4, [sp, #4]
10005672:	4643      	mov	r3, r8
10005674:	003a      	movs	r2, r7
10005676:	4659      	mov	r1, fp
10005678:	0028      	movs	r0, r5
1000567a:	f7ff fa2d 	bl	10004ad8 <_ntoa_long_long>
1000567e:	0007      	movs	r7, r0
10005680:	e788      	b.n	10005594 <_vsnprintf+0x270>
10005682:	9a1c      	ldr	r2, [sp, #112]	; 0x70
10005684:	1d11      	adds	r1, r2, #4
10005686:	911c      	str	r1, [sp, #112]	; 0x70
10005688:	9405      	str	r4, [sp, #20]
1000568a:	9b0a      	ldr	r3, [sp, #40]	; 0x28
1000568c:	9304      	str	r3, [sp, #16]
1000568e:	4653      	mov	r3, sl
10005690:	9303      	str	r3, [sp, #12]
10005692:	9602      	str	r6, [sp, #8]
10005694:	2300      	movs	r3, #0
10005696:	9301      	str	r3, [sp, #4]
10005698:	6813      	ldr	r3, [r2, #0]
1000569a:	9300      	str	r3, [sp, #0]
1000569c:	4643      	mov	r3, r8
1000569e:	003a      	movs	r2, r7
100056a0:	4659      	mov	r1, fp
100056a2:	0028      	movs	r0, r5
100056a4:	f7ff f9ba 	bl	10004a1c <_ntoa_long>
100056a8:	0007      	movs	r7, r0
100056aa:	e773      	b.n	10005594 <_vsnprintf+0x270>
100056ac:	0623      	lsls	r3, r4, #24
100056ae:	d50d      	bpl.n	100056cc <_vsnprintf+0x3a8>
100056b0:	9a1c      	ldr	r2, [sp, #112]	; 0x70
100056b2:	1d11      	adds	r1, r2, #4
100056b4:	911c      	str	r1, [sp, #112]	; 0x70
100056b6:	6812      	ldr	r2, [r2, #0]
100056b8:	0412      	lsls	r2, r2, #16
100056ba:	0c12      	lsrs	r2, r2, #16
100056bc:	e731      	b.n	10005522 <_vsnprintf+0x1fe>
100056be:	46c0      	nop			; (mov r8, r8)
100056c0:	1000b254 	.word	0x1000b254
100056c4:	1000b298 	.word	0x1000b298
100056c8:	1000b2e4 	.word	0x1000b2e4
100056cc:	9a1c      	ldr	r2, [sp, #112]	; 0x70
100056ce:	1d11      	adds	r1, r2, #4
100056d0:	911c      	str	r1, [sp, #112]	; 0x70
100056d2:	6812      	ldr	r2, [r2, #0]
100056d4:	e725      	b.n	10005522 <_vsnprintf+0x1fe>
100056d6:	2846      	cmp	r0, #70	; 0x46
100056d8:	d01a      	beq.n	10005710 <_vsnprintf+0x3ec>
100056da:	9b1c      	ldr	r3, [sp, #112]	; 0x70
100056dc:	3307      	adds	r3, #7
100056de:	2207      	movs	r2, #7
100056e0:	4393      	bics	r3, r2
100056e2:	001a      	movs	r2, r3
100056e4:	3208      	adds	r2, #8
100056e6:	921c      	str	r2, [sp, #112]	; 0x70
100056e8:	9404      	str	r4, [sp, #16]
100056ea:	9a0a      	ldr	r2, [sp, #40]	; 0x28
100056ec:	9203      	str	r2, [sp, #12]
100056ee:	4652      	mov	r2, sl
100056f0:	9202      	str	r2, [sp, #8]
100056f2:	685c      	ldr	r4, [r3, #4]
100056f4:	681b      	ldr	r3, [r3, #0]
100056f6:	9300      	str	r3, [sp, #0]
100056f8:	9401      	str	r4, [sp, #4]
100056fa:	4643      	mov	r3, r8
100056fc:	003a      	movs	r2, r7
100056fe:	4659      	mov	r1, fp
10005700:	0028      	movs	r0, r5
10005702:	f7ff fc65 	bl	10004fd0 <_ftoa>
10005706:	0007      	movs	r7, r0
10005708:	9b11      	ldr	r3, [sp, #68]	; 0x44
1000570a:	3301      	adds	r3, #1
1000570c:	9311      	str	r3, [sp, #68]	; 0x44
1000570e:	e619      	b.n	10005344 <_vsnprintf+0x20>
10005710:	2320      	movs	r3, #32
10005712:	431c      	orrs	r4, r3
10005714:	e7e1      	b.n	100056da <_vsnprintf+0x3b6>
10005716:	2867      	cmp	r0, #103	; 0x67
10005718:	d001      	beq.n	1000571e <_vsnprintf+0x3fa>
1000571a:	2847      	cmp	r0, #71	; 0x47
1000571c:	d102      	bne.n	10005724 <_vsnprintf+0x400>
1000571e:	2380      	movs	r3, #128	; 0x80
10005720:	011b      	lsls	r3, r3, #4
10005722:	431c      	orrs	r4, r3
10005724:	2845      	cmp	r0, #69	; 0x45
10005726:	d001      	beq.n	1000572c <_vsnprintf+0x408>
10005728:	2847      	cmp	r0, #71	; 0x47
1000572a:	d101      	bne.n	10005730 <_vsnprintf+0x40c>
1000572c:	2320      	movs	r3, #32
1000572e:	431c      	orrs	r4, r3
10005730:	9b1c      	ldr	r3, [sp, #112]	; 0x70
10005732:	3307      	adds	r3, #7
10005734:	2207      	movs	r2, #7
10005736:	4393      	bics	r3, r2
10005738:	001a      	movs	r2, r3
1000573a:	3208      	adds	r2, #8
1000573c:	921c      	str	r2, [sp, #112]	; 0x70
1000573e:	9404      	str	r4, [sp, #16]
10005740:	9a0a      	ldr	r2, [sp, #40]	; 0x28
10005742:	9203      	str	r2, [sp, #12]
10005744:	4652      	mov	r2, sl
10005746:	9202      	str	r2, [sp, #8]
10005748:	685c      	ldr	r4, [r3, #4]
1000574a:	681b      	ldr	r3, [r3, #0]
1000574c:	9300      	str	r3, [sp, #0]
1000574e:	9401      	str	r4, [sp, #4]
10005750:	4643      	mov	r3, r8
10005752:	003a      	movs	r2, r7
10005754:	4659      	mov	r1, fp
10005756:	0028      	movs	r0, r5
10005758:	f7ff fa30 	bl	10004bbc <_etoa>
1000575c:	0007      	movs	r7, r0
1000575e:	9b11      	ldr	r3, [sp, #68]	; 0x44
10005760:	3301      	adds	r3, #1
10005762:	9311      	str	r3, [sp, #68]	; 0x44
10005764:	e5ee      	b.n	10005344 <_vsnprintf+0x20>
10005766:	2302      	movs	r3, #2
10005768:	001a      	movs	r2, r3
1000576a:	4022      	ands	r2, r4
1000576c:	4692      	mov	sl, r2
1000576e:	4223      	tst	r3, r4
10005770:	d01f      	beq.n	100057b2 <_vsnprintf+0x48e>
10005772:	2401      	movs	r4, #1
10005774:	9b1c      	ldr	r3, [sp, #112]	; 0x70
10005776:	1d1a      	adds	r2, r3, #4
10005778:	921c      	str	r2, [sp, #112]	; 0x70
1000577a:	1c7a      	adds	r2, r7, #1
1000577c:	4691      	mov	r9, r2
1000577e:	7818      	ldrb	r0, [r3, #0]
10005780:	4643      	mov	r3, r8
10005782:	003a      	movs	r2, r7
10005784:	4659      	mov	r1, fp
10005786:	47a8      	blx	r5
10005788:	4653      	mov	r3, sl
1000578a:	2b00      	cmp	r3, #0
1000578c:	d116      	bne.n	100057bc <_vsnprintf+0x498>
1000578e:	9b11      	ldr	r3, [sp, #68]	; 0x44
10005790:	3301      	adds	r3, #1
10005792:	9311      	str	r3, [sp, #68]	; 0x44
10005794:	464f      	mov	r7, r9
10005796:	e5d5      	b.n	10005344 <_vsnprintf+0x20>
10005798:	1c56      	adds	r6, r2, #1
1000579a:	4643      	mov	r3, r8
1000579c:	4659      	mov	r1, fp
1000579e:	2020      	movs	r0, #32
100057a0:	47b8      	blx	r7
100057a2:	0023      	movs	r3, r4
100057a4:	0032      	movs	r2, r6
100057a6:	1c5c      	adds	r4, r3, #1
100057a8:	429d      	cmp	r5, r3
100057aa:	d8f5      	bhi.n	10005798 <_vsnprintf+0x474>
100057ac:	003d      	movs	r5, r7
100057ae:	0017      	movs	r7, r2
100057b0:	e7e0      	b.n	10005774 <_vsnprintf+0x450>
100057b2:	2301      	movs	r3, #1
100057b4:	003a      	movs	r2, r7
100057b6:	002f      	movs	r7, r5
100057b8:	9d0a      	ldr	r5, [sp, #40]	; 0x28
100057ba:	e7f4      	b.n	100057a6 <_vsnprintf+0x482>
100057bc:	464a      	mov	r2, r9
100057be:	46a9      	mov	r9, r5
100057c0:	9d0a      	ldr	r5, [sp, #40]	; 0x28
100057c2:	e006      	b.n	100057d2 <_vsnprintf+0x4ae>
100057c4:	1c57      	adds	r7, r2, #1
100057c6:	4643      	mov	r3, r8
100057c8:	4659      	mov	r1, fp
100057ca:	2020      	movs	r0, #32
100057cc:	47c8      	blx	r9
100057ce:	0034      	movs	r4, r6
100057d0:	003a      	movs	r2, r7
100057d2:	1c66      	adds	r6, r4, #1
100057d4:	42a5      	cmp	r5, r4
100057d6:	d8f5      	bhi.n	100057c4 <_vsnprintf+0x4a0>
100057d8:	464d      	mov	r5, r9
100057da:	4691      	mov	r9, r2
100057dc:	e7d7      	b.n	1000578e <_vsnprintf+0x46a>
100057de:	9b1c      	ldr	r3, [sp, #112]	; 0x70
100057e0:	1d1a      	adds	r2, r3, #4
100057e2:	921c      	str	r2, [sp, #112]	; 0x70
100057e4:	681b      	ldr	r3, [r3, #0]
100057e6:	4699      	mov	r9, r3
100057e8:	4653      	mov	r3, sl
100057ea:	2b00      	cmp	r3, #0
100057ec:	d100      	bne.n	100057f0 <_vsnprintf+0x4cc>
100057ee:	3b01      	subs	r3, #1
100057f0:	464e      	mov	r6, r9
100057f2:	e001      	b.n	100057f8 <_vsnprintf+0x4d4>
100057f4:	3601      	adds	r6, #1
100057f6:	0013      	movs	r3, r2
100057f8:	7832      	ldrb	r2, [r6, #0]
100057fa:	2a00      	cmp	r2, #0
100057fc:	d002      	beq.n	10005804 <_vsnprintf+0x4e0>
100057fe:	1e5a      	subs	r2, r3, #1
10005800:	2b00      	cmp	r3, #0
10005802:	d1f7      	bne.n	100057f4 <_vsnprintf+0x4d0>
10005804:	464b      	mov	r3, r9
10005806:	1af2      	subs	r2, r6, r3
10005808:	9210      	str	r2, [sp, #64]	; 0x40
1000580a:	2380      	movs	r3, #128	; 0x80
1000580c:	00db      	lsls	r3, r3, #3
1000580e:	0026      	movs	r6, r4
10005810:	401e      	ands	r6, r3
10005812:	421c      	tst	r4, r3
10005814:	d003      	beq.n	1000581e <_vsnprintf+0x4fa>
10005816:	4552      	cmp	r2, sl
10005818:	d901      	bls.n	1000581e <_vsnprintf+0x4fa>
1000581a:	4653      	mov	r3, sl
1000581c:	9310      	str	r3, [sp, #64]	; 0x40
1000581e:	2302      	movs	r3, #2
10005820:	001a      	movs	r2, r3
10005822:	4022      	ands	r2, r4
10005824:	920b      	str	r2, [sp, #44]	; 0x2c
10005826:	4223      	tst	r3, r4
10005828:	d005      	beq.n	10005836 <_vsnprintf+0x512>
1000582a:	003a      	movs	r2, r7
1000582c:	0037      	movs	r7, r6
1000582e:	464c      	mov	r4, r9
10005830:	46a9      	mov	r9, r5
10005832:	4655      	mov	r5, sl
10005834:	e020      	b.n	10005878 <_vsnprintf+0x554>
10005836:	003a      	movs	r2, r7
10005838:	9b10      	ldr	r3, [sp, #64]	; 0x40
1000583a:	465f      	mov	r7, fp
1000583c:	46b3      	mov	fp, r6
1000583e:	002e      	movs	r6, r5
10005840:	e006      	b.n	10005850 <_vsnprintf+0x52c>
10005842:	1c55      	adds	r5, r2, #1
10005844:	4643      	mov	r3, r8
10005846:	0039      	movs	r1, r7
10005848:	2020      	movs	r0, #32
1000584a:	47b0      	blx	r6
1000584c:	0023      	movs	r3, r4
1000584e:	002a      	movs	r2, r5
10005850:	1c5c      	adds	r4, r3, #1
10005852:	990a      	ldr	r1, [sp, #40]	; 0x28
10005854:	4299      	cmp	r1, r3
10005856:	d8f4      	bhi.n	10005842 <_vsnprintf+0x51e>
10005858:	0035      	movs	r5, r6
1000585a:	465e      	mov	r6, fp
1000585c:	46bb      	mov	fp, r7
1000585e:	9410      	str	r4, [sp, #64]	; 0x40
10005860:	0037      	movs	r7, r6
10005862:	464c      	mov	r4, r9
10005864:	46a9      	mov	r9, r5
10005866:	4655      	mov	r5, sl
10005868:	e006      	b.n	10005878 <_vsnprintf+0x554>
1000586a:	001d      	movs	r5, r3
1000586c:	3401      	adds	r4, #1
1000586e:	1c56      	adds	r6, r2, #1
10005870:	4643      	mov	r3, r8
10005872:	4659      	mov	r1, fp
10005874:	47c8      	blx	r9
10005876:	0032      	movs	r2, r6
10005878:	7820      	ldrb	r0, [r4, #0]
1000587a:	2800      	cmp	r0, #0
1000587c:	d004      	beq.n	10005888 <_vsnprintf+0x564>
1000587e:	2f00      	cmp	r7, #0
10005880:	d0f4      	beq.n	1000586c <_vsnprintf+0x548>
10005882:	1e6b      	subs	r3, r5, #1
10005884:	2d00      	cmp	r5, #0
10005886:	d1f0      	bne.n	1000586a <_vsnprintf+0x546>
10005888:	0017      	movs	r7, r2
1000588a:	464d      	mov	r5, r9
1000588c:	9b0b      	ldr	r3, [sp, #44]	; 0x2c
1000588e:	2b00      	cmp	r3, #0
10005890:	d103      	bne.n	1000589a <_vsnprintf+0x576>
10005892:	9b11      	ldr	r3, [sp, #68]	; 0x44
10005894:	3301      	adds	r3, #1
10005896:	9311      	str	r3, [sp, #68]	; 0x44
10005898:	e554      	b.n	10005344 <_vsnprintf+0x20>
1000589a:	9f0a      	ldr	r7, [sp, #40]	; 0x28
1000589c:	9b10      	ldr	r3, [sp, #64]	; 0x40
1000589e:	e006      	b.n	100058ae <_vsnprintf+0x58a>
100058a0:	1c56      	adds	r6, r2, #1
100058a2:	4643      	mov	r3, r8
100058a4:	4659      	mov	r1, fp
100058a6:	2020      	movs	r0, #32
100058a8:	47a8      	blx	r5
100058aa:	0023      	movs	r3, r4
100058ac:	0032      	movs	r2, r6
100058ae:	1c5c      	adds	r4, r3, #1
100058b0:	429f      	cmp	r7, r3
100058b2:	d8f5      	bhi.n	100058a0 <_vsnprintf+0x57c>
100058b4:	0017      	movs	r7, r2
100058b6:	e7ec      	b.n	10005892 <_vsnprintf+0x56e>
100058b8:	2321      	movs	r3, #33	; 0x21
100058ba:	431c      	orrs	r4, r3
100058bc:	9b1c      	ldr	r3, [sp, #112]	; 0x70
100058be:	1d1a      	adds	r2, r3, #4
100058c0:	921c      	str	r2, [sp, #112]	; 0x70
100058c2:	681b      	ldr	r3, [r3, #0]
100058c4:	9300      	str	r3, [sp, #0]
100058c6:	9405      	str	r4, [sp, #20]
100058c8:	2308      	movs	r3, #8
100058ca:	9304      	str	r3, [sp, #16]
100058cc:	4653      	mov	r3, sl
100058ce:	9303      	str	r3, [sp, #12]
100058d0:	2310      	movs	r3, #16
100058d2:	9302      	str	r3, [sp, #8]
100058d4:	2300      	movs	r3, #0
100058d6:	9301      	str	r3, [sp, #4]
100058d8:	4643      	mov	r3, r8
100058da:	003a      	movs	r2, r7
100058dc:	4659      	mov	r1, fp
100058de:	0028      	movs	r0, r5
100058e0:	f7ff f89c 	bl	10004a1c <_ntoa_long>
100058e4:	0007      	movs	r7, r0
100058e6:	9b11      	ldr	r3, [sp, #68]	; 0x44
100058e8:	3301      	adds	r3, #1
100058ea:	9311      	str	r3, [sp, #68]	; 0x44
100058ec:	e52a      	b.n	10005344 <_vsnprintf+0x20>
100058ee:	1c7c      	adds	r4, r7, #1
100058f0:	4643      	mov	r3, r8
100058f2:	003a      	movs	r2, r7
100058f4:	4659      	mov	r1, fp
100058f6:	2025      	movs	r0, #37	; 0x25
100058f8:	47a8      	blx	r5
100058fa:	9b11      	ldr	r3, [sp, #68]	; 0x44
100058fc:	3301      	adds	r3, #1
100058fe:	9311      	str	r3, [sp, #68]	; 0x44
10005900:	0027      	movs	r7, r4
10005902:	e51f      	b.n	10005344 <_vsnprintf+0x20>
10005904:	1c7c      	adds	r4, r7, #1
10005906:	4643      	mov	r3, r8
10005908:	003a      	movs	r2, r7
1000590a:	4659      	mov	r1, fp
1000590c:	47a8      	blx	r5
1000590e:	9b11      	ldr	r3, [sp, #68]	; 0x44
10005910:	3301      	adds	r3, #1
10005912:	9311      	str	r3, [sp, #68]	; 0x44
10005914:	0027      	movs	r7, r4
10005916:	e515      	b.n	10005344 <_vsnprintf+0x20>
10005918:	4b0a      	ldr	r3, [pc, #40]	; (10005944 <_vsnprintf+0x620>)
1000591a:	469a      	mov	sl, r3
1000591c:	e510      	b.n	10005340 <_vsnprintf+0x1c>
1000591e:	46aa      	mov	sl, r5
10005920:	4547      	cmp	r7, r8
10005922:	d302      	bcc.n	1000592a <_vsnprintf+0x606>
10005924:	4643      	mov	r3, r8
10005926:	1e5a      	subs	r2, r3, #1
10005928:	e000      	b.n	1000592c <_vsnprintf+0x608>
1000592a:	003a      	movs	r2, r7
1000592c:	4643      	mov	r3, r8
1000592e:	4659      	mov	r1, fp
10005930:	2000      	movs	r0, #0
10005932:	47d0      	blx	sl
10005934:	0038      	movs	r0, r7
10005936:	b013      	add	sp, #76	; 0x4c
10005938:	bcf0      	pop	{r4, r5, r6, r7}
1000593a:	46bb      	mov	fp, r7
1000593c:	46b2      	mov	sl, r6
1000593e:	46a9      	mov	r9, r5
10005940:	46a0      	mov	r8, r4
10005942:	bdf0      	pop	{r4, r5, r6, r7, pc}
10005944:	10004829 	.word	0x10004829

10005948 <vfctprintf>:
10005948:	b500      	push	{lr}
1000594a:	b085      	sub	sp, #20
1000594c:	9002      	str	r0, [sp, #8]
1000594e:	9103      	str	r1, [sp, #12]
10005950:	2101      	movs	r1, #1
10005952:	9300      	str	r3, [sp, #0]
10005954:	0013      	movs	r3, r2
10005956:	424a      	negs	r2, r1
10005958:	a902      	add	r1, sp, #8
1000595a:	4802      	ldr	r0, [pc, #8]	; (10005964 <vfctprintf+0x1c>)
1000595c:	f7ff fce2 	bl	10005324 <_vsnprintf>
10005960:	b005      	add	sp, #20
10005962:	bd00      	pop	{pc}
10005964:	1000482b 	.word	0x1000482b

10005968 <__aeabi_bits_init>:
10005968:	4801      	ldr	r0, [pc, #4]	; (10005970 <__aeabi_bits_init+0x8>)
1000596a:	2104      	movs	r1, #4
1000596c:	4b01      	ldr	r3, [pc, #4]	; (10005974 <__aeabi_bits_init+0xc>)
1000596e:	4718      	bx	r3
10005970:	20000ea0 	.word	0x20000ea0
10005974:	10005999 	.word	0x10005999

10005978 <rom_func_lookup>:
10005978:	b510      	push	{r4, lr}
1000597a:	0001      	movs	r1, r0
1000597c:	2318      	movs	r3, #24
1000597e:	881b      	ldrh	r3, [r3, #0]
10005980:	2214      	movs	r2, #20
10005982:	8810      	ldrh	r0, [r2, #0]
10005984:	4798      	blx	r3
10005986:	bd10      	pop	{r4, pc}

10005988 <rom_data_lookup>:
10005988:	b510      	push	{r4, lr}
1000598a:	0001      	movs	r1, r0
1000598c:	2318      	movs	r3, #24
1000598e:	881b      	ldrh	r3, [r3, #0]
10005990:	2216      	movs	r2, #22
10005992:	8810      	ldrh	r0, [r2, #0]
10005994:	4798      	blx	r3
10005996:	bd10      	pop	{r4, pc}

10005998 <rom_funcs_lookup>:
10005998:	b5f0      	push	{r4, r5, r6, r7, lr}
1000599a:	46c6      	mov	lr, r8
1000599c:	b500      	push	{lr}
1000599e:	0007      	movs	r7, r0
100059a0:	000e      	movs	r6, r1
100059a2:	2500      	movs	r5, #0
100059a4:	2301      	movs	r3, #1
100059a6:	4698      	mov	r8, r3
100059a8:	e000      	b.n	100059ac <rom_funcs_lookup+0x14>
100059aa:	3501      	adds	r5, #1
100059ac:	42b5      	cmp	r5, r6
100059ae:	d20a      	bcs.n	100059c6 <rom_funcs_lookup+0x2e>
100059b0:	00ac      	lsls	r4, r5, #2
100059b2:	193c      	adds	r4, r7, r4
100059b4:	6820      	ldr	r0, [r4, #0]
100059b6:	f7ff ffdf 	bl	10005978 <rom_func_lookup>
100059ba:	6020      	str	r0, [r4, #0]
100059bc:	2800      	cmp	r0, #0
100059be:	d1f4      	bne.n	100059aa <rom_funcs_lookup+0x12>
100059c0:	2300      	movs	r3, #0
100059c2:	4698      	mov	r8, r3
100059c4:	e7f1      	b.n	100059aa <rom_funcs_lookup+0x12>
100059c6:	4640      	mov	r0, r8
100059c8:	bc80      	pop	{r7}
100059ca:	46b8      	mov	r8, r7
100059cc:	bdf0      	pop	{r4, r5, r6, r7, pc}
	...

100059d0 <__wrap___aeabi_idiv>:
100059d0:	4a12      	ldr	r2, [pc, #72]	; (10005a1c <divmod_s32s32_savestate+0x18>)
100059d2:	6f93      	ldr	r3, [r2, #120]	; 0x78
100059d4:	089b      	lsrs	r3, r3, #2
100059d6:	d215      	bcs.n	10005a04 <divmod_s32s32_savestate>

100059d8 <divmod_s32s32_unsafe>:
100059d8:	6690      	str	r0, [r2, #104]	; 0x68
100059da:	66d1      	str	r1, [r2, #108]	; 0x6c
100059dc:	2900      	cmp	r1, #0
100059de:	d005      	beq.n	100059ec <divmod_s32s32_unsafe+0x14>
100059e0:	e7ff      	b.n	100059e2 <divmod_s32s32_unsafe+0xa>
100059e2:	e7ff      	b.n	100059e4 <divmod_s32s32_unsafe+0xc>
100059e4:	e7ff      	b.n	100059e6 <divmod_s32s32_unsafe+0xe>
100059e6:	6f51      	ldr	r1, [r2, #116]	; 0x74
100059e8:	6f10      	ldr	r0, [r2, #112]	; 0x70
100059ea:	4770      	bx	lr
100059ec:	b504      	push	{r2, lr}
100059ee:	2180      	movs	r1, #128	; 0x80
100059f0:	0609      	lsls	r1, r1, #24
100059f2:	17c2      	asrs	r2, r0, #31
100059f4:	4051      	eors	r1, r2
100059f6:	2800      	cmp	r0, #0
100059f8:	d000      	beq.n	100059fc <divmod_s32s32_unsafe+0x24>
100059fa:	43c8      	mvns	r0, r1
100059fc:	f004 f840 	bl	10009a80 <____aeabi_idiv0_veneer>
10005a00:	2100      	movs	r1, #0
10005a02:	bd04      	pop	{r2, pc}

10005a04 <divmod_s32s32_savestate>:
10005a04:	b5f0      	push	{r4, r5, r6, r7, lr}
10005a06:	6e14      	ldr	r4, [r2, #96]	; 0x60
10005a08:	6e55      	ldr	r5, [r2, #100]	; 0x64
10005a0a:	6f57      	ldr	r7, [r2, #116]	; 0x74
10005a0c:	6f16      	ldr	r6, [r2, #112]	; 0x70
10005a0e:	f7ff ffe3 	bl	100059d8 <divmod_s32s32_unsafe>
10005a12:	6614      	str	r4, [r2, #96]	; 0x60
10005a14:	6655      	str	r5, [r2, #100]	; 0x64
10005a16:	6757      	str	r7, [r2, #116]	; 0x74
10005a18:	6716      	str	r6, [r2, #112]	; 0x70
10005a1a:	bdf0      	pop	{r4, r5, r6, r7, pc}
10005a1c:	d0000000 	.word	0xd0000000

10005a20 <__wrap___aeabi_uidiv>:
10005a20:	4a11      	ldr	r2, [pc, #68]	; (10005a68 <divmod_u32u32_savestate+0x18>)
10005a22:	6f93      	ldr	r3, [r2, #120]	; 0x78
10005a24:	089b      	lsrs	r3, r3, #2
10005a26:	d213      	bcs.n	10005a50 <divmod_u32u32_savestate>

10005a28 <divmod_u32u32_unsafe>:
10005a28:	6610      	str	r0, [r2, #96]	; 0x60
10005a2a:	6651      	str	r1, [r2, #100]	; 0x64
10005a2c:	2900      	cmp	r1, #0
10005a2e:	d005      	beq.n	10005a3c <divmod_u32u32_unsafe+0x14>
10005a30:	e7ff      	b.n	10005a32 <divmod_u32u32_unsafe+0xa>
10005a32:	e7ff      	b.n	10005a34 <divmod_u32u32_unsafe+0xc>
10005a34:	e7ff      	b.n	10005a36 <divmod_u32u32_unsafe+0xe>
10005a36:	6f51      	ldr	r1, [r2, #116]	; 0x74
10005a38:	6f10      	ldr	r0, [r2, #112]	; 0x70
10005a3a:	4770      	bx	lr
10005a3c:	b504      	push	{r2, lr}
10005a3e:	2800      	cmp	r0, #0
10005a40:	d001      	beq.n	10005a46 <divmod_u32u32_unsafe+0x1e>
10005a42:	2000      	movs	r0, #0
10005a44:	43c0      	mvns	r0, r0
10005a46:	f004 f81b 	bl	10009a80 <____aeabi_idiv0_veneer>
10005a4a:	2100      	movs	r1, #0
10005a4c:	bd04      	pop	{r2, pc}
10005a4e:	46c0      	nop			; (mov r8, r8)

10005a50 <divmod_u32u32_savestate>:
10005a50:	b5f0      	push	{r4, r5, r6, r7, lr}
10005a52:	6e14      	ldr	r4, [r2, #96]	; 0x60
10005a54:	6e55      	ldr	r5, [r2, #100]	; 0x64
10005a56:	6f57      	ldr	r7, [r2, #116]	; 0x74
10005a58:	6f16      	ldr	r6, [r2, #112]	; 0x70
10005a5a:	f7ff ffe5 	bl	10005a28 <divmod_u32u32_unsafe>
10005a5e:	6614      	str	r4, [r2, #96]	; 0x60
10005a60:	6655      	str	r5, [r2, #100]	; 0x64
10005a62:	6757      	str	r7, [r2, #116]	; 0x74
10005a64:	6716      	str	r6, [r2, #112]	; 0x70
10005a66:	bdf0      	pop	{r4, r5, r6, r7, pc}
10005a68:	d0000000 	.word	0xd0000000

10005a6c <__wrap___aeabi_ldivmod>:
10005a6c:	4694      	mov	ip, r2
10005a6e:	4a4a      	ldr	r2, [pc, #296]	; (10005b98 <udiv0+0x1a>)
10005a70:	6f92      	ldr	r2, [r2, #120]	; 0x78
10005a72:	0892      	lsrs	r2, r2, #2
10005a74:	4662      	mov	r2, ip
10005a76:	d201      	bcs.n	10005a7c <divmod_s64s64_savestate>
10005a78:	e028      	b.n	10005acc <divmod_s64s64_unsafe>
10005a7a:	46c0      	nop			; (mov r8, r8)

10005a7c <divmod_s64s64_savestate>:
10005a7c:	b5f0      	push	{r4, r5, r6, r7, lr}
10005a7e:	4e46      	ldr	r6, [pc, #280]	; (10005b98 <udiv0+0x1a>)
10005a80:	6e34      	ldr	r4, [r6, #96]	; 0x60
10005a82:	6e75      	ldr	r5, [r6, #100]	; 0x64
10005a84:	6f77      	ldr	r7, [r6, #116]	; 0x74
10005a86:	6f36      	ldr	r6, [r6, #112]	; 0x70
10005a88:	f000 f820 	bl	10005acc <divmod_s64s64_unsafe>
10005a8c:	4694      	mov	ip, r2
10005a8e:	4a42      	ldr	r2, [pc, #264]	; (10005b98 <udiv0+0x1a>)
10005a90:	6614      	str	r4, [r2, #96]	; 0x60
10005a92:	6655      	str	r5, [r2, #100]	; 0x64
10005a94:	6757      	str	r7, [r2, #116]	; 0x74
10005a96:	6716      	str	r6, [r2, #112]	; 0x70
10005a98:	4662      	mov	r2, ip
10005a9a:	bdf0      	pop	{r4, r5, r6, r7, pc}

10005a9c <__wrap___aeabi_uldivmod>:
10005a9c:	4694      	mov	ip, r2
10005a9e:	4a3e      	ldr	r2, [pc, #248]	; (10005b98 <udiv0+0x1a>)
10005aa0:	6f92      	ldr	r2, [r2, #120]	; 0x78
10005aa2:	0892      	lsrs	r2, r2, #2
10005aa4:	4662      	mov	r2, ip
10005aa6:	d201      	bcs.n	10005aac <divmod_u64u64_savestate>
10005aa8:	e054      	b.n	10005b54 <divmod_u64u64_unsafe>
10005aaa:	46c0      	nop			; (mov r8, r8)

10005aac <divmod_u64u64_savestate>:
10005aac:	b5f0      	push	{r4, r5, r6, r7, lr}
10005aae:	4e3a      	ldr	r6, [pc, #232]	; (10005b98 <udiv0+0x1a>)
10005ab0:	6e34      	ldr	r4, [r6, #96]	; 0x60
10005ab2:	6e75      	ldr	r5, [r6, #100]	; 0x64
10005ab4:	6f77      	ldr	r7, [r6, #116]	; 0x74
10005ab6:	6f36      	ldr	r6, [r6, #112]	; 0x70
10005ab8:	f000 f84c 	bl	10005b54 <divmod_u64u64_unsafe>
10005abc:	4694      	mov	ip, r2
10005abe:	4a36      	ldr	r2, [pc, #216]	; (10005b98 <udiv0+0x1a>)
10005ac0:	6614      	str	r4, [r2, #96]	; 0x60
10005ac2:	6655      	str	r5, [r2, #100]	; 0x64
10005ac4:	6757      	str	r7, [r2, #116]	; 0x74
10005ac6:	6716      	str	r6, [r2, #112]	; 0x70
10005ac8:	4662      	mov	r2, ip
10005aca:	bdf0      	pop	{r4, r5, r6, r7, pc}

10005acc <divmod_s64s64_unsafe>:
10005acc:	2b00      	cmp	r3, #0
10005ace:	db24      	blt.n	10005b1a <l42_1+0x26>
10005ad0:	d011      	beq.n	10005af6 <l42_1+0x2>
10005ad2:	2900      	cmp	r1, #0
10005ad4:	da3e      	bge.n	10005b54 <divmod_u64u64_unsafe>
10005ad6:	b500      	push	{lr}
10005ad8:	43c9      	mvns	r1, r1
10005ada:	4240      	negs	r0, r0
10005adc:	d100      	bne.n	10005ae0 <l40_1>
10005ade:	3101      	adds	r1, #1

10005ae0 <l40_1>:
10005ae0:	f000 f838 	bl	10005b54 <divmod_u64u64_unsafe>
10005ae4:	43c9      	mvns	r1, r1
10005ae6:	4240      	negs	r0, r0
10005ae8:	d100      	bne.n	10005aec <l41_1>
10005aea:	3101      	adds	r1, #1

10005aec <l41_1>:
10005aec:	43db      	mvns	r3, r3
10005aee:	4252      	negs	r2, r2
10005af0:	d100      	bne.n	10005af4 <l42_1>
10005af2:	3301      	adds	r3, #1

10005af4 <l42_1>:
10005af4:	bd00      	pop	{pc}
10005af6:	2a00      	cmp	r2, #0
10005af8:	d1eb      	bne.n	10005ad2 <divmod_s64s64_unsafe+0x6>
10005afa:	2800      	cmp	r0, #0
10005afc:	d101      	bne.n	10005b02 <l42_1+0xe>
10005afe:	2900      	cmp	r1, #0
10005b00:	d005      	beq.n	10005b0e <l42_1+0x1a>
10005b02:	2000      	movs	r0, #0
10005b04:	0fc9      	lsrs	r1, r1, #31
10005b06:	07c9      	lsls	r1, r1, #31
10005b08:	d101      	bne.n	10005b0e <l42_1+0x1a>
10005b0a:	43c0      	mvns	r0, r0
10005b0c:	0841      	lsrs	r1, r0, #1
10005b0e:	b500      	push	{lr}
10005b10:	f003 ff9e 	bl	10009a50 <____aeabi_ldiv0_veneer>
10005b14:	2200      	movs	r2, #0
10005b16:	2300      	movs	r3, #0
10005b18:	bd00      	pop	{pc}
10005b1a:	b500      	push	{lr}
10005b1c:	2900      	cmp	r1, #0
10005b1e:	db0a      	blt.n	10005b36 <l44_1+0x2>
10005b20:	43db      	mvns	r3, r3
10005b22:	4252      	negs	r2, r2
10005b24:	d100      	bne.n	10005b28 <l43_1>
10005b26:	3301      	adds	r3, #1

10005b28 <l43_1>:
10005b28:	f000 f814 	bl	10005b54 <divmod_u64u64_unsafe>
10005b2c:	43c9      	mvns	r1, r1
10005b2e:	4240      	negs	r0, r0
10005b30:	d100      	bne.n	10005b34 <l44_1>
10005b32:	3101      	adds	r1, #1

10005b34 <l44_1>:
10005b34:	bd00      	pop	{pc}
10005b36:	43c9      	mvns	r1, r1
10005b38:	4240      	negs	r0, r0
10005b3a:	d100      	bne.n	10005b3e <l45_1>
10005b3c:	3101      	adds	r1, #1

10005b3e <l45_1>:
10005b3e:	43db      	mvns	r3, r3
10005b40:	4252      	negs	r2, r2
10005b42:	d100      	bne.n	10005b46 <l46_1>
10005b44:	3301      	adds	r3, #1

10005b46 <l46_1>:
10005b46:	f000 f805 	bl	10005b54 <divmod_u64u64_unsafe>
10005b4a:	43db      	mvns	r3, r3
10005b4c:	4252      	negs	r2, r2
10005b4e:	d100      	bne.n	10005b52 <l47_1>
10005b50:	3301      	adds	r3, #1

10005b52 <l47_1>:
10005b52:	bd00      	pop	{pc}

10005b54 <divmod_u64u64_unsafe>:
10005b54:	2900      	cmp	r1, #0
10005b56:	d123      	bne.n	10005ba0 <y64>
10005b58:	2b00      	cmp	r3, #0
10005b5a:	d118      	bne.n	10005b8e <udiv0+0x10>
10005b5c:	2a00      	cmp	r2, #0
10005b5e:	d00c      	beq.n	10005b7a <divmod_u64u64_unsafe+0x26>
10005b60:	46bc      	mov	ip, r7
10005b62:	4f0d      	ldr	r7, [pc, #52]	; (10005b98 <udiv0+0x1a>)
10005b64:	6638      	str	r0, [r7, #96]	; 0x60
10005b66:	667a      	str	r2, [r7, #100]	; 0x64
10005b68:	2100      	movs	r1, #0
10005b6a:	2300      	movs	r3, #0
10005b6c:	e7ff      	b.n	10005b6e <divmod_u64u64_unsafe+0x1a>
10005b6e:	e7ff      	b.n	10005b70 <divmod_u64u64_unsafe+0x1c>
10005b70:	e7ff      	b.n	10005b72 <divmod_u64u64_unsafe+0x1e>
10005b72:	6f7a      	ldr	r2, [r7, #116]	; 0x74
10005b74:	6f38      	ldr	r0, [r7, #112]	; 0x70
10005b76:	4667      	mov	r7, ip
10005b78:	4770      	bx	lr
10005b7a:	2800      	cmp	r0, #0
10005b7c:	d001      	beq.n	10005b82 <udiv0+0x4>

10005b7e <udiv0>:
10005b7e:	4807      	ldr	r0, [pc, #28]	; (10005b9c <udiv0+0x1e>)
10005b80:	0001      	movs	r1, r0
10005b82:	b500      	push	{lr}
10005b84:	f003 ff64 	bl	10009a50 <____aeabi_ldiv0_veneer>
10005b88:	2200      	movs	r2, #0
10005b8a:	2300      	movs	r3, #0
10005b8c:	bd00      	pop	{pc}
10005b8e:	0002      	movs	r2, r0
10005b90:	000b      	movs	r3, r1
10005b92:	2000      	movs	r0, #0
10005b94:	2100      	movs	r1, #0
10005b96:	4770      	bx	lr
10005b98:	d0000000 	.word	0xd0000000
10005b9c:	ffffffff 	.word	0xffffffff

10005ba0 <y64>:
10005ba0:	2b00      	cmp	r3, #0
10005ba2:	d000      	beq.n	10005ba6 <y64+0x6>
10005ba4:	e0bf      	b.n	10005d26 <y64_x48>
10005ba6:	0c13      	lsrs	r3, r2, #16
10005ba8:	d128      	bne.n	10005bfc <y64_x32>
10005baa:	2a00      	cmp	r2, #0
10005bac:	d0e7      	beq.n	10005b7e <udiv0>
10005bae:	b480      	push	{r7}
10005bb0:	4f11      	ldr	r7, [pc, #68]	; (10005bf8 <y64+0x58>)
10005bb2:	6639      	str	r1, [r7, #96]	; 0x60
10005bb4:	667a      	str	r2, [r7, #100]	; 0x64
10005bb6:	e7ff      	b.n	10005bb8 <y64+0x18>
10005bb8:	e7ff      	b.n	10005bba <y64+0x1a>
10005bba:	b430      	push	{r4, r5}
10005bbc:	0c04      	lsrs	r4, r0, #16
10005bbe:	6f7b      	ldr	r3, [r7, #116]	; 0x74
10005bc0:	6f39      	ldr	r1, [r7, #112]	; 0x70
10005bc2:	041b      	lsls	r3, r3, #16
10005bc4:	4323      	orrs	r3, r4
10005bc6:	663b      	str	r3, [r7, #96]	; 0x60
10005bc8:	667a      	str	r2, [r7, #100]	; 0x64
10005bca:	e7ff      	b.n	10005bcc <y64+0x2c>
10005bcc:	e7ff      	b.n	10005bce <y64+0x2e>
10005bce:	e7ff      	b.n	10005bd0 <y64+0x30>
10005bd0:	46c0      	nop			; (mov r8, r8)
10005bd2:	b284      	uxth	r4, r0
10005bd4:	6f7b      	ldr	r3, [r7, #116]	; 0x74
10005bd6:	6f3d      	ldr	r5, [r7, #112]	; 0x70
10005bd8:	041b      	lsls	r3, r3, #16
10005bda:	4323      	orrs	r3, r4
10005bdc:	663b      	str	r3, [r7, #96]	; 0x60
10005bde:	667a      	str	r2, [r7, #100]	; 0x64
10005be0:	e7ff      	b.n	10005be2 <y64+0x42>
10005be2:	e7ff      	b.n	10005be4 <y64+0x44>
10005be4:	46c0      	nop			; (mov r8, r8)
10005be6:	2300      	movs	r3, #0
10005be8:	042c      	lsls	r4, r5, #16
10005bea:	0c2d      	lsrs	r5, r5, #16
10005bec:	6f7a      	ldr	r2, [r7, #116]	; 0x74
10005bee:	6f38      	ldr	r0, [r7, #112]	; 0x70
10005bf0:	1900      	adds	r0, r0, r4
10005bf2:	4169      	adcs	r1, r5
10005bf4:	bcb0      	pop	{r4, r5, r7}
10005bf6:	4770      	bx	lr
10005bf8:	d0000000 	.word	0xd0000000

10005bfc <y64_x32>:
10005bfc:	b5f0      	push	{r4, r5, r6, r7, lr}
10005bfe:	4694      	mov	ip, r2
10005c00:	2500      	movs	r5, #0
10005c02:	0e14      	lsrs	r4, r2, #24
10005c04:	d101      	bne.n	10005c0a <y64_x32+0xe>
10005c06:	0212      	lsls	r2, r2, #8
10005c08:	3508      	adds	r5, #8
10005c0a:	0f14      	lsrs	r4, r2, #28
10005c0c:	d101      	bne.n	10005c12 <y64_x32+0x16>
10005c0e:	0112      	lsls	r2, r2, #4
10005c10:	3504      	adds	r5, #4
10005c12:	0f94      	lsrs	r4, r2, #30
10005c14:	d101      	bne.n	10005c1a <y64_x32+0x1e>
10005c16:	0092      	lsls	r2, r2, #2
10005c18:	3502      	adds	r5, #2
10005c1a:	0fd4      	lsrs	r4, r2, #31
10005c1c:	d101      	bne.n	10005c22 <y64_x32+0x26>
10005c1e:	0052      	lsls	r2, r2, #1
10005c20:	3501      	adds	r5, #1
10005c22:	0bd4      	lsrs	r4, r2, #15
10005c24:	3401      	adds	r4, #1
10005c26:	4f25      	ldr	r7, [pc, #148]	; (10005cbc <y64_x32+0xc0>)
10005c28:	667c      	str	r4, [r7, #100]	; 0x64
10005c2a:	4c25      	ldr	r4, [pc, #148]	; (10005cc0 <y64_x32+0xc4>)
10005c2c:	663c      	str	r4, [r7, #96]	; 0x60
10005c2e:	0c0e      	lsrs	r6, r1, #16
10005c30:	b293      	uxth	r3, r2
10005c32:	e7ff      	b.n	10005c34 <y64_x32+0x38>
10005c34:	e7ff      	b.n	10005c36 <y64_x32+0x3a>
10005c36:	e7ff      	b.n	10005c38 <y64_x32+0x3c>
10005c38:	6f3c      	ldr	r4, [r7, #112]	; 0x70
10005c3a:	4366      	muls	r6, r4
10005c3c:	0c36      	lsrs	r6, r6, #16
10005c3e:	0377      	lsls	r7, r6, #13
10005c40:	46be      	mov	lr, r7
10005c42:	4373      	muls	r3, r6
10005c44:	0bdf      	lsrs	r7, r3, #15
10005c46:	045b      	lsls	r3, r3, #17
10005c48:	1ac0      	subs	r0, r0, r3
10005c4a:	41b9      	sbcs	r1, r7
10005c4c:	0c13      	lsrs	r3, r2, #16
10005c4e:	4373      	muls	r3, r6
10005c50:	18db      	adds	r3, r3, r3
10005c52:	1ac9      	subs	r1, r1, r3
10005c54:	08ce      	lsrs	r6, r1, #3
10005c56:	4366      	muls	r6, r4
10005c58:	0c36      	lsrs	r6, r6, #16
10005c5a:	44b6      	add	lr, r6
10005c5c:	b293      	uxth	r3, r2
10005c5e:	4373      	muls	r3, r6
10005c60:	0f1f      	lsrs	r7, r3, #28
10005c62:	011b      	lsls	r3, r3, #4
10005c64:	1ac0      	subs	r0, r0, r3
10005c66:	41b9      	sbcs	r1, r7
10005c68:	0c13      	lsrs	r3, r2, #16
10005c6a:	4373      	muls	r3, r6
10005c6c:	0b1f      	lsrs	r7, r3, #12
10005c6e:	051b      	lsls	r3, r3, #20
10005c70:	1ac0      	subs	r0, r0, r3
10005c72:	41b9      	sbcs	r1, r7
10005c74:	0d86      	lsrs	r6, r0, #22
10005c76:	028f      	lsls	r7, r1, #10
10005c78:	433e      	orrs	r6, r7
10005c7a:	4366      	muls	r6, r4
10005c7c:	0c36      	lsrs	r6, r6, #16
10005c7e:	2d09      	cmp	r5, #9
10005c80:	db24      	blt.n	10005ccc <last0>
10005c82:	0a52      	lsrs	r2, r2, #9
10005c84:	4372      	muls	r2, r6
10005c86:	1a80      	subs	r0, r0, r2
10005c88:	0377      	lsls	r7, r6, #13
10005c8a:	0a46      	lsrs	r6, r0, #9
10005c8c:	4366      	muls	r6, r4
10005c8e:	0c36      	lsrs	r6, r6, #16
10005c90:	2316      	movs	r3, #22
10005c92:	1b5b      	subs	r3, r3, r5
10005c94:	40de      	lsrs	r6, r3
10005c96:	40df      	lsrs	r7, r3
10005c98:	19bf      	adds	r7, r7, r6
10005c9a:	4664      	mov	r4, ip
10005c9c:	4366      	muls	r6, r4
10005c9e:	1b82      	subs	r2, r0, r6
10005ca0:	4670      	mov	r0, lr
10005ca2:	3504      	adds	r5, #4
10005ca4:	3306      	adds	r3, #6
10005ca6:	0001      	movs	r1, r0
10005ca8:	40d9      	lsrs	r1, r3
10005caa:	40a8      	lsls	r0, r5
10005cac:	19c0      	adds	r0, r0, r7
10005cae:	d300      	bcc.n	10005cb2 <y64_x32+0xb6>
10005cb0:	3101      	adds	r1, #1
10005cb2:	42a2      	cmp	r2, r4
10005cb4:	d206      	bcs.n	10005cc4 <y64_x32+0xc8>
10005cb6:	2300      	movs	r3, #0
10005cb8:	bdf0      	pop	{r4, r5, r6, r7, pc}
10005cba:	0000      	.short	0x0000
10005cbc:	d0000000 	.word	0xd0000000
10005cc0:	ffffffff 	.word	0xffffffff
10005cc4:	1b12      	subs	r2, r2, r4
10005cc6:	3001      	adds	r0, #1
10005cc8:	d3f3      	bcc.n	10005cb2 <y64_x32+0xb6>
10005cca:	e7f1      	b.n	10005cb0 <y64_x32+0xb4>

10005ccc <last0>:
10005ccc:	2709      	movs	r7, #9
10005cce:	1b7f      	subs	r7, r7, r5
10005cd0:	40fe      	lsrs	r6, r7
10005cd2:	4664      	mov	r4, ip
10005cd4:	b2a2      	uxth	r2, r4
10005cd6:	4372      	muls	r2, r6
10005cd8:	1a80      	subs	r0, r0, r2
10005cda:	d200      	bcs.n	10005cde <last0+0x12>
10005cdc:	3901      	subs	r1, #1
10005cde:	0c22      	lsrs	r2, r4, #16
10005ce0:	4372      	muls	r2, r6
10005ce2:	0c13      	lsrs	r3, r2, #16
10005ce4:	0412      	lsls	r2, r2, #16
10005ce6:	1a82      	subs	r2, r0, r2
10005ce8:	4199      	sbcs	r1, r3
10005cea:	000b      	movs	r3, r1
10005cec:	4670      	mov	r0, lr
10005cee:	3504      	adds	r5, #4
10005cf0:	3713      	adds	r7, #19
10005cf2:	0001      	movs	r1, r0
10005cf4:	40f9      	lsrs	r1, r7
10005cf6:	40a8      	lsls	r0, r5
10005cf8:	1980      	adds	r0, r0, r6
10005cfa:	d300      	bcc.n	10005cfe <last0+0x32>
10005cfc:	3101      	adds	r1, #1
10005cfe:	2b00      	cmp	r3, #0
10005d00:	d102      	bne.n	10005d08 <last0+0x3c>
10005d02:	42a2      	cmp	r2, r4
10005d04:	d20a      	bcs.n	10005d1c <last0+0x50>
10005d06:	bdf0      	pop	{r4, r5, r6, r7, pc}
10005d08:	3001      	adds	r0, #1
10005d0a:	d300      	bcc.n	10005d0e <last0+0x42>
10005d0c:	3101      	adds	r1, #1
10005d0e:	1b12      	subs	r2, r2, r4
10005d10:	d2fa      	bcs.n	10005d08 <last0+0x3c>
10005d12:	3b01      	subs	r3, #1
10005d14:	d1f8      	bne.n	10005d08 <last0+0x3c>
10005d16:	42a2      	cmp	r2, r4
10005d18:	d200      	bcs.n	10005d1c <last0+0x50>
10005d1a:	bdf0      	pop	{r4, r5, r6, r7, pc}
10005d1c:	3001      	adds	r0, #1
10005d1e:	d300      	bcc.n	10005d22 <last0+0x56>
10005d20:	3101      	adds	r1, #1
10005d22:	1b12      	subs	r2, r2, r4
10005d24:	e7f7      	b.n	10005d16 <last0+0x4a>

10005d26 <y64_x48>:
10005d26:	b5f0      	push	{r4, r5, r6, r7, lr}
10005d28:	0c1c      	lsrs	r4, r3, #16
10005d2a:	d000      	beq.n	10005d2e <y64_x48+0x8>
10005d2c:	e080      	b.n	10005e30 <y64_x64>
10005d2e:	b40c      	push	{r2, r3}
10005d30:	2500      	movs	r5, #0
10005d32:	0a1c      	lsrs	r4, r3, #8
10005d34:	d104      	bne.n	10005d40 <y64_x48+0x1a>
10005d36:	021b      	lsls	r3, r3, #8
10005d38:	0e16      	lsrs	r6, r2, #24
10005d3a:	4333      	orrs	r3, r6
10005d3c:	0212      	lsls	r2, r2, #8
10005d3e:	3508      	adds	r5, #8
10005d40:	0b1c      	lsrs	r4, r3, #12
10005d42:	d104      	bne.n	10005d4e <y64_x48+0x28>
10005d44:	011b      	lsls	r3, r3, #4
10005d46:	0f16      	lsrs	r6, r2, #28
10005d48:	4333      	orrs	r3, r6
10005d4a:	0112      	lsls	r2, r2, #4
10005d4c:	3504      	adds	r5, #4
10005d4e:	0b9c      	lsrs	r4, r3, #14
10005d50:	d104      	bne.n	10005d5c <y64_x48+0x36>
10005d52:	009b      	lsls	r3, r3, #2
10005d54:	0f96      	lsrs	r6, r2, #30
10005d56:	4333      	orrs	r3, r6
10005d58:	0092      	lsls	r2, r2, #2
10005d5a:	3502      	adds	r5, #2
10005d5c:	0bdc      	lsrs	r4, r3, #15
10005d5e:	d102      	bne.n	10005d66 <y64_x48+0x40>
10005d60:	1892      	adds	r2, r2, r2
10005d62:	415b      	adcs	r3, r3
10005d64:	3501      	adds	r5, #1
10005d66:	001c      	movs	r4, r3
10005d68:	1897      	adds	r7, r2, r2
10005d6a:	4164      	adcs	r4, r4
10005d6c:	3401      	adds	r4, #1
10005d6e:	4f46      	ldr	r7, [pc, #280]	; (10005e88 <y64_x64+0x58>)
10005d70:	667c      	str	r4, [r7, #100]	; 0x64
10005d72:	4c46      	ldr	r4, [pc, #280]	; (10005e8c <y64_x64+0x5c>)
10005d74:	663c      	str	r4, [r7, #96]	; 0x60
10005d76:	0c0e      	lsrs	r6, r1, #16
10005d78:	e7ff      	b.n	10005d7a <y64_x48+0x54>
10005d7a:	e7ff      	b.n	10005d7c <y64_x48+0x56>
10005d7c:	e7ff      	b.n	10005d7e <y64_x48+0x58>
10005d7e:	46c0      	nop			; (mov r8, r8)
10005d80:	6f3c      	ldr	r4, [r7, #112]	; 0x70
10005d82:	4366      	muls	r6, r4
10005d84:	0c36      	lsrs	r6, r6, #16
10005d86:	0377      	lsls	r7, r6, #13
10005d88:	46be      	mov	lr, r7
10005d8a:	b297      	uxth	r7, r2
10005d8c:	4377      	muls	r7, r6
10005d8e:	1bc0      	subs	r0, r0, r7
10005d90:	d200      	bcs.n	10005d94 <y64_x48+0x6e>
10005d92:	3901      	subs	r1, #1
10005d94:	1bc0      	subs	r0, r0, r7
10005d96:	d200      	bcs.n	10005d9a <y64_x48+0x74>
10005d98:	3901      	subs	r1, #1
10005d9a:	b29f      	uxth	r7, r3
10005d9c:	4377      	muls	r7, r6
10005d9e:	1bc9      	subs	r1, r1, r7
10005da0:	1bc9      	subs	r1, r1, r7
10005da2:	0c17      	lsrs	r7, r2, #16
10005da4:	4377      	muls	r7, r6
10005da6:	047e      	lsls	r6, r7, #17
10005da8:	0bff      	lsrs	r7, r7, #15
10005daa:	1b80      	subs	r0, r0, r6
10005dac:	41b9      	sbcs	r1, r7
10005dae:	08ce      	lsrs	r6, r1, #3
10005db0:	4366      	muls	r6, r4
10005db2:	0c36      	lsrs	r6, r6, #16
10005db4:	2d0c      	cmp	r5, #12
10005db6:	db33      	blt.n	10005e20 <last1>
10005db8:	44b6      	add	lr, r6
10005dba:	0b12      	lsrs	r2, r2, #12
10005dbc:	051f      	lsls	r7, r3, #20
10005dbe:	433a      	orrs	r2, r7
10005dc0:	0b1b      	lsrs	r3, r3, #12
10005dc2:	b297      	uxth	r7, r2
10005dc4:	4377      	muls	r7, r6
10005dc6:	1bc0      	subs	r0, r0, r7
10005dc8:	d200      	bcs.n	10005dcc <y64_x48+0xa6>
10005dca:	3901      	subs	r1, #1
10005dcc:	b29f      	uxth	r7, r3
10005dce:	4377      	muls	r7, r6
10005dd0:	1bc9      	subs	r1, r1, r7
10005dd2:	0c17      	lsrs	r7, r2, #16
10005dd4:	4377      	muls	r7, r6
10005dd6:	043e      	lsls	r6, r7, #16
10005dd8:	0c3f      	lsrs	r7, r7, #16
10005dda:	1b80      	subs	r0, r0, r6
10005ddc:	41b9      	sbcs	r1, r7
10005dde:	0d86      	lsrs	r6, r0, #22
10005de0:	028f      	lsls	r7, r1, #10
10005de2:	433e      	orrs	r6, r7
10005de4:	4366      	muls	r6, r4
10005de6:	2729      	movs	r7, #41	; 0x29
10005de8:	1b7f      	subs	r7, r7, r5
10005dea:	40fe      	lsrs	r6, r7
10005dec:	3d0c      	subs	r5, #12
10005dee:	4677      	mov	r7, lr
10005df0:	40af      	lsls	r7, r5
10005df2:	19bf      	adds	r7, r7, r6
10005df4:	bc30      	pop	{r4, r5}
10005df6:	b2a2      	uxth	r2, r4
10005df8:	b2ab      	uxth	r3, r5
10005dfa:	4372      	muls	r2, r6
10005dfc:	4373      	muls	r3, r6
10005dfe:	1a80      	subs	r0, r0, r2
10005e00:	4199      	sbcs	r1, r3
10005e02:	0c22      	lsrs	r2, r4, #16
10005e04:	4372      	muls	r2, r6
10005e06:	0c13      	lsrs	r3, r2, #16
10005e08:	0412      	lsls	r2, r2, #16
10005e0a:	1a80      	subs	r0, r0, r2
10005e0c:	4199      	sbcs	r1, r3
10005e0e:	0002      	movs	r2, r0
10005e10:	000b      	movs	r3, r1
10005e12:	3701      	adds	r7, #1
10005e14:	1b00      	subs	r0, r0, r4
10005e16:	41a9      	sbcs	r1, r5
10005e18:	d2f9      	bcs.n	10005e0e <y64_x48+0xe8>
10005e1a:	1e78      	subs	r0, r7, #1
10005e1c:	2100      	movs	r1, #0
10005e1e:	bdf0      	pop	{r4, r5, r6, r7, pc}

10005e20 <last1>:
10005e20:	270c      	movs	r7, #12
10005e22:	1b7f      	subs	r7, r7, r5
10005e24:	40fe      	lsrs	r6, r7
10005e26:	4677      	mov	r7, lr
10005e28:	0b7f      	lsrs	r7, r7, #13
10005e2a:	40af      	lsls	r7, r5
10005e2c:	19ff      	adds	r7, r7, r7
10005e2e:	e7e0      	b.n	10005df2 <y64_x48+0xcc>

10005e30 <y64_x64>:
10005e30:	2400      	movs	r4, #0
10005e32:	1c5d      	adds	r5, r3, #1
10005e34:	d007      	beq.n	10005e46 <y64_x64+0x16>
10005e36:	4f14      	ldr	r7, [pc, #80]	; (10005e88 <y64_x64+0x58>)
10005e38:	667d      	str	r5, [r7, #100]	; 0x64
10005e3a:	6639      	str	r1, [r7, #96]	; 0x60
10005e3c:	e7ff      	b.n	10005e3e <y64_x64+0xe>
10005e3e:	e7ff      	b.n	10005e40 <y64_x64+0x10>
10005e40:	e7ff      	b.n	10005e42 <y64_x64+0x12>
10005e42:	e7ff      	b.n	10005e44 <y64_x64+0x14>
10005e44:	6f3c      	ldr	r4, [r7, #112]	; 0x70
10005e46:	b295      	uxth	r5, r2
10005e48:	b29e      	uxth	r6, r3
10005e4a:	4365      	muls	r5, r4
10005e4c:	4366      	muls	r6, r4
10005e4e:	1b40      	subs	r0, r0, r5
10005e50:	41b1      	sbcs	r1, r6
10005e52:	0c15      	lsrs	r5, r2, #16
10005e54:	0c1e      	lsrs	r6, r3, #16
10005e56:	4365      	muls	r5, r4
10005e58:	4366      	muls	r6, r4
10005e5a:	0436      	lsls	r6, r6, #16
10005e5c:	0c2f      	lsrs	r7, r5, #16
10005e5e:	433e      	orrs	r6, r7
10005e60:	042d      	lsls	r5, r5, #16
10005e62:	1b40      	subs	r0, r0, r5
10005e64:	41b1      	sbcs	r1, r6
10005e66:	4299      	cmp	r1, r3
10005e68:	d204      	bcs.n	10005e74 <y64_x64+0x44>
10005e6a:	0002      	movs	r2, r0
10005e6c:	000b      	movs	r3, r1
10005e6e:	0020      	movs	r0, r4
10005e70:	2100      	movs	r1, #0
10005e72:	bdf0      	pop	{r4, r5, r6, r7, pc}
10005e74:	d101      	bne.n	10005e7a <y64_x64+0x4a>
10005e76:	4290      	cmp	r0, r2
10005e78:	d3f7      	bcc.n	10005e6a <y64_x64+0x3a>
10005e7a:	1a80      	subs	r0, r0, r2
10005e7c:	4199      	sbcs	r1, r3
10005e7e:	3401      	adds	r4, #1
10005e80:	4299      	cmp	r1, r3
10005e82:	d3f2      	bcc.n	10005e6a <y64_x64+0x3a>
10005e84:	e7f6      	b.n	10005e74 <y64_x64+0x44>
10005e86:	0000      	.short	0x0000
10005e88:	d0000000 	.word	0xd0000000
10005e8c:	ffffffff 	.word	0xffffffff

10005e90 <__wrap___aeabi_drsub>:
10005e90:	4048      	eors	r0, r1
10005e92:	4041      	eors	r1, r0
10005e94:	4048      	eors	r0, r1

10005e96 <__wrap___aeabi_dsub>:
10005e96:	b418      	push	{r3, r4}
10005e98:	4b1b      	ldr	r3, [pc, #108]	; (10005f08 <__wrap___aeabi_dmul+0x12>)
10005e9a:	685b      	ldr	r3, [r3, #4]
10005e9c:	46fc      	mov	ip, pc
10005e9e:	9301      	str	r3, [sp, #4]
10005ea0:	bd08      	pop	{r3, pc}
10005ea2:	df04      	.short	0xdf04
10005ea4:	10006183 	.word	0x10006183

10005ea8 <__wrap___aeabi_dadd>:
10005ea8:	b418      	push	{r3, r4}
10005eaa:	4b17      	ldr	r3, [pc, #92]	; (10005f08 <__wrap___aeabi_dmul+0x12>)
10005eac:	681b      	ldr	r3, [r3, #0]
10005eae:	46fc      	mov	ip, pc
10005eb0:	9301      	str	r3, [sp, #4]
10005eb2:	bd08      	pop	{r3, pc}
10005eb4:	618ddf00 	.word	0x618ddf00
10005eb8:	1000      	.short	0x1000

10005eba <__wrap___aeabi_ddiv>:
10005eba:	4694      	mov	ip, r2
10005ebc:	4a13      	ldr	r2, [pc, #76]	; (10005f0c <__wrap___aeabi_dmul+0x16>)
10005ebe:	6f92      	ldr	r2, [r2, #120]	; 0x78
10005ec0:	0892      	lsrs	r2, r2, #2
10005ec2:	d209      	bcs.n	10005ed8 <ddiv_save_state>
10005ec4:	4662      	mov	r2, ip

10005ec6 <ddiv_shim_call>:
10005ec6:	b418      	push	{r3, r4}
10005ec8:	4b0f      	ldr	r3, [pc, #60]	; (10005f08 <__wrap___aeabi_dmul+0x12>)
10005eca:	68db      	ldr	r3, [r3, #12]
10005ecc:	46fc      	mov	ip, pc
10005ece:	9301      	str	r3, [sp, #4]
10005ed0:	bd08      	pop	{r3, pc}
10005ed2:	df0c      	.short	0xdf0c
10005ed4:	10006445 	.word	0x10006445

10005ed8 <ddiv_save_state>:
10005ed8:	4a0c      	ldr	r2, [pc, #48]	; (10005f0c <__wrap___aeabi_dmul+0x16>)
10005eda:	b5f0      	push	{r4, r5, r6, r7, lr}
10005edc:	6e14      	ldr	r4, [r2, #96]	; 0x60
10005ede:	6e55      	ldr	r5, [r2, #100]	; 0x64
10005ee0:	6f57      	ldr	r7, [r2, #116]	; 0x74
10005ee2:	6f16      	ldr	r6, [r2, #112]	; 0x70
10005ee4:	4662      	mov	r2, ip
10005ee6:	f7ff ffee 	bl	10005ec6 <ddiv_shim_call>
10005eea:	4a08      	ldr	r2, [pc, #32]	; (10005f0c <__wrap___aeabi_dmul+0x16>)
10005eec:	6614      	str	r4, [r2, #96]	; 0x60
10005eee:	6655      	str	r5, [r2, #100]	; 0x64
10005ef0:	6757      	str	r7, [r2, #116]	; 0x74
10005ef2:	6716      	str	r6, [r2, #112]	; 0x70
10005ef4:	bdf0      	pop	{r4, r5, r6, r7, pc}

10005ef6 <__wrap___aeabi_dmul>:
10005ef6:	b418      	push	{r3, r4}
10005ef8:	4b03      	ldr	r3, [pc, #12]	; (10005f08 <__wrap___aeabi_dmul+0x12>)
10005efa:	689b      	ldr	r3, [r3, #8]
10005efc:	46fc      	mov	ip, pc
10005efe:	9301      	str	r3, [sp, #4]
10005f00:	bd08      	pop	{r3, pc}
10005f02:	df08      	.short	0xdf08
10005f04:	100062e9 	.word	0x100062e9
10005f08:	200024fc 	.word	0x200024fc
10005f0c:	d0000000 	.word	0xd0000000

10005f10 <__wrap___aeabi_cdrcmple>:
10005f10:	b5ff      	push	{r0, r1, r2, r3, r4, r5, r6, r7, lr}
10005f12:	4050      	eors	r0, r2
10005f14:	4042      	eors	r2, r0
10005f16:	4050      	eors	r0, r2
10005f18:	4059      	eors	r1, r3
10005f1a:	404b      	eors	r3, r1
10005f1c:	4059      	eors	r1, r3
10005f1e:	e000      	b.n	10005f22 <__aeabi_dfcmple_guts>

10005f20 <__wrap___aeabi_cdcmpeq>:
10005f20:	b5ff      	push	{r0, r1, r2, r3, r4, r5, r6, r7, lr}

10005f22 <__aeabi_dfcmple_guts>:
10005f22:	4f15      	ldr	r7, [pc, #84]	; (10005f78 <__aeabi_dfcmple_guts+0x56>)
10005f24:	004c      	lsls	r4, r1, #1
10005f26:	0d64      	lsrs	r4, r4, #21
10005f28:	d003      	beq.n	10005f32 <__aeabi_dfcmple_guts+0x10>
10005f2a:	42bc      	cmp	r4, r7
10005f2c:	d104      	bne.n	10005f38 <__aeabi_dfcmple_guts+0x16>
10005f2e:	030c      	lsls	r4, r1, #12
10005f30:	d814      	bhi.n	10005f5c <__aeabi_dfcmple_guts+0x3a>
10005f32:	2000      	movs	r0, #0
10005f34:	0d09      	lsrs	r1, r1, #20
10005f36:	0509      	lsls	r1, r1, #20
10005f38:	005c      	lsls	r4, r3, #1
10005f3a:	0d64      	lsrs	r4, r4, #21
10005f3c:	d003      	beq.n	10005f46 <__aeabi_dfcmple_guts+0x24>
10005f3e:	42bc      	cmp	r4, r7
10005f40:	d104      	bne.n	10005f4c <__aeabi_dfcmple_guts+0x2a>
10005f42:	031c      	lsls	r4, r3, #12
10005f44:	d80a      	bhi.n	10005f5c <__aeabi_dfcmple_guts+0x3a>
10005f46:	2200      	movs	r2, #0
10005f48:	0d1b      	lsrs	r3, r3, #20
10005f4a:	051b      	lsls	r3, r3, #20
10005f4c:	2601      	movs	r6, #1
10005f4e:	404b      	eors	r3, r1
10005f50:	d409      	bmi.n	10005f66 <__aeabi_dfcmple_guts+0x44>
10005f52:	404b      	eors	r3, r1
10005f54:	d503      	bpl.n	10005f5e <__aeabi_dfcmple_guts+0x3c>
10005f56:	428b      	cmp	r3, r1
10005f58:	d100      	bne.n	10005f5c <__aeabi_dfcmple_guts+0x3a>
10005f5a:	4282      	cmp	r2, r0
10005f5c:	bdff      	pop	{r0, r1, r2, r3, r4, r5, r6, r7, pc}
10005f5e:	4299      	cmp	r1, r3
10005f60:	d1fc      	bne.n	10005f5c <__aeabi_dfcmple_guts+0x3a>
10005f62:	4290      	cmp	r0, r2
10005f64:	bdff      	pop	{r0, r1, r2, r3, r4, r5, r6, r7, pc}
10005f66:	430b      	orrs	r3, r1
10005f68:	18db      	adds	r3, r3, r3
10005f6a:	4303      	orrs	r3, r0
10005f6c:	4313      	orrs	r3, r2
10005f6e:	d0f5      	beq.n	10005f5c <__aeabi_dfcmple_guts+0x3a>
10005f70:	43c9      	mvns	r1, r1
10005f72:	1849      	adds	r1, r1, r1
10005f74:	bdff      	pop	{r0, r1, r2, r3, r4, r5, r6, r7, pc}
10005f76:	0000      	.short	0x0000
10005f78:	000007ff 	.word	0x000007ff

10005f7c <__wrap___aeabi_dcmplt>:
10005f7c:	b500      	push	{lr}
10005f7e:	f7ff ffcf 	bl	10005f20 <__wrap___aeabi_cdcmpeq>
10005f82:	4180      	sbcs	r0, r0
10005f84:	bd00      	pop	{pc}
10005f86:	46c0      	nop			; (mov r8, r8)

10005f88 <__wrap___aeabi_dcmple>:
10005f88:	b500      	push	{lr}
10005f8a:	f7ff ffc9 	bl	10005f20 <__wrap___aeabi_cdcmpeq>
10005f8e:	d901      	bls.n	10005f94 <__wrap___aeabi_dcmple+0xc>
10005f90:	2000      	movs	r0, #0
10005f92:	bd00      	pop	{pc}
10005f94:	2001      	movs	r0, #1
10005f96:	bd00      	pop	{pc}

10005f98 <__wrap___aeabi_dcmpge>:
10005f98:	b500      	push	{lr}
10005f9a:	f7ff ffb9 	bl	10005f10 <__wrap___aeabi_cdrcmple>
10005f9e:	d901      	bls.n	10005fa4 <__wrap___aeabi_dcmpge+0xc>
10005fa0:	2000      	movs	r0, #0
10005fa2:	bd00      	pop	{pc}
10005fa4:	2001      	movs	r0, #1
10005fa6:	bd00      	pop	{pc}

10005fa8 <__wrap___aeabi_dcmpgt>:
10005fa8:	b500      	push	{lr}
10005faa:	f7ff ffb1 	bl	10005f10 <__wrap___aeabi_cdrcmple>
10005fae:	4180      	sbcs	r0, r0
10005fb0:	bd00      	pop	{pc}

10005fb2 <__wrap___aeabi_dcmpun>:
10005fb2:	2001      	movs	r0, #1
10005fb4:	0540      	lsls	r0, r0, #21
10005fb6:	004a      	lsls	r2, r1, #1
10005fb8:	1812      	adds	r2, r2, r0
10005fba:	d804      	bhi.n	10005fc6 <__wrap___aeabi_dcmpun+0x14>
10005fbc:	005a      	lsls	r2, r3, #1
10005fbe:	1812      	adds	r2, r2, r0
10005fc0:	d801      	bhi.n	10005fc6 <__wrap___aeabi_dcmpun+0x14>
10005fc2:	2000      	movs	r0, #0
10005fc4:	4770      	bx	lr
10005fc6:	2001      	movs	r0, #1
10005fc8:	4770      	bx	lr
10005fca:	2000      	movs	r0, #0
10005fcc:	4770      	bx	lr
	...

10005fd0 <__wrap___aeabi_ui2d>:
10005fd0:	2100      	movs	r1, #0
10005fd2:	2800      	cmp	r0, #0
10005fd4:	d105      	bne.n	10005fe2 <__wrap___aeabi_i2d+0xa>
10005fd6:	4770      	bx	lr

10005fd8 <__wrap___aeabi_i2d>:
10005fd8:	17c1      	asrs	r1, r0, #31
10005fda:	4048      	eors	r0, r1
10005fdc:	1a40      	subs	r0, r0, r1
10005fde:	d0fa      	beq.n	10005fd6 <__wrap___aeabi_ui2d+0x6>
10005fe0:	07c9      	lsls	r1, r1, #31
10005fe2:	b513      	push	{r0, r1, r4, lr}
10005fe4:	4b06      	ldr	r3, [pc, #24]	; (10006000 <__wrap___aeabi_i2d+0x28>)
10005fe6:	681b      	ldr	r3, [r3, #0]
10005fe8:	4798      	blx	r3
10005fea:	bc0c      	pop	{r2, r3}
10005fec:	1c44      	adds	r4, r0, #1
10005fee:	40a2      	lsls	r2, r4
10005ff0:	0510      	lsls	r0, r2, #20
10005ff2:	0b12      	lsrs	r2, r2, #12
10005ff4:	4903      	ldr	r1, [pc, #12]	; (10006004 <__wrap___aeabi_i2d+0x2c>)
10005ff6:	1b09      	subs	r1, r1, r4
10005ff8:	0509      	lsls	r1, r1, #20
10005ffa:	4319      	orrs	r1, r3
10005ffc:	4311      	orrs	r1, r2
10005ffe:	bd10      	pop	{r4, pc}
10006000:	200025fc 	.word	0x200025fc
10006004:	0000041f 	.word	0x0000041f

10006008 <__wrap___aeabi_d2iz>:
10006008:	b510      	push	{r4, lr}
1000600a:	004c      	lsls	r4, r1, #1
1000600c:	0d62      	lsrs	r2, r4, #21
1000600e:	2380      	movs	r3, #128	; 0x80
10006010:	18d2      	adds	r2, r2, r3
10006012:	00db      	lsls	r3, r3, #3
10006014:	1ad2      	subs	r2, r2, r3
10006016:	055b      	lsls	r3, r3, #21
10006018:	2a7e      	cmp	r2, #126	; 0x7e
1000601a:	dd10      	ble.n	1000603e <__wrap___aeabi_d2iz+0x36>
1000601c:	3a9e      	subs	r2, #158	; 0x9e
1000601e:	da13      	bge.n	10006048 <__wrap___aeabi_d2iz+0x40>
10006020:	17cc      	asrs	r4, r1, #31
10006022:	0309      	lsls	r1, r1, #12
10006024:	0849      	lsrs	r1, r1, #1
10006026:	4319      	orrs	r1, r3
10006028:	4252      	negs	r2, r2
1000602a:	40d1      	lsrs	r1, r2
1000602c:	0064      	lsls	r4, r4, #1
1000602e:	3401      	adds	r4, #1
10006030:	3215      	adds	r2, #21
10006032:	2a20      	cmp	r2, #32
10006034:	da05      	bge.n	10006042 <__wrap___aeabi_d2iz+0x3a>
10006036:	40d0      	lsrs	r0, r2
10006038:	4308      	orrs	r0, r1
1000603a:	4360      	muls	r0, r4
1000603c:	bd10      	pop	{r4, pc}
1000603e:	2000      	movs	r0, #0
10006040:	bd10      	pop	{r4, pc}
10006042:	4608      	mov	r0, r1
10006044:	4360      	muls	r0, r4
10006046:	bd10      	pop	{r4, pc}
10006048:	0fc8      	lsrs	r0, r1, #31
1000604a:	18c0      	adds	r0, r0, r3
1000604c:	3801      	subs	r0, #1
1000604e:	bd10      	pop	{r4, pc}

10006050 <__wrap___aeabi_d2uiz>:
10006050:	b418      	push	{r3, r4}
10006052:	4b04      	ldr	r3, [pc, #16]	; (10006064 <__wrap___aeabi_d2uiz+0x14>)
10006054:	6a5b      	ldr	r3, [r3, #36]	; 0x24
10006056:	46fc      	mov	ip, pc
10006058:	9301      	str	r3, [sp, #4]
1000605a:	bd08      	pop	{r3, pc}
1000605c:	65f5df24 	.word	0x65f5df24
10006060:	00001000 	.word	0x00001000
10006064:	200024fc 	.word	0x200024fc

10006068 <__wrap___aeabi_d2f>:
10006068:	b418      	push	{r3, r4}
1000606a:	4b04      	ldr	r3, [pc, #16]	; (1000607c <__wrap___aeabi_d2f+0x14>)
1000606c:	6fdb      	ldr	r3, [r3, #124]	; 0x7c
1000606e:	46fc      	mov	ip, pc
10006070:	9301      	str	r3, [sp, #4]
10006072:	bd08      	pop	{r3, pc}
10006074:	6675df7c 	.word	0x6675df7c
10006078:	00001000 	.word	0x00001000
1000607c:	200024fc 	.word	0x200024fc

10006080 <__aeabi_double_init>:
10006080:	b570      	push	{r4, r5, r6, lr}
10006082:	2313      	movs	r3, #19
10006084:	781c      	ldrb	r4, [r3, #0]
10006086:	2c01      	cmp	r4, #1
10006088:	d014      	beq.n	100060b4 <__aeabi_double_init+0x34>
1000608a:	2c01      	cmp	r4, #1
1000608c:	dc14      	bgt.n	100060b8 <__aeabi_double_init+0x38>
1000608e:	2c02      	cmp	r4, #2
10006090:	dc02      	bgt.n	10006098 <__aeabi_double_init+0x18>
10006092:	4a1f      	ldr	r2, [pc, #124]	; (10006110 <__aeabi_double_init+0x90>)
10006094:	4b1f      	ldr	r3, [pc, #124]	; (10006114 <__aeabi_double_init+0x94>)
10006096:	649a      	str	r2, [r3, #72]	; 0x48
10006098:	481f      	ldr	r0, [pc, #124]	; (10006118 <__aeabi_double_init+0x98>)
1000609a:	f7ff fc6d 	bl	10005978 <rom_func_lookup>
1000609e:	4b1f      	ldr	r3, [pc, #124]	; (1000611c <__aeabi_double_init+0x9c>)
100060a0:	6018      	str	r0, [r3, #0]
100060a2:	bd70      	pop	{r4, r5, r6, pc}
100060a4:	0099      	lsls	r1, r3, #2
100060a6:	481a      	ldr	r0, [pc, #104]	; (10006110 <__aeabi_double_init+0x90>)
100060a8:	4a1a      	ldr	r2, [pc, #104]	; (10006114 <__aeabi_double_init+0x94>)
100060aa:	5088      	str	r0, [r1, r2]
100060ac:	3301      	adds	r3, #1
100060ae:	2b1f      	cmp	r3, #31
100060b0:	d9f8      	bls.n	100060a4 <__aeabi_double_init+0x24>
100060b2:	e7ea      	b.n	1000608a <__aeabi_double_init+0xa>
100060b4:	2300      	movs	r3, #0
100060b6:	e7fa      	b.n	100060ae <__aeabi_double_init+0x2e>
100060b8:	4819      	ldr	r0, [pc, #100]	; (10006120 <__aeabi_double_init+0xa0>)
100060ba:	f7ff fc65 	bl	10005988 <rom_data_lookup>
100060be:	0005      	movs	r5, r0
100060c0:	4818      	ldr	r0, [pc, #96]	; (10006124 <__aeabi_double_init+0xa4>)
100060c2:	f7ff fc61 	bl	10005988 <rom_data_lookup>
100060c6:	3802      	subs	r0, #2
100060c8:	7803      	ldrb	r3, [r0, #0]
100060ca:	009b      	lsls	r3, r3, #2
100060cc:	2b7f      	cmp	r3, #127	; 0x7f
100060ce:	dd19      	ble.n	10006104 <__aeabi_double_init+0x84>
100060d0:	2280      	movs	r2, #128	; 0x80
100060d2:	0029      	movs	r1, r5
100060d4:	480f      	ldr	r0, [pc, #60]	; (10006114 <__aeabi_double_init+0x94>)
100060d6:	f000 fcc7 	bl	10006a68 <__wrap___aeabi_memcpy>
100060da:	2c02      	cmp	r4, #2
100060dc:	d1d7      	bne.n	1000608e <__aeabi_double_init+0xe>
100060de:	4b12      	ldr	r3, [pc, #72]	; (10006128 <__aeabi_double_init+0xa8>)
100060e0:	881a      	ldrh	r2, [r3, #0]
100060e2:	23b5      	movs	r3, #181	; 0xb5
100060e4:	021b      	lsls	r3, r3, #8
100060e6:	429a      	cmp	r2, r3
100060e8:	d109      	bne.n	100060fe <__aeabi_double_init+0x7e>
100060ea:	4b10      	ldr	r3, [pc, #64]	; (1000612c <__aeabi_double_init+0xac>)
100060ec:	881a      	ldrh	r2, [r3, #0]
100060ee:	4b10      	ldr	r3, [pc, #64]	; (10006130 <__aeabi_double_init+0xb0>)
100060f0:	429a      	cmp	r2, r3
100060f2:	d104      	bne.n	100060fe <__aeabi_double_init+0x7e>
100060f4:	4b0f      	ldr	r3, [pc, #60]	; (10006134 <__aeabi_double_init+0xb4>)
100060f6:	881a      	ldrh	r2, [r3, #0]
100060f8:	4b0f      	ldr	r3, [pc, #60]	; (10006138 <__aeabi_double_init+0xb8>)
100060fa:	429a      	cmp	r2, r3
100060fc:	d0c7      	beq.n	1000608e <__aeabi_double_init+0xe>
100060fe:	2000      	movs	r0, #0
10006100:	f7fe fb7a 	bl	100047f8 <panic>
10006104:	4b0d      	ldr	r3, [pc, #52]	; (1000613c <__aeabi_double_init+0xbc>)
10006106:	4a0e      	ldr	r2, [pc, #56]	; (10006140 <__aeabi_double_init+0xc0>)
10006108:	2132      	movs	r1, #50	; 0x32
1000610a:	480e      	ldr	r0, [pc, #56]	; (10006144 <__aeabi_double_init+0xc4>)
1000610c:	f7fe fada 	bl	100046c4 <__assert_func>
10006110:	10006149 	.word	0x10006149
10006114:	200024fc 	.word	0x200024fc
10006118:	0000334c 	.word	0x0000334c
1000611c:	200025fc 	.word	0x200025fc
10006120:	00004453 	.word	0x00004453
10006124:	00004653 	.word	0x00004653
10006128:	00003854 	.word	0x00003854
1000612c:	000038d8 	.word	0x000038d8
10006130:	00004649 	.word	0x00004649
10006134:	0000389c 	.word	0x0000389c
10006138:	00004659 	.word	0x00004659
1000613c:	1000b488 	.word	0x1000b488
10006140:	1000b540 	.word	0x1000b540
10006144:	1000b4dc 	.word	0x1000b4dc

10006148 <double_table_shim_on_use_helper>:
10006148:	b507      	push	{r0, r1, r2, lr}
1000614a:	4660      	mov	r0, ip
1000614c:	2800      	cmp	r0, #0
1000614e:	d100      	bne.n	10006152 <double_table_shim_on_use_helper+0xa>
10006150:	be00      	bkpt	0x0000
10006152:	8801      	ldrh	r1, [r0, #0]
10006154:	0a0a      	lsrs	r2, r1, #8
10006156:	3002      	adds	r0, #2
10006158:	2adf      	cmp	r2, #223	; 0xdf
1000615a:	d1fa      	bne.n	10006152 <double_table_shim_on_use_helper+0xa>
1000615c:	b2c9      	uxtb	r1, r1
1000615e:	0882      	lsrs	r2, r0, #2
10006160:	d304      	bcc.n	1000616c <double_table_shim_on_use_helper+0x24>
10006162:	8802      	ldrh	r2, [r0, #0]
10006164:	8840      	ldrh	r0, [r0, #2]
10006166:	0400      	lsls	r0, r0, #16
10006168:	4310      	orrs	r0, r2
1000616a:	e000      	b.n	1000616e <double_table_shim_on_use_helper+0x26>
1000616c:	6800      	ldr	r0, [r0, #0]
1000616e:	4a02      	ldr	r2, [pc, #8]	; (10006178 <double_table_shim_on_use_helper+0x30>)
10006170:	5050      	str	r0, [r2, r1]
10006172:	9003      	str	r0, [sp, #12]
10006174:	bd07      	pop	{r0, r1, r2, pc}
10006176:	0000      	.short	0x0000
10006178:	200024fc 	.word	0x200024fc

1000617c <drsub_shim>:
1000617c:	b40f      	push	{r0, r1, r2, r3}
1000617e:	bc03      	pop	{r0, r1}
10006180:	bc0c      	pop	{r2, r3}

10006182 <dsub_shim>:
10006182:	b5f0      	push	{r4, r5, r6, r7, lr}
10006184:	2401      	movs	r4, #1
10006186:	07e4      	lsls	r4, r4, #31
10006188:	4063      	eors	r3, r4
1000618a:	e000      	b.n	1000618e <da_entry>

1000618c <dadd_shim>:
1000618c:	b5f0      	push	{r4, r5, r6, r7, lr}

1000618e <da_entry>:
1000618e:	0d0c      	lsrs	r4, r1, #20
10006190:	0fcf      	lsrs	r7, r1, #31
10006192:	1e66      	subs	r6, r4, #1
10006194:	0536      	lsls	r6, r6, #20
10006196:	1b89      	subs	r1, r1, r6
10006198:	0564      	lsls	r4, r4, #21
1000619a:	d303      	bcc.n	100061a4 <l8_1>
1000619c:	43c9      	mvns	r1, r1
1000619e:	4240      	negs	r0, r0
100061a0:	d300      	bcc.n	100061a4 <l8_1>
100061a2:	3101      	adds	r1, #1

100061a4 <l8_1>:
100061a4:	0d64      	lsrs	r4, r4, #21
100061a6:	d003      	beq.n	100061b0 <l8_2>
100061a8:	1c66      	adds	r6, r4, #1
100061aa:	0af6      	lsrs	r6, r6, #11
100061ac:	d007      	beq.n	100061be <l8_3>
100061ae:	1be4      	subs	r4, r4, r7

100061b0 <l8_2>:
100061b0:	2000      	movs	r0, #0
100061b2:	007f      	lsls	r7, r7, #1
100061b4:	1c79      	adds	r1, r7, #1
100061b6:	0789      	lsls	r1, r1, #30
100061b8:	1289      	asrs	r1, r1, #10
100061ba:	3c80      	subs	r4, #128	; 0x80
100061bc:	0324      	lsls	r4, r4, #12

100061be <l8_3>:
100061be:	0d1d      	lsrs	r5, r3, #20
100061c0:	0fdf      	lsrs	r7, r3, #31
100061c2:	1e6e      	subs	r6, r5, #1
100061c4:	0536      	lsls	r6, r6, #20
100061c6:	1b9b      	subs	r3, r3, r6
100061c8:	056d      	lsls	r5, r5, #21
100061ca:	d303      	bcc.n	100061d4 <l9_1>
100061cc:	43db      	mvns	r3, r3
100061ce:	4252      	negs	r2, r2
100061d0:	d300      	bcc.n	100061d4 <l9_1>
100061d2:	3301      	adds	r3, #1

100061d4 <l9_1>:
100061d4:	0d6d      	lsrs	r5, r5, #21
100061d6:	d003      	beq.n	100061e0 <l9_2>
100061d8:	1c6e      	adds	r6, r5, #1
100061da:	0af6      	lsrs	r6, r6, #11
100061dc:	d007      	beq.n	100061ee <l9_3>
100061de:	1bed      	subs	r5, r5, r7

100061e0 <l9_2>:
100061e0:	2200      	movs	r2, #0
100061e2:	007f      	lsls	r7, r7, #1
100061e4:	1c7b      	adds	r3, r7, #1
100061e6:	079b      	lsls	r3, r3, #30
100061e8:	129b      	asrs	r3, r3, #10
100061ea:	3d80      	subs	r5, #128	; 0x80
100061ec:	032d      	lsls	r5, r5, #12

100061ee <l9_3>:
100061ee:	1b2f      	subs	r7, r5, r4
100061f0:	1b66      	subs	r6, r4, r5
100061f2:	d458      	bmi.n	100062a6 <da_ygtx>
100061f4:	46a4      	mov	ip, r4
100061f6:	2e20      	cmp	r6, #32
100061f8:	da46      	bge.n	10006288 <da_xrgty>
100061fa:	3720      	adds	r7, #32
100061fc:	0014      	movs	r4, r2
100061fe:	40bc      	lsls	r4, r7

10006200 <da_xgty0>:
10006200:	001d      	movs	r5, r3
10006202:	40bd      	lsls	r5, r7
10006204:	40f2      	lsrs	r2, r6
10006206:	4133      	asrs	r3, r6
10006208:	432a      	orrs	r2, r5

1000620a <da_add>:
1000620a:	1880      	adds	r0, r0, r2
1000620c:	4159      	adcs	r1, r3

1000620e <da_pack>:
1000620e:	0fcb      	lsrs	r3, r1, #31
10006210:	d005      	beq.n	1000621e <da_pack+0x10>
10006212:	43c9      	mvns	r1, r1
10006214:	43c0      	mvns	r0, r0
10006216:	2200      	movs	r2, #0
10006218:	4264      	negs	r4, r4
1000621a:	4150      	adcs	r0, r2
1000621c:	4151      	adcs	r1, r2
1000621e:	4662      	mov	r2, ip
10006220:	0d4d      	lsrs	r5, r1, #21
10006222:	d128      	bne.n	10006276 <da_0>
10006224:	0d0d      	lsrs	r5, r1, #20
10006226:	d107      	bne.n	10006238 <da_1>
10006228:	2800      	cmp	r0, #0
1000622a:	d01f      	beq.n	1000626c <da_5>

1000622c <da_2>:
1000622c:	1924      	adds	r4, r4, r4
1000622e:	4140      	adcs	r0, r0
10006230:	4149      	adcs	r1, r1
10006232:	3a01      	subs	r2, #1
10006234:	0d0d      	lsrs	r5, r1, #20
10006236:	d0f9      	beq.n	1000622c <da_2>

10006238 <da_1>:
10006238:	0064      	lsls	r4, r4, #1
1000623a:	d306      	bcc.n	1000624a <da_3>

1000623c <da_4>:
1000623c:	3001      	adds	r0, #1
1000623e:	d300      	bcc.n	10006242 <da_4+0x6>
10006240:	3101      	adds	r1, #1
10006242:	2c00      	cmp	r4, #0
10006244:	d101      	bne.n	1000624a <da_3>
10006246:	0840      	lsrs	r0, r0, #1
10006248:	0040      	lsls	r0, r0, #1

1000624a <da_3>:
1000624a:	3a01      	subs	r2, #1
1000624c:	d40b      	bmi.n	10006266 <da_6>
1000624e:	1c94      	adds	r4, r2, #2
10006250:	0ae4      	lsrs	r4, r4, #11
10006252:	d104      	bne.n	1000625e <da_7>
10006254:	0512      	lsls	r2, r2, #20
10006256:	4411      	add	r1, r2
10006258:	07db      	lsls	r3, r3, #31
1000625a:	4419      	add	r1, r3
1000625c:	bdf0      	pop	{r4, r5, r6, r7, pc}

1000625e <da_7>:
1000625e:	07d9      	lsls	r1, r3, #31
10006260:	4b20      	ldr	r3, [pc, #128]	; (100062e4 <da_xmgty+0x4>)
10006262:	4319      	orrs	r1, r3
10006264:	e000      	b.n	10006268 <da_6+0x2>

10006266 <da_6>:
10006266:	07d9      	lsls	r1, r3, #31
10006268:	2000      	movs	r0, #0
1000626a:	bdf0      	pop	{r4, r5, r6, r7, pc}

1000626c <da_5>:
1000626c:	2900      	cmp	r1, #0
1000626e:	d1dd      	bne.n	1000622c <da_2>
10006270:	2c00      	cmp	r4, #0
10006272:	d1db      	bne.n	1000622c <da_2>
10006274:	bdf0      	pop	{r4, r5, r6, r7, pc}

10006276 <da_0>:
10006276:	3201      	adds	r2, #1
10006278:	07c6      	lsls	r6, r0, #31
1000627a:	0840      	lsrs	r0, r0, #1
1000627c:	07cd      	lsls	r5, r1, #31
1000627e:	4328      	orrs	r0, r5
10006280:	0849      	lsrs	r1, r1, #1
10006282:	2e00      	cmp	r6, #0
10006284:	d0e1      	beq.n	1000624a <da_3>
10006286:	e7d9      	b.n	1000623c <da_4>

10006288 <da_xrgty>:
10006288:	2e3c      	cmp	r6, #60	; 0x3c
1000628a:	da29      	bge.n	100062e0 <da_xmgty>
1000628c:	3e20      	subs	r6, #32
1000628e:	3740      	adds	r7, #64	; 0x40
10006290:	0014      	movs	r4, r2
10006292:	40bc      	lsls	r4, r7
10006294:	d000      	beq.n	10006298 <da_xrgty+0x10>
10006296:	2401      	movs	r4, #1
10006298:	40f2      	lsrs	r2, r6
1000629a:	4314      	orrs	r4, r2
1000629c:	001a      	movs	r2, r3
1000629e:	40bb      	lsls	r3, r7
100062a0:	431c      	orrs	r4, r3
100062a2:	17d3      	asrs	r3, r2, #31
100062a4:	e7ac      	b.n	10006200 <da_xgty0>

100062a6 <da_ygtx>:
100062a6:	46ac      	mov	ip, r5
100062a8:	2f20      	cmp	r7, #32
100062aa:	da08      	bge.n	100062be <da_yrgtx>
100062ac:	3620      	adds	r6, #32
100062ae:	0004      	movs	r4, r0
100062b0:	40b4      	lsls	r4, r6

100062b2 <da_ygtx0>:
100062b2:	000d      	movs	r5, r1
100062b4:	40b5      	lsls	r5, r6
100062b6:	40f8      	lsrs	r0, r7
100062b8:	4139      	asrs	r1, r7
100062ba:	4328      	orrs	r0, r5
100062bc:	e7a5      	b.n	1000620a <da_add>

100062be <da_yrgtx>:
100062be:	2f3c      	cmp	r7, #60	; 0x3c
100062c0:	da0c      	bge.n	100062dc <da_ymgtx>
100062c2:	3f20      	subs	r7, #32
100062c4:	3640      	adds	r6, #64	; 0x40
100062c6:	0004      	movs	r4, r0
100062c8:	40b4      	lsls	r4, r6
100062ca:	d000      	beq.n	100062ce <da_yrgtx+0x10>
100062cc:	2401      	movs	r4, #1
100062ce:	40f8      	lsrs	r0, r7
100062d0:	4304      	orrs	r4, r0
100062d2:	0008      	movs	r0, r1
100062d4:	40b1      	lsls	r1, r6
100062d6:	430c      	orrs	r4, r1
100062d8:	17c1      	asrs	r1, r0, #31
100062da:	e7ea      	b.n	100062b2 <da_ygtx0>

100062dc <da_ymgtx>:
100062dc:	0010      	movs	r0, r2
100062de:	0019      	movs	r1, r3

100062e0 <da_xmgty>:
100062e0:	2400      	movs	r4, #0
100062e2:	e794      	b.n	1000620e <da_pack>
100062e4:	7ff00000 	.word	0x7ff00000

100062e8 <dmul_shim>:
100062e8:	b5f0      	push	{r4, r5, r6, r7, lr}
100062ea:	0d0c      	lsrs	r4, r1, #20
100062ec:	1e66      	subs	r6, r4, #1
100062ee:	0536      	lsls	r6, r6, #20
100062f0:	1b89      	subs	r1, r1, r6
100062f2:	0ae6      	lsrs	r6, r4, #11
100062f4:	0564      	lsls	r4, r4, #21
100062f6:	0d64      	lsrs	r4, r4, #21
100062f8:	d002      	beq.n	10006300 <l12_1>
100062fa:	1c65      	adds	r5, r4, #1
100062fc:	0aed      	lsrs	r5, r5, #11
100062fe:	d004      	beq.n	1000630a <l12_2>

10006300 <l12_1>:
10006300:	2000      	movs	r0, #0
10006302:	2101      	movs	r1, #1
10006304:	0509      	lsls	r1, r1, #20
10006306:	3c80      	subs	r4, #128	; 0x80
10006308:	0324      	lsls	r4, r4, #12

1000630a <l12_2>:
1000630a:	46a4      	mov	ip, r4
1000630c:	0d1c      	lsrs	r4, r3, #20
1000630e:	1e67      	subs	r7, r4, #1
10006310:	053f      	lsls	r7, r7, #20
10006312:	1bdb      	subs	r3, r3, r7
10006314:	0ae7      	lsrs	r7, r4, #11
10006316:	0564      	lsls	r4, r4, #21
10006318:	0d64      	lsrs	r4, r4, #21
1000631a:	d002      	beq.n	10006322 <l13_1>
1000631c:	1c65      	adds	r5, r4, #1
1000631e:	0aed      	lsrs	r5, r5, #11
10006320:	d004      	beq.n	1000632c <l13_2>

10006322 <l13_1>:
10006322:	2200      	movs	r2, #0
10006324:	2301      	movs	r3, #1
10006326:	051b      	lsls	r3, r3, #20
10006328:	3c80      	subs	r4, #128	; 0x80
1000632a:	0324      	lsls	r4, r4, #12

1000632c <l13_2>:
1000632c:	4077      	eors	r7, r6
1000632e:	4464      	add	r4, ip
10006330:	b497      	push	{r0, r1, r2, r4, r7}
10006332:	b284      	uxth	r4, r0
10006334:	b296      	uxth	r6, r2
10006336:	4374      	muls	r4, r6
10006338:	0c07      	lsrs	r7, r0, #16
1000633a:	437e      	muls	r6, r7
1000633c:	0c15      	lsrs	r5, r2, #16
1000633e:	436f      	muls	r7, r5
10006340:	b280      	uxth	r0, r0
10006342:	4368      	muls	r0, r5
10006344:	1836      	adds	r6, r6, r0
10006346:	d302      	bcc.n	1000634e <l14_1>
10006348:	2001      	movs	r0, #1
1000634a:	0400      	lsls	r0, r0, #16
1000634c:	183f      	adds	r7, r7, r0

1000634e <l14_1>:
1000634e:	0430      	lsls	r0, r6, #16
10006350:	0c35      	lsrs	r5, r6, #16
10006352:	1900      	adds	r0, r0, r4
10006354:	417d      	adcs	r5, r7
10006356:	4684      	mov	ip, r0
10006358:	b288      	uxth	r0, r1
1000635a:	b29a      	uxth	r2, r3
1000635c:	4350      	muls	r0, r2
1000635e:	0c0c      	lsrs	r4, r1, #16
10006360:	4362      	muls	r2, r4
10006362:	0c1f      	lsrs	r7, r3, #16
10006364:	437c      	muls	r4, r7
10006366:	b28e      	uxth	r6, r1
10006368:	437e      	muls	r6, r7
1000636a:	1992      	adds	r2, r2, r6
1000636c:	d302      	bcc.n	10006374 <l15_1>
1000636e:	2601      	movs	r6, #1
10006370:	0436      	lsls	r6, r6, #16
10006372:	19a4      	adds	r4, r4, r6

10006374 <l15_1>:
10006374:	0416      	lsls	r6, r2, #16
10006376:	0c17      	lsrs	r7, r2, #16
10006378:	1836      	adds	r6, r6, r0
1000637a:	4167      	adcs	r7, r4
1000637c:	bc01      	pop	{r0}
1000637e:	b281      	uxth	r1, r0
10006380:	b29a      	uxth	r2, r3
10006382:	4351      	muls	r1, r2
10006384:	0c04      	lsrs	r4, r0, #16
10006386:	4362      	muls	r2, r4
10006388:	0c1b      	lsrs	r3, r3, #16
1000638a:	435c      	muls	r4, r3
1000638c:	b280      	uxth	r0, r0
1000638e:	4358      	muls	r0, r3
10006390:	1812      	adds	r2, r2, r0
10006392:	d302      	bcc.n	1000639a <l16_1>
10006394:	2001      	movs	r0, #1
10006396:	0400      	lsls	r0, r0, #16
10006398:	1824      	adds	r4, r4, r0

1000639a <l16_1>:
1000639a:	0410      	lsls	r0, r2, #16
1000639c:	0c13      	lsrs	r3, r2, #16
1000639e:	1840      	adds	r0, r0, r1
100063a0:	4163      	adcs	r3, r4
100063a2:	182d      	adds	r5, r5, r0
100063a4:	415e      	adcs	r6, r3
100063a6:	2000      	movs	r0, #0
100063a8:	4147      	adcs	r7, r0
100063aa:	bc06      	pop	{r1, r2}
100063ac:	b288      	uxth	r0, r1
100063ae:	b293      	uxth	r3, r2
100063b0:	4358      	muls	r0, r3
100063b2:	0c0c      	lsrs	r4, r1, #16
100063b4:	4363      	muls	r3, r4
100063b6:	0c12      	lsrs	r2, r2, #16
100063b8:	4354      	muls	r4, r2
100063ba:	b289      	uxth	r1, r1
100063bc:	4351      	muls	r1, r2
100063be:	185b      	adds	r3, r3, r1
100063c0:	d302      	bcc.n	100063c8 <l17_1>
100063c2:	2101      	movs	r1, #1
100063c4:	0409      	lsls	r1, r1, #16
100063c6:	1864      	adds	r4, r4, r1

100063c8 <l17_1>:
100063c8:	0419      	lsls	r1, r3, #16
100063ca:	0c1a      	lsrs	r2, r3, #16
100063cc:	1809      	adds	r1, r1, r0
100063ce:	4162      	adcs	r2, r4
100063d0:	186d      	adds	r5, r5, r1
100063d2:	4156      	adcs	r6, r2
100063d4:	2000      	movs	r0, #0
100063d6:	4147      	adcs	r7, r0
100063d8:	bc18      	pop	{r3, r4}
100063da:	02f9      	lsls	r1, r7, #11
100063dc:	0d72      	lsrs	r2, r6, #21
100063de:	4311      	orrs	r1, r2
100063e0:	02f0      	lsls	r0, r6, #11
100063e2:	0d6a      	lsrs	r2, r5, #21
100063e4:	4310      	orrs	r0, r2
100063e6:	02ed      	lsls	r5, r5, #11
100063e8:	0d0a      	lsrs	r2, r1, #20
100063ea:	d103      	bne.n	100063f4 <l17_1+0x2c>
100063ec:	196d      	adds	r5, r5, r5
100063ee:	4140      	adcs	r0, r0
100063f0:	4149      	adcs	r1, r1
100063f2:	3b01      	subs	r3, #1
100063f4:	4e12      	ldr	r6, [pc, #72]	; (10006440 <dm_1+0xa>)
100063f6:	1b9b      	subs	r3, r3, r6
100063f8:	0076      	lsls	r6, r6, #1
100063fa:	42b3      	cmp	r3, r6
100063fc:	d20e      	bcs.n	1000641c <dm_0>
100063fe:	006d      	lsls	r5, r5, #1
10006400:	d307      	bcc.n	10006412 <l17_1+0x4a>
10006402:	3001      	adds	r0, #1
10006404:	2600      	movs	r6, #0
10006406:	4171      	adcs	r1, r6
10006408:	4666      	mov	r6, ip
1000640a:	4335      	orrs	r5, r6
1000640c:	d101      	bne.n	10006412 <l17_1+0x4a>
1000640e:	0840      	lsrs	r0, r0, #1
10006410:	0040      	lsls	r0, r0, #1
10006412:	051b      	lsls	r3, r3, #20
10006414:	18c9      	adds	r1, r1, r3

10006416 <dm_2>:
10006416:	07e4      	lsls	r4, r4, #31
10006418:	4421      	add	r1, r4
1000641a:	bdf0      	pop	{r4, r5, r6, r7, pc}

1000641c <dm_0>:
1000641c:	da0b      	bge.n	10006436 <dm_1>
1000641e:	3301      	adds	r3, #1
10006420:	d106      	bne.n	10006430 <dm_0+0x14>
10006422:	3001      	adds	r0, #1
10006424:	d104      	bne.n	10006430 <dm_0+0x14>
10006426:	3101      	adds	r1, #1
10006428:	0d4f      	lsrs	r7, r1, #21
1000642a:	d001      	beq.n	10006430 <dm_0+0x14>
1000642c:	0849      	lsrs	r1, r1, #1
1000642e:	e7f2      	b.n	10006416 <dm_2>
10006430:	07e1      	lsls	r1, r4, #31
10006432:	2000      	movs	r0, #0
10006434:	bdf0      	pop	{r4, r5, r6, r7, pc}

10006436 <dm_1>:
10006436:	3601      	adds	r6, #1
10006438:	0531      	lsls	r1, r6, #20
1000643a:	2000      	movs	r0, #0
1000643c:	e7eb      	b.n	10006416 <dm_2>
1000643e:	0000      	.short	0x0000
10006440:	000003ff 	.word	0x000003ff

10006444 <ddiv_shim>:
10006444:	b5f0      	push	{r4, r5, r6, r7, lr}

10006446 <ddiv0>:
10006446:	0d1c      	lsrs	r4, r3, #20
10006448:	1e67      	subs	r7, r4, #1
1000644a:	053f      	lsls	r7, r7, #20
1000644c:	1bdb      	subs	r3, r3, r7
1000644e:	0ae7      	lsrs	r7, r4, #11
10006450:	0564      	lsls	r4, r4, #21
10006452:	0d64      	lsrs	r4, r4, #21
10006454:	d002      	beq.n	1000645c <l20_1>
10006456:	1c66      	adds	r6, r4, #1
10006458:	0af6      	lsrs	r6, r6, #11
1000645a:	d004      	beq.n	10006466 <l20_2>

1000645c <l20_1>:
1000645c:	2200      	movs	r2, #0
1000645e:	2301      	movs	r3, #1
10006460:	051b      	lsls	r3, r3, #20
10006462:	3c80      	subs	r4, #128	; 0x80
10006464:	0324      	lsls	r4, r4, #12

10006466 <l20_2>:
10006466:	25d0      	movs	r5, #208	; 0xd0
10006468:	062d      	lsls	r5, r5, #24
1000646a:	2600      	movs	r6, #0
1000646c:	43f6      	mvns	r6, r6
1000646e:	662e      	str	r6, [r5, #96]	; 0x60
10006470:	091e      	lsrs	r6, r3, #4
10006472:	666e      	str	r6, [r5, #100]	; 0x64
10006474:	0fce      	lsrs	r6, r1, #31
10006476:	19f6      	adds	r6, r6, r7
10006478:	46b4      	mov	ip, r6
1000647a:	0049      	lsls	r1, r1, #1
1000647c:	0d4f      	lsrs	r7, r1, #21
1000647e:	d002      	beq.n	10006486 <l20_2+0x20>
10006480:	1c7e      	adds	r6, r7, #1
10006482:	0af6      	lsrs	r6, r6, #11
10006484:	d003      	beq.n	1000648e <l20_2+0x28>
10006486:	2000      	movs	r0, #0
10006488:	2100      	movs	r1, #0
1000648a:	3f40      	subs	r7, #64	; 0x40
1000648c:	033f      	lsls	r7, r7, #12
1000648e:	1b3e      	subs	r6, r7, r4
10006490:	00b6      	lsls	r6, r6, #2
10006492:	44b4      	add	ip, r6
10006494:	3f01      	subs	r7, #1
10006496:	057f      	lsls	r7, r7, #21
10006498:	1bc9      	subs	r1, r1, r7
1000649a:	0849      	lsrs	r1, r1, #1
1000649c:	6f2e      	ldr	r6, [r5, #112]	; 0x70
1000649e:	3601      	adds	r6, #1
100064a0:	0876      	lsrs	r6, r6, #1
100064a2:	029c      	lsls	r4, r3, #10
100064a4:	0d95      	lsrs	r5, r2, #22
100064a6:	4325      	orrs	r5, r4
100064a8:	4375      	muls	r5, r6
100064aa:	13ed      	asrs	r5, r5, #15
100064ac:	4375      	muls	r5, r6
100064ae:	13ad      	asrs	r5, r5, #14
100064b0:	3501      	adds	r5, #1
100064b2:	106d      	asrs	r5, r5, #1
100064b4:	03f6      	lsls	r6, r6, #15
100064b6:	1b76      	subs	r6, r6, r5
100064b8:	b40c      	push	{r2, r3}
100064ba:	02cc      	lsls	r4, r1, #11
100064bc:	0d45      	lsrs	r5, r0, #21
100064be:	432c      	orrs	r4, r5
100064c0:	b2a2      	uxth	r2, r4
100064c2:	b2b3      	uxth	r3, r6
100064c4:	435a      	muls	r2, r3
100064c6:	0c27      	lsrs	r7, r4, #16
100064c8:	437b      	muls	r3, r7
100064ca:	0c35      	lsrs	r5, r6, #16
100064cc:	436f      	muls	r7, r5
100064ce:	b2a4      	uxth	r4, r4
100064d0:	436c      	muls	r4, r5
100064d2:	191b      	adds	r3, r3, r4
100064d4:	d302      	bcc.n	100064dc <l21_1>
100064d6:	2401      	movs	r4, #1
100064d8:	0424      	lsls	r4, r4, #16
100064da:	193f      	adds	r7, r7, r4

100064dc <l21_1>:
100064dc:	041c      	lsls	r4, r3, #16
100064de:	0c1d      	lsrs	r5, r3, #16
100064e0:	18a4      	adds	r4, r4, r2
100064e2:	417d      	adcs	r5, r7
100064e4:	1924      	adds	r4, r4, r4
100064e6:	416d      	adcs	r5, r5
100064e8:	9a00      	ldr	r2, [sp, #0]
100064ea:	b291      	uxth	r1, r2
100064ec:	b2ac      	uxth	r4, r5
100064ee:	4361      	muls	r1, r4
100064f0:	0c17      	lsrs	r7, r2, #16
100064f2:	437c      	muls	r4, r7
100064f4:	0c2b      	lsrs	r3, r5, #16
100064f6:	435f      	muls	r7, r3
100064f8:	b292      	uxth	r2, r2
100064fa:	435a      	muls	r2, r3
100064fc:	18a4      	adds	r4, r4, r2
100064fe:	d302      	bcc.n	10006506 <l22_1>
10006500:	2201      	movs	r2, #1
10006502:	0412      	lsls	r2, r2, #16
10006504:	18bf      	adds	r7, r7, r2

10006506 <l22_1>:
10006506:	0422      	lsls	r2, r4, #16
10006508:	0c23      	lsrs	r3, r4, #16
1000650a:	1852      	adds	r2, r2, r1
1000650c:	417b      	adcs	r3, r7
1000650e:	9c01      	ldr	r4, [sp, #4]
10006510:	436c      	muls	r4, r5
10006512:	191b      	adds	r3, r3, r4
10006514:	0e52      	lsrs	r2, r2, #25
10006516:	01d9      	lsls	r1, r3, #7
10006518:	430a      	orrs	r2, r1
1000651a:	0144      	lsls	r4, r0, #5
1000651c:	1aa0      	subs	r0, r4, r2
1000651e:	b281      	uxth	r1, r0
10006520:	b2b2      	uxth	r2, r6
10006522:	4351      	muls	r1, r2
10006524:	1403      	asrs	r3, r0, #16
10006526:	435a      	muls	r2, r3
10006528:	0c36      	lsrs	r6, r6, #16
1000652a:	4373      	muls	r3, r6
1000652c:	b287      	uxth	r7, r0
1000652e:	4377      	muls	r7, r6
10006530:	17d6      	asrs	r6, r2, #31
10006532:	19d2      	adds	r2, r2, r7
10006534:	2700      	movs	r7, #0
10006536:	417e      	adcs	r6, r7
10006538:	0436      	lsls	r6, r6, #16
1000653a:	199b      	adds	r3, r3, r6
1000653c:	0417      	lsls	r7, r2, #16
1000653e:	0c16      	lsrs	r6, r2, #16
10006540:	187f      	adds	r7, r7, r1
10006542:	415e      	adcs	r6, r3
10006544:	1673      	asrs	r3, r6, #25
10006546:	18ed      	adds	r5, r5, r3
10006548:	01f3      	lsls	r3, r6, #7
1000654a:	2600      	movs	r6, #0
1000654c:	3380      	adds	r3, #128	; 0x80
1000654e:	4175      	adcs	r5, r6
10006550:	0fa9      	lsrs	r1, r5, #30
10006552:	d106      	bne.n	10006562 <dd_0>
10006554:	0064      	lsls	r4, r4, #1
10006556:	0a69      	lsrs	r1, r5, #9
10006558:	05e8      	lsls	r0, r5, #23
1000655a:	0a5b      	lsrs	r3, r3, #9
1000655c:	4318      	orrs	r0, r3
1000655e:	d209      	bcs.n	10006574 <dd_1>
10006560:	e02f      	b.n	100065c2 <dd_2>

10006562 <dd_0>:
10006562:	2204      	movs	r2, #4
10006564:	4494      	add	ip, r2
10006566:	3380      	adds	r3, #128	; 0x80
10006568:	4175      	adcs	r5, r6
1000656a:	0aa9      	lsrs	r1, r5, #10
1000656c:	05a8      	lsls	r0, r5, #22
1000656e:	0a9b      	lsrs	r3, r3, #10
10006570:	4318      	orrs	r0, r3
10006572:	d326      	bcc.n	100065c2 <dd_2>

10006574 <dd_1>:
10006574:	4140      	adcs	r0, r0
10006576:	4149      	adcs	r1, r1
10006578:	0424      	lsls	r4, r4, #16
1000657a:	9a00      	ldr	r2, [sp, #0]
1000657c:	9b01      	ldr	r3, [sp, #4]
1000657e:	000d      	movs	r5, r1
10006580:	4355      	muls	r5, r2
10006582:	1b64      	subs	r4, r4, r5
10006584:	4343      	muls	r3, r0
10006586:	1ae4      	subs	r4, r4, r3
10006588:	b295      	uxth	r5, r2
1000658a:	b286      	uxth	r6, r0
1000658c:	4375      	muls	r5, r6
1000658e:	0c17      	lsrs	r7, r2, #16
10006590:	437e      	muls	r6, r7
10006592:	0c03      	lsrs	r3, r0, #16
10006594:	435f      	muls	r7, r3
10006596:	b292      	uxth	r2, r2
10006598:	435a      	muls	r2, r3
1000659a:	18b6      	adds	r6, r6, r2
1000659c:	d302      	bcc.n	100065a4 <l24_1>
1000659e:	2201      	movs	r2, #1
100065a0:	0412      	lsls	r2, r2, #16
100065a2:	18bf      	adds	r7, r7, r2

100065a4 <l24_1>:
100065a4:	0432      	lsls	r2, r6, #16
100065a6:	0c33      	lsrs	r3, r6, #16
100065a8:	1952      	adds	r2, r2, r5
100065aa:	417b      	adcs	r3, r7
100065ac:	4252      	negs	r2, r2
100065ae:	419c      	sbcs	r4, r3
100065b0:	2c00      	cmp	r4, #0
100065b2:	d402      	bmi.n	100065ba <l24_1+0x16>
100065b4:	2200      	movs	r2, #0
100065b6:	3001      	adds	r0, #1
100065b8:	4151      	adcs	r1, r2
100065ba:	0840      	lsrs	r0, r0, #1
100065bc:	07ca      	lsls	r2, r1, #31
100065be:	4310      	orrs	r0, r2
100065c0:	0849      	lsrs	r1, r1, #1

100065c2 <dd_2>:
100065c2:	b002      	add	sp, #8
100065c4:	4662      	mov	r2, ip
100065c6:	07d7      	lsls	r7, r2, #31
100065c8:	1092      	asrs	r2, r2, #2
100065ca:	4b08      	ldr	r3, [pc, #32]	; (100065ec <dd_4+0x6>)
100065cc:	18d2      	adds	r2, r2, r3
100065ce:	4b08      	ldr	r3, [pc, #32]	; (100065f0 <dd_4+0xa>)
100065d0:	429a      	cmp	r2, r3
100065d2:	d203      	bcs.n	100065dc <dd_3>
100065d4:	0512      	lsls	r2, r2, #20
100065d6:	1889      	adds	r1, r1, r2

100065d8 <dd_5>:
100065d8:	19c9      	adds	r1, r1, r7
100065da:	bdf0      	pop	{r4, r5, r6, r7, pc}

100065dc <dd_3>:
100065dc:	2000      	movs	r0, #0
100065de:	2a00      	cmp	r2, #0
100065e0:	dc01      	bgt.n	100065e6 <dd_4>
100065e2:	0039      	movs	r1, r7
100065e4:	bdf0      	pop	{r4, r5, r6, r7, pc}

100065e6 <dd_4>:
100065e6:	3301      	adds	r3, #1
100065e8:	0519      	lsls	r1, r3, #20
100065ea:	e7f5      	b.n	100065d8 <dd_5>
100065ec:	000003fd 	.word	0x000003fd
100065f0:	000007fe 	.word	0x000007fe

100065f4 <double2uint_shim>:
100065f4:	2200      	movs	r2, #0

100065f6 <double2ufix_shim>:
100065f6:	b500      	push	{lr}
100065f8:	3220      	adds	r2, #32
100065fa:	f000 f804 	bl	10006606 <double2ufix64_shim>
100065fe:	0008      	movs	r0, r1
10006600:	bd00      	pop	{pc}
	...

10006604 <double2uint64_shim>:
10006604:	2200      	movs	r2, #0

10006606 <double2ufix64_shim>:
10006606:	150b      	asrs	r3, r1, #20
10006608:	d40a      	bmi.n	10006620 <ret_dzero>

1000660a <d2fix>:
1000660a:	b510      	push	{r4, lr}
1000660c:	4694      	mov	ip, r2
1000660e:	f000 f85f 	bl	100066d0 <dunpacks>
10006612:	1414      	asrs	r4, r2, #16
10006614:	3401      	adds	r4, #1
10006616:	da00      	bge.n	1000661a <d2fix+0x10>
10006618:	2100      	movs	r1, #0
1000661a:	17cb      	asrs	r3, r1, #31
1000661c:	4c14      	ldr	r4, [pc, #80]	; (10006670 <d2fix_a+0x4a>)
1000661e:	4720      	bx	r4

10006620 <ret_dzero>:
10006620:	2000      	movs	r0, #0
10006622:	2100      	movs	r1, #0
10006624:	4770      	bx	lr

10006626 <d2fix_a>:
10006626:	4462      	add	r2, ip
10006628:	3a34      	subs	r2, #52	; 0x34
1000662a:	d40c      	bmi.n	10006646 <d2fix_a+0x20>
1000662c:	2a0c      	cmp	r2, #12
1000662e:	da07      	bge.n	10006640 <d2fix_a+0x1a>
10006630:	0004      	movs	r4, r0
10006632:	4091      	lsls	r1, r2
10006634:	4090      	lsls	r0, r2
10006636:	4252      	negs	r2, r2
10006638:	3220      	adds	r2, #32
1000663a:	40d4      	lsrs	r4, r2
1000663c:	4321      	orrs	r1, r4
1000663e:	bd10      	pop	{r4, pc}
10006640:	43d8      	mvns	r0, r3
10006642:	43d9      	mvns	r1, r3
10006644:	bd10      	pop	{r4, pc}
10006646:	3220      	adds	r2, #32
10006648:	d407      	bmi.n	1000665a <d2fix_a+0x34>
1000664a:	460c      	mov	r4, r1
1000664c:	4094      	lsls	r4, r2
1000664e:	4252      	negs	r2, r2
10006650:	3220      	adds	r2, #32
10006652:	4111      	asrs	r1, r2
10006654:	40d0      	lsrs	r0, r2
10006656:	4320      	orrs	r0, r4
10006658:	bd10      	pop	{r4, pc}
1000665a:	0008      	movs	r0, r1
1000665c:	17c9      	asrs	r1, r1, #31
1000665e:	3220      	adds	r2, #32
10006660:	d403      	bmi.n	1000666a <d2fix_a+0x44>
10006662:	4252      	negs	r2, r2
10006664:	3220      	adds	r2, #32
10006666:	4110      	asrs	r0, r2
10006668:	bd10      	pop	{r4, pc}
1000666a:	0018      	movs	r0, r3
1000666c:	0019      	movs	r1, r3
1000666e:	bd10      	pop	{r4, pc}
10006670:	10006627 	.word	0x10006627

10006674 <double2float_shim>:
10006674:	004a      	lsls	r2, r1, #1
10006676:	0d52      	lsrs	r2, r2, #21
10006678:	4b14      	ldr	r3, [pc, #80]	; (100066cc <double2float_shim+0x58>)
1000667a:	1ad2      	subs	r2, r2, r3
1000667c:	dd13      	ble.n	100066a6 <double2float_shim+0x32>
1000667e:	2aff      	cmp	r2, #255	; 0xff
10006680:	da1e      	bge.n	100066c0 <double2float_shim+0x4c>
10006682:	05d2      	lsls	r2, r2, #23
10006684:	0fcb      	lsrs	r3, r1, #31
10006686:	07db      	lsls	r3, r3, #31
10006688:	431a      	orrs	r2, r3
1000668a:	00c3      	lsls	r3, r0, #3
1000668c:	0f40      	lsrs	r0, r0, #29
1000668e:	0309      	lsls	r1, r1, #12
10006690:	0a49      	lsrs	r1, r1, #9
10006692:	4308      	orrs	r0, r1
10006694:	4310      	orrs	r0, r2
10006696:	005b      	lsls	r3, r3, #1
10006698:	d301      	bcc.n	1000669e <double2float_shim+0x2a>
1000669a:	d001      	beq.n	100066a0 <double2float_shim+0x2c>
1000669c:	3001      	adds	r0, #1
1000669e:	4770      	bx	lr
100066a0:	0843      	lsrs	r3, r0, #1
100066a2:	d2fb      	bcs.n	1000669c <double2float_shim+0x28>
100066a4:	4770      	bx	lr
100066a6:	d002      	beq.n	100066ae <double2float_shim+0x3a>
100066a8:	0fc8      	lsrs	r0, r1, #31
100066aa:	07c0      	lsls	r0, r0, #31
100066ac:	4770      	bx	lr
100066ae:	030a      	lsls	r2, r1, #12
100066b0:	1312      	asrs	r2, r2, #12
100066b2:	3201      	adds	r2, #1
100066b4:	d1f8      	bne.n	100066a8 <double2float_shim+0x34>
100066b6:	0f42      	lsrs	r2, r0, #29
100066b8:	2a07      	cmp	r2, #7
100066ba:	d1f5      	bne.n	100066a8 <double2float_shim+0x34>
100066bc:	2201      	movs	r2, #1
100066be:	e000      	b.n	100066c2 <double2float_shim+0x4e>
100066c0:	22ff      	movs	r2, #255	; 0xff
100066c2:	0fc8      	lsrs	r0, r1, #31
100066c4:	0200      	lsls	r0, r0, #8
100066c6:	1880      	adds	r0, r0, r2
100066c8:	05c0      	lsls	r0, r0, #23
100066ca:	4770      	bx	lr
100066cc:	00000380 	.word	0x00000380

100066d0 <dunpacks>:
100066d0:	0d0a      	lsrs	r2, r1, #20
100066d2:	0fcc      	lsrs	r4, r1, #31
100066d4:	1e53      	subs	r3, r2, #1
100066d6:	051b      	lsls	r3, r3, #20
100066d8:	1ac9      	subs	r1, r1, r3
100066da:	0552      	lsls	r2, r2, #21
100066dc:	d303      	bcc.n	100066e6 <l60_1>
100066de:	43c9      	mvns	r1, r1
100066e0:	4240      	negs	r0, r0
100066e2:	d300      	bcc.n	100066e6 <l60_1>
100066e4:	3101      	adds	r1, #1

100066e6 <l60_1>:
100066e6:	0d52      	lsrs	r2, r2, #21
100066e8:	d003      	beq.n	100066f2 <l60_2>
100066ea:	1c53      	adds	r3, r2, #1
100066ec:	0adb      	lsrs	r3, r3, #11
100066ee:	d007      	beq.n	10006700 <l60_3>
100066f0:	1b12      	subs	r2, r2, r4

100066f2 <l60_2>:
100066f2:	2000      	movs	r0, #0
100066f4:	0064      	lsls	r4, r4, #1
100066f6:	1c61      	adds	r1, r4, #1
100066f8:	0789      	lsls	r1, r1, #30
100066fa:	1289      	asrs	r1, r1, #10
100066fc:	3a80      	subs	r2, #128	; 0x80
100066fe:	0312      	lsls	r2, r2, #12

10006700 <l60_3>:
10006700:	4b01      	ldr	r3, [pc, #4]	; (10006708 <l60_3+0x8>)
10006702:	1ad2      	subs	r2, r2, r3
10006704:	4770      	bx	lr
10006706:	0000      	.short	0x0000
10006708:	000003ff 	.word	0x000003ff

1000670c <__wrap___aeabi_lmul>:
1000670c:	4351      	muls	r1, r2
1000670e:	4343      	muls	r3, r0
10006710:	18c9      	adds	r1, r1, r3
10006712:	468c      	mov	ip, r1
10006714:	0c11      	lsrs	r1, r2, #16
10006716:	b283      	uxth	r3, r0
10006718:	434b      	muls	r3, r1
1000671a:	b410      	push	{r4}
1000671c:	0c04      	lsrs	r4, r0, #16
1000671e:	4361      	muls	r1, r4
10006720:	b292      	uxth	r2, r2
10006722:	b280      	uxth	r0, r0
10006724:	4350      	muls	r0, r2
10006726:	4362      	muls	r2, r4
10006728:	041c      	lsls	r4, r3, #16
1000672a:	0c1b      	lsrs	r3, r3, #16
1000672c:	1900      	adds	r0, r0, r4
1000672e:	bc10      	pop	{r4}
10006730:	4159      	adcs	r1, r3
10006732:	0413      	lsls	r3, r2, #16
10006734:	0c12      	lsrs	r2, r2, #16
10006736:	18c0      	adds	r0, r0, r3
10006738:	4151      	adcs	r1, r2
1000673a:	4461      	add	r1, ip
1000673c:	4770      	bx	lr
	...

10006740 <__wrap___aeabi_frsub>:
10006740:	4048      	eors	r0, r1
10006742:	4041      	eors	r1, r0
10006744:	4048      	eors	r0, r1

10006746 <__wrap___aeabi_fsub>:
10006746:	2300      	movs	r3, #0
10006748:	469c      	mov	ip, r3
1000674a:	4b11      	ldr	r3, [pc, #68]	; (10006790 <__wrap___aeabi_fmul+0xa>)
1000674c:	685b      	ldr	r3, [r3, #4]
1000674e:	4718      	bx	r3

10006750 <__wrap___aeabi_fadd>:
10006750:	2300      	movs	r3, #0
10006752:	469c      	mov	ip, r3
10006754:	4b0e      	ldr	r3, [pc, #56]	; (10006790 <__wrap___aeabi_fmul+0xa>)
10006756:	681b      	ldr	r3, [r3, #0]
10006758:	4718      	bx	r3

1000675a <__wrap___aeabi_fdiv>:
1000675a:	4a0e      	ldr	r2, [pc, #56]	; (10006794 <__wrap___aeabi_fmul+0xe>)
1000675c:	6f93      	ldr	r3, [r2, #120]	; 0x78
1000675e:	089b      	lsrs	r3, r3, #2
10006760:	d204      	bcs.n	1000676c <fdiv_save_state>

10006762 <fdiv_shim_call>:
10006762:	2300      	movs	r3, #0
10006764:	469c      	mov	ip, r3
10006766:	4b0a      	ldr	r3, [pc, #40]	; (10006790 <__wrap___aeabi_fmul+0xa>)
10006768:	68db      	ldr	r3, [r3, #12]
1000676a:	4718      	bx	r3

1000676c <fdiv_save_state>:
1000676c:	b5f0      	push	{r4, r5, r6, r7, lr}
1000676e:	6e14      	ldr	r4, [r2, #96]	; 0x60
10006770:	6e55      	ldr	r5, [r2, #100]	; 0x64
10006772:	6f57      	ldr	r7, [r2, #116]	; 0x74
10006774:	6f16      	ldr	r6, [r2, #112]	; 0x70
10006776:	f7ff fff4 	bl	10006762 <fdiv_shim_call>
1000677a:	4a06      	ldr	r2, [pc, #24]	; (10006794 <__wrap___aeabi_fmul+0xe>)
1000677c:	6614      	str	r4, [r2, #96]	; 0x60
1000677e:	6655      	str	r5, [r2, #100]	; 0x64
10006780:	6757      	str	r7, [r2, #116]	; 0x74
10006782:	6716      	str	r6, [r2, #112]	; 0x70
10006784:	bdf0      	pop	{r4, r5, r6, r7, pc}

10006786 <__wrap___aeabi_fmul>:
10006786:	2300      	movs	r3, #0
10006788:	469c      	mov	ip, r3
1000678a:	4b01      	ldr	r3, [pc, #4]	; (10006790 <__wrap___aeabi_fmul+0xa>)
1000678c:	689b      	ldr	r3, [r3, #8]
1000678e:	4718      	bx	r3
10006790:	20002600 	.word	0x20002600
10006794:	d0000000 	.word	0xd0000000

10006798 <__wrap___aeabi_cfrcmple>:
10006798:	b507      	push	{r0, r1, r2, lr}
1000679a:	4048      	eors	r0, r1
1000679c:	4041      	eors	r1, r0
1000679e:	4048      	eors	r0, r1
100067a0:	e001      	b.n	100067a6 <__aeabi_cfcmple_guts>
100067a2:	46c0      	nop			; (mov r8, r8)

100067a4 <__wrap___aeabi_cfcmpeq>:
100067a4:	b507      	push	{r0, r1, r2, lr}

100067a6 <__aeabi_cfcmple_guts>:
100067a6:	0042      	lsls	r2, r0, #1
100067a8:	0e12      	lsrs	r2, r2, #24
100067aa:	d003      	beq.n	100067b4 <__aeabi_cfcmple_guts+0xe>
100067ac:	2aff      	cmp	r2, #255	; 0xff
100067ae:	d103      	bne.n	100067b8 <__aeabi_cfcmple_guts+0x12>
100067b0:	0242      	lsls	r2, r0, #9
100067b2:	d818      	bhi.n	100067e6 <__aeabi_cfcmple_guts+0x40>
100067b4:	0dc0      	lsrs	r0, r0, #23
100067b6:	05c0      	lsls	r0, r0, #23
100067b8:	004a      	lsls	r2, r1, #1
100067ba:	0e12      	lsrs	r2, r2, #24
100067bc:	d003      	beq.n	100067c6 <__aeabi_cfcmple_guts+0x20>
100067be:	2aff      	cmp	r2, #255	; 0xff
100067c0:	d103      	bne.n	100067ca <__aeabi_cfcmple_guts+0x24>
100067c2:	024a      	lsls	r2, r1, #9
100067c4:	d80f      	bhi.n	100067e6 <__aeabi_cfcmple_guts+0x40>
100067c6:	0dc9      	lsrs	r1, r1, #23
100067c8:	05c9      	lsls	r1, r1, #23
100067ca:	2201      	movs	r2, #1
100067cc:	4041      	eors	r1, r0
100067ce:	d405      	bmi.n	100067dc <__aeabi_cfcmple_guts+0x36>
100067d0:	4041      	eors	r1, r0
100067d2:	d501      	bpl.n	100067d8 <__aeabi_cfcmple_guts+0x32>
100067d4:	4281      	cmp	r1, r0
100067d6:	bd07      	pop	{r0, r1, r2, pc}
100067d8:	4288      	cmp	r0, r1
100067da:	bd07      	pop	{r0, r1, r2, pc}
100067dc:	4301      	orrs	r1, r0
100067de:	1849      	adds	r1, r1, r1
100067e0:	d001      	beq.n	100067e6 <__aeabi_cfcmple_guts+0x40>
100067e2:	43c0      	mvns	r0, r0
100067e4:	1800      	adds	r0, r0, r0
100067e6:	bd07      	pop	{r0, r1, r2, pc}

100067e8 <__wrap___aeabi_fcmplt>:
100067e8:	b500      	push	{lr}
100067ea:	f7ff ffdb 	bl	100067a4 <__wrap___aeabi_cfcmpeq>
100067ee:	4180      	sbcs	r0, r0
100067f0:	bd00      	pop	{pc}
100067f2:	46c0      	nop			; (mov r8, r8)

100067f4 <__wrap___aeabi_fcmpgt>:
100067f4:	b500      	push	{lr}
100067f6:	f7ff ffcf 	bl	10006798 <__wrap___aeabi_cfrcmple>
100067fa:	4180      	sbcs	r0, r0
100067fc:	bd00      	pop	{pc}

100067fe <__wrap___aeabi_ui2f>:
100067fe:	1a49      	subs	r1, r1, r1
10006800:	2800      	cmp	r0, #0
10006802:	d107      	bne.n	10006814 <__aeabi_i2f_main>
10006804:	4608      	mov	r0, r1
10006806:	4770      	bx	lr

10006808 <__wrap___aeabi_i2f>:
10006808:	0fc1      	lsrs	r1, r0, #31
1000680a:	07c9      	lsls	r1, r1, #31
1000680c:	d500      	bpl.n	10006810 <__wrap___aeabi_i2f+0x8>
1000680e:	4240      	negs	r0, r0
10006810:	2800      	cmp	r0, #0
10006812:	d017      	beq.n	10006844 <__aeabi_i2f_main+0x30>

10006814 <__aeabi_i2f_main>:
10006814:	46f4      	mov	ip, lr
10006816:	b403      	push	{r0, r1}
10006818:	4b0b      	ldr	r3, [pc, #44]	; (10006848 <__aeabi_i2f_main+0x34>)
1000681a:	681b      	ldr	r3, [r3, #0]
1000681c:	4798      	blx	r3
1000681e:	bc06      	pop	{r1, r2}
10006820:	4081      	lsls	r1, r0
10006822:	389e      	subs	r0, #158	; 0x9e
10006824:	4240      	negs	r0, r0
10006826:	3180      	adds	r1, #128	; 0x80
10006828:	d207      	bcs.n	1000683a <__aeabi_i2f_main+0x26>
1000682a:	060b      	lsls	r3, r1, #24
1000682c:	d007      	beq.n	1000683e <__aeabi_i2f_main+0x2a>
1000682e:	0049      	lsls	r1, r1, #1
10006830:	0a49      	lsrs	r1, r1, #9
10006832:	05c0      	lsls	r0, r0, #23
10006834:	4310      	orrs	r0, r2
10006836:	4308      	orrs	r0, r1
10006838:	4760      	bx	ip
1000683a:	3001      	adds	r0, #1
1000683c:	e7f8      	b.n	10006830 <__aeabi_i2f_main+0x1c>
1000683e:	0a49      	lsrs	r1, r1, #9
10006840:	0289      	lsls	r1, r1, #10
10006842:	e7f5      	b.n	10006830 <__aeabi_i2f_main+0x1c>
10006844:	4770      	bx	lr
10006846:	0000      	.short	0x0000
10006848:	200025fc 	.word	0x200025fc

1000684c <__wrap___aeabi_f2iz>:
1000684c:	0041      	lsls	r1, r0, #1
1000684e:	0e0a      	lsrs	r2, r1, #24
10006850:	2380      	movs	r3, #128	; 0x80
10006852:	061b      	lsls	r3, r3, #24
10006854:	2a7e      	cmp	r2, #126	; 0x7e
10006856:	dd0b      	ble.n	10006870 <__wrap___aeabi_f2iz+0x24>
10006858:	3a9e      	subs	r2, #158	; 0x9e
1000685a:	da0b      	bge.n	10006874 <__wrap___aeabi_f2iz+0x28>
1000685c:	17c1      	asrs	r1, r0, #31
1000685e:	0240      	lsls	r0, r0, #9
10006860:	0840      	lsrs	r0, r0, #1
10006862:	4318      	orrs	r0, r3
10006864:	4252      	negs	r2, r2
10006866:	40d0      	lsrs	r0, r2
10006868:	0049      	lsls	r1, r1, #1
1000686a:	3101      	adds	r1, #1
1000686c:	4348      	muls	r0, r1
1000686e:	4770      	bx	lr
10006870:	2000      	movs	r0, #0
10006872:	4770      	bx	lr
10006874:	0fc0      	lsrs	r0, r0, #31
10006876:	18c0      	adds	r0, r0, r3
10006878:	3801      	subs	r0, #1
1000687a:	4770      	bx	lr
1000687c:	42c0      	cmn	r0, r0
1000687e:	d30d      	bcc.n	1000689c <float2int>
10006880:	b500      	push	{lr}
10006882:	0040      	lsls	r0, r0, #1
10006884:	0840      	lsrs	r0, r0, #1
10006886:	2100      	movs	r1, #0
10006888:	f000 f812 	bl	100068b0 <__wrap___aeabi_f2uiz>
1000688c:	2800      	cmp	r0, #0
1000688e:	d401      	bmi.n	10006894 <__wrap___aeabi_f2iz+0x48>
10006890:	4240      	negs	r0, r0
10006892:	bd00      	pop	{pc}
10006894:	2080      	movs	r0, #128	; 0x80
10006896:	0600      	lsls	r0, r0, #24
10006898:	bd00      	pop	{pc}
	...

1000689c <float2int>:
1000689c:	4b03      	ldr	r3, [pc, #12]	; (100068ac <float2int+0x10>)
1000689e:	69db      	ldr	r3, [r3, #28]
100068a0:	46fc      	mov	ip, pc
100068a2:	4718      	bx	r3
100068a4:	6a05df1c 	.word	0x6a05df1c
100068a8:	00001000 	.word	0x00001000
100068ac:	20002600 	.word	0x20002600

100068b0 <__wrap___aeabi_f2uiz>:
100068b0:	2300      	movs	r3, #0
100068b2:	469c      	mov	ip, r3
100068b4:	4b01      	ldr	r3, [pc, #4]	; (100068bc <__wrap___aeabi_f2uiz+0xc>)
100068b6:	6a5b      	ldr	r3, [r3, #36]	; 0x24
100068b8:	4718      	bx	r3
100068ba:	0000      	.short	0x0000
100068bc:	20002600 	.word	0x20002600

100068c0 <__wrap___aeabi_f2d>:
100068c0:	4b03      	ldr	r3, [pc, #12]	; (100068d0 <__wrap___aeabi_f2d+0x10>)
100068c2:	6fdb      	ldr	r3, [r3, #124]	; 0x7c
100068c4:	46fc      	mov	ip, pc
100068c6:	4718      	bx	r3
100068c8:	6a1ddf7c 	.word	0x6a1ddf7c
100068cc:	00001000 	.word	0x00001000
100068d0:	20002600 	.word	0x20002600

100068d4 <__aeabi_float_init>:
100068d4:	b570      	push	{r4, r5, r6, lr}
100068d6:	2313      	movs	r3, #19
100068d8:	781d      	ldrb	r5, [r3, #0]
100068da:	482a      	ldr	r0, [pc, #168]	; (10006984 <__aeabi_float_init+0xb0>)
100068dc:	f7ff f854 	bl	10005988 <rom_data_lookup>
100068e0:	0004      	movs	r4, r0
100068e2:	2d01      	cmp	r5, #1
100068e4:	d011      	beq.n	1000690a <__aeabi_float_init+0x36>
100068e6:	2d01      	cmp	r5, #1
100068e8:	dd09      	ble.n	100068fe <__aeabi_float_init+0x2a>
100068ea:	1ea3      	subs	r3, r4, #2
100068ec:	781b      	ldrb	r3, [r3, #0]
100068ee:	009b      	lsls	r3, r3, #2
100068f0:	2b7f      	cmp	r3, #127	; 0x7f
100068f2:	dd40      	ble.n	10006976 <__aeabi_float_init+0xa2>
100068f4:	2280      	movs	r2, #128	; 0x80
100068f6:	0021      	movs	r1, r4
100068f8:	4823      	ldr	r0, [pc, #140]	; (10006988 <__aeabi_float_init+0xb4>)
100068fa:	f000 f8b5 	bl	10006a68 <__wrap___aeabi_memcpy>
100068fe:	4823      	ldr	r0, [pc, #140]	; (1000698c <__aeabi_float_init+0xb8>)
10006900:	f7ff f83a 	bl	10005978 <rom_func_lookup>
10006904:	4b22      	ldr	r3, [pc, #136]	; (10006990 <__aeabi_float_init+0xbc>)
10006906:	6018      	str	r0, [r3, #0]
10006908:	bd70      	pop	{r4, r5, r6, pc}
1000690a:	2254      	movs	r2, #84	; 0x54
1000690c:	0001      	movs	r1, r0
1000690e:	481e      	ldr	r0, [pc, #120]	; (10006988 <__aeabi_float_init+0xb4>)
10006910:	f000 f8aa 	bl	10006a68 <__wrap___aeabi_memcpy>
10006914:	4b1f      	ldr	r3, [pc, #124]	; (10006994 <__aeabi_float_init+0xc0>)
10006916:	881a      	ldrh	r2, [r3, #0]
10006918:	4b1f      	ldr	r3, [pc, #124]	; (10006998 <__aeabi_float_init+0xc4>)
1000691a:	429a      	cmp	r2, r3
1000691c:	d11c      	bne.n	10006958 <__aeabi_float_init+0x84>
1000691e:	23a7      	movs	r3, #167	; 0xa7
10006920:	019b      	lsls	r3, r3, #6
10006922:	881a      	ldrh	r2, [r3, #0]
10006924:	4b1d      	ldr	r3, [pc, #116]	; (1000699c <__aeabi_float_init+0xc8>)
10006926:	429a      	cmp	r2, r3
10006928:	d116      	bne.n	10006958 <__aeabi_float_init+0x84>
1000692a:	4b1d      	ldr	r3, [pc, #116]	; (100069a0 <__aeabi_float_init+0xcc>)
1000692c:	881a      	ldrh	r2, [r3, #0]
1000692e:	4b1d      	ldr	r3, [pc, #116]	; (100069a4 <__aeabi_float_init+0xd0>)
10006930:	429a      	cmp	r2, r3
10006932:	d111      	bne.n	10006958 <__aeabi_float_init+0x84>
10006934:	4b1c      	ldr	r3, [pc, #112]	; (100069a8 <__aeabi_float_init+0xd4>)
10006936:	881a      	ldrh	r2, [r3, #0]
10006938:	2394      	movs	r3, #148	; 0x94
1000693a:	019b      	lsls	r3, r3, #6
1000693c:	429a      	cmp	r2, r3
1000693e:	d10b      	bne.n	10006958 <__aeabi_float_init+0x84>
10006940:	4b1a      	ldr	r3, [pc, #104]	; (100069ac <__aeabi_float_init+0xd8>)
10006942:	881a      	ldrh	r2, [r3, #0]
10006944:	4b1a      	ldr	r3, [pc, #104]	; (100069b0 <__aeabi_float_init+0xdc>)
10006946:	429a      	cmp	r2, r3
10006948:	d106      	bne.n	10006958 <__aeabi_float_init+0x84>
1000694a:	4b1a      	ldr	r3, [pc, #104]	; (100069b4 <__aeabi_float_init+0xe0>)
1000694c:	681a      	ldr	r2, [r3, #0]
1000694e:	4b1a      	ldr	r3, [pc, #104]	; (100069b8 <__aeabi_float_init+0xe4>)
10006950:	429a      	cmp	r2, r3
10006952:	d101      	bne.n	10006958 <__aeabi_float_init+0x84>
10006954:	2315      	movs	r3, #21
10006956:	e007      	b.n	10006968 <__aeabi_float_init+0x94>
10006958:	4818      	ldr	r0, [pc, #96]	; (100069bc <__aeabi_float_init+0xe8>)
1000695a:	f7fd ff4d 	bl	100047f8 <panic>
1000695e:	0099      	lsls	r1, r3, #2
10006960:	4817      	ldr	r0, [pc, #92]	; (100069c0 <__aeabi_float_init+0xec>)
10006962:	4a09      	ldr	r2, [pc, #36]	; (10006988 <__aeabi_float_init+0xb4>)
10006964:	5088      	str	r0, [r1, r2]
10006966:	3301      	adds	r3, #1
10006968:	2b1f      	cmp	r3, #31
1000696a:	d9f8      	bls.n	1000695e <__aeabi_float_init+0x8a>
1000696c:	4a14      	ldr	r2, [pc, #80]	; (100069c0 <__aeabi_float_init+0xec>)
1000696e:	4b06      	ldr	r3, [pc, #24]	; (10006988 <__aeabi_float_init+0xb4>)
10006970:	621a      	str	r2, [r3, #32]
10006972:	61da      	str	r2, [r3, #28]
10006974:	e7b7      	b.n	100068e6 <__aeabi_float_init+0x12>
10006976:	4b13      	ldr	r3, [pc, #76]	; (100069c4 <__aeabi_float_init+0xf0>)
10006978:	4a13      	ldr	r2, [pc, #76]	; (100069c8 <__aeabi_float_init+0xf4>)
1000697a:	2142      	movs	r1, #66	; 0x42
1000697c:	4813      	ldr	r0, [pc, #76]	; (100069cc <__aeabi_float_init+0xf8>)
1000697e:	f7fd fea1 	bl	100046c4 <__assert_func>
10006982:	46c0      	nop			; (mov r8, r8)
10006984:	00004653 	.word	0x00004653
10006988:	20002600 	.word	0x20002600
1000698c:	0000334c 	.word	0x0000334c
10006990:	200025fc 	.word	0x200025fc
10006994:	000029ee 	.word	0x000029ee
10006998:	00000fc4 	.word	0x00000fc4
1000699c:	00000dc2 	.word	0x00000dc2
100069a0:	00002b96 	.word	0x00002b96
100069a4:	0000b5c0 	.word	0x0000b5c0
100069a8:	00002b18 	.word	0x00002b18
100069ac:	00002acc 	.word	0x00002acc
100069b0:	0000b510 	.word	0x0000b510
100069b4:	00002cfc 	.word	0x00002cfc
100069b8:	6487ed51 	.word	0x6487ed51
100069bc:	1000a028 	.word	0x1000a028
100069c0:	100069d1 	.word	0x100069d1
100069c4:	1000b554 	.word	0x1000b554
100069c8:	1000b5ec 	.word	0x1000b5ec
100069cc:	1000b588 	.word	0x1000b588

100069d0 <float_table_shim_on_use_helper>:
100069d0:	b507      	push	{r0, r1, r2, lr}
100069d2:	4660      	mov	r0, ip
100069d4:	2800      	cmp	r0, #0
100069d6:	d100      	bne.n	100069da <float_table_shim_on_use_helper+0xa>
100069d8:	be00      	bkpt	0x0000
100069da:	8801      	ldrh	r1, [r0, #0]
100069dc:	0a0a      	lsrs	r2, r1, #8
100069de:	3002      	adds	r0, #2
100069e0:	2adf      	cmp	r2, #223	; 0xdf
100069e2:	d1fa      	bne.n	100069da <float_table_shim_on_use_helper+0xa>
100069e4:	b2c9      	uxtb	r1, r1
100069e6:	0882      	lsrs	r2, r0, #2
100069e8:	d304      	bcc.n	100069f4 <float_table_shim_on_use_helper+0x24>
100069ea:	8802      	ldrh	r2, [r0, #0]
100069ec:	8840      	ldrh	r0, [r0, #2]
100069ee:	0400      	lsls	r0, r0, #16
100069f0:	4310      	orrs	r0, r2
100069f2:	e000      	b.n	100069f6 <float_table_shim_on_use_helper+0x26>
100069f4:	6800      	ldr	r0, [r0, #0]
100069f6:	4a02      	ldr	r2, [pc, #8]	; (10006a00 <float_table_shim_on_use_helper+0x30>)
100069f8:	5050      	str	r0, [r2, r1]
100069fa:	9003      	str	r0, [sp, #12]
100069fc:	bd07      	pop	{r0, r1, r2, pc}
100069fe:	0000      	.short	0x0000
10006a00:	20002600 	.word	0x20002600

10006a04 <float2int_shim>:
10006a04:	2100      	movs	r1, #0

10006a06 <float2fix_shim>:
10006a06:	15c2      	asrs	r2, r0, #23
10006a08:	3280      	adds	r2, #128	; 0x80
10006a0a:	3280      	adds	r2, #128	; 0x80
10006a0c:	d001      	beq.n	10006a12 <float2fix_shim+0xc>
10006a0e:	4a02      	ldr	r2, [pc, #8]	; (10006a18 <float2fix_shim+0x12>)
10006a10:	4710      	bx	r2
10006a12:	2000      	movs	r0, #0
10006a14:	4770      	bx	lr
10006a16:	0000      	.short	0x0000
10006a18:	00002acd 	.word	0x00002acd

10006a1c <float2double_shim>:
10006a1c:	0fc3      	lsrs	r3, r0, #31
10006a1e:	07db      	lsls	r3, r3, #31
10006a20:	0041      	lsls	r1, r0, #1
10006a22:	0e0a      	lsrs	r2, r1, #24
10006a24:	d007      	beq.n	10006a36 <float2double_shim+0x1a>
10006a26:	2aff      	cmp	r2, #255	; 0xff
10006a28:	d008      	beq.n	10006a3c <float2double_shim+0x20>
10006a2a:	0909      	lsrs	r1, r1, #4
10006a2c:	4a05      	ldr	r2, [pc, #20]	; (10006a44 <float2double_shim+0x28>)
10006a2e:	1889      	adds	r1, r1, r2
10006a30:	4319      	orrs	r1, r3
10006a32:	0740      	lsls	r0, r0, #29
10006a34:	4770      	bx	lr
10006a36:	0019      	movs	r1, r3
10006a38:	2000      	movs	r0, #0
10006a3a:	4770      	bx	lr
10006a3c:	4902      	ldr	r1, [pc, #8]	; (10006a48 <float2double_shim+0x2c>)
10006a3e:	18c9      	adds	r1, r1, r3
10006a40:	e7fa      	b.n	10006a38 <float2double_shim+0x1c>
10006a42:	0000      	.short	0x0000
10006a44:	38000000 	.word	0x38000000
10006a48:	7ff00000 	.word	0x7ff00000

10006a4c <__aeabi_mem_init>:
10006a4c:	4801      	ldr	r0, [pc, #4]	; (10006a54 <__aeabi_mem_init+0x8>)
10006a4e:	2104      	movs	r1, #4
10006a50:	4b01      	ldr	r3, [pc, #4]	; (10006a58 <__aeabi_mem_init+0xc>)
10006a52:	4718      	bx	r3
10006a54:	20000eb0 	.word	0x20000eb0
10006a58:	10005999 	.word	0x10005999

10006a5c <__wrap_memset>:
10006a5c:	4b01      	ldr	r3, [pc, #4]	; (10006a64 <__wrap_memset+0x8>)
10006a5e:	681b      	ldr	r3, [r3, #0]
10006a60:	4718      	bx	r3
10006a62:	0000      	.short	0x0000
10006a64:	20000eb0 	.word	0x20000eb0

10006a68 <__wrap___aeabi_memcpy>:
10006a68:	4b01      	ldr	r3, [pc, #4]	; (10006a70 <__wrap___aeabi_memcpy+0x8>)
10006a6a:	685b      	ldr	r3, [r3, #4]
10006a6c:	4718      	bx	r3
10006a6e:	0000      	.short	0x0000
10006a70:	20000eb0 	.word	0x20000eb0

10006a74 <stdio_out_chars_no_crlf>:
10006a74:	b510      	push	{r4, lr}
10006a76:	0003      	movs	r3, r0
10006a78:	0008      	movs	r0, r1
10006a7a:	0011      	movs	r1, r2
10006a7c:	681b      	ldr	r3, [r3, #0]
10006a7e:	4798      	blx	r3
10006a80:	bd10      	pop	{r4, pc}
	...

10006a84 <stdio_out_chars_crlf>:
10006a84:	b5f8      	push	{r3, r4, r5, r6, r7, lr}
10006a86:	0007      	movs	r7, r0
10006a88:	000d      	movs	r5, r1
10006a8a:	0016      	movs	r6, r2
10006a8c:	7d43      	ldrb	r3, [r0, #21]
10006a8e:	2b00      	cmp	r3, #0
10006a90:	d002      	beq.n	10006a98 <stdio_out_chars_crlf+0x14>
10006a92:	2400      	movs	r4, #0
10006a94:	2000      	movs	r0, #0
10006a96:	e00c      	b.n	10006ab2 <stdio_out_chars_crlf+0x2e>
10006a98:	6803      	ldr	r3, [r0, #0]
10006a9a:	0011      	movs	r1, r2
10006a9c:	0028      	movs	r0, r5
10006a9e:	4798      	blx	r3
10006aa0:	e02d      	b.n	10006afe <stdio_out_chars_crlf+0x7a>
10006aa2:	7d3b      	ldrb	r3, [r7, #20]
10006aa4:	e010      	b.n	10006ac8 <stdio_out_chars_crlf+0x44>
10006aa6:	2102      	movs	r1, #2
10006aa8:	4815      	ldr	r0, [pc, #84]	; (10006b00 <stdio_out_chars_crlf+0x7c>)
10006aaa:	683b      	ldr	r3, [r7, #0]
10006aac:	4798      	blx	r3
10006aae:	1c60      	adds	r0, r4, #1
10006ab0:	3401      	adds	r4, #1
10006ab2:	42b4      	cmp	r4, r6
10006ab4:	da14      	bge.n	10006ae0 <stdio_out_chars_crlf+0x5c>
10006ab6:	2c00      	cmp	r4, #0
10006ab8:	ddf3      	ble.n	10006aa2 <stdio_out_chars_crlf+0x1e>
10006aba:	192b      	adds	r3, r5, r4
10006abc:	3b01      	subs	r3, #1
10006abe:	781b      	ldrb	r3, [r3, #0]
10006ac0:	3b0d      	subs	r3, #13
10006ac2:	425a      	negs	r2, r3
10006ac4:	4153      	adcs	r3, r2
10006ac6:	b2db      	uxtb	r3, r3
10006ac8:	5d2a      	ldrb	r2, [r5, r4]
10006aca:	2a0a      	cmp	r2, #10
10006acc:	d1f0      	bne.n	10006ab0 <stdio_out_chars_crlf+0x2c>
10006ace:	2b00      	cmp	r3, #0
10006ad0:	d1ee      	bne.n	10006ab0 <stdio_out_chars_crlf+0x2c>
10006ad2:	42a0      	cmp	r0, r4
10006ad4:	dae7      	bge.n	10006aa6 <stdio_out_chars_crlf+0x22>
10006ad6:	1a21      	subs	r1, r4, r0
10006ad8:	1828      	adds	r0, r5, r0
10006ada:	683b      	ldr	r3, [r7, #0]
10006adc:	4798      	blx	r3
10006ade:	e7e2      	b.n	10006aa6 <stdio_out_chars_crlf+0x22>
10006ae0:	42b0      	cmp	r0, r6
10006ae2:	da03      	bge.n	10006aec <stdio_out_chars_crlf+0x68>
10006ae4:	1a31      	subs	r1, r6, r0
10006ae6:	1828      	adds	r0, r5, r0
10006ae8:	683b      	ldr	r3, [r7, #0]
10006aea:	4798      	blx	r3
10006aec:	2e00      	cmp	r6, #0
10006aee:	dd06      	ble.n	10006afe <stdio_out_chars_crlf+0x7a>
10006af0:	19ad      	adds	r5, r5, r6
10006af2:	3d01      	subs	r5, #1
10006af4:	782b      	ldrb	r3, [r5, #0]
10006af6:	3b0d      	subs	r3, #13
10006af8:	425a      	negs	r2, r3
10006afa:	4153      	adcs	r3, r2
10006afc:	753b      	strb	r3, [r7, #20]
10006afe:	bdf8      	pop	{r3, r4, r5, r6, r7, pc}
10006b00:	1000b68c 	.word	0x1000b68c

10006b04 <stdio_stack_buffer_flush>:
10006b04:	b570      	push	{r4, r5, r6, lr}
10006b06:	0005      	movs	r5, r0
10006b08:	6803      	ldr	r3, [r0, #0]
10006b0a:	2b00      	cmp	r3, #0
10006b0c:	d016      	beq.n	10006b3c <stdio_stack_buffer_flush+0x38>
10006b0e:	4b0c      	ldr	r3, [pc, #48]	; (10006b40 <stdio_stack_buffer_flush+0x3c>)
10006b10:	681c      	ldr	r4, [r3, #0]
10006b12:	e005      	b.n	10006b20 <stdio_stack_buffer_flush+0x1c>
10006b14:	0029      	movs	r1, r5
10006b16:	c904      	ldmia	r1!, {r2}
10006b18:	0020      	movs	r0, r4
10006b1a:	f7ff ffb3 	bl	10006a84 <stdio_out_chars_crlf>
10006b1e:	6924      	ldr	r4, [r4, #16]
10006b20:	2c00      	cmp	r4, #0
10006b22:	d009      	beq.n	10006b38 <stdio_stack_buffer_flush+0x34>
10006b24:	6823      	ldr	r3, [r4, #0]
10006b26:	2b00      	cmp	r3, #0
10006b28:	d0f9      	beq.n	10006b1e <stdio_stack_buffer_flush+0x1a>
10006b2a:	4b06      	ldr	r3, [pc, #24]	; (10006b44 <stdio_stack_buffer_flush+0x40>)
10006b2c:	681b      	ldr	r3, [r3, #0]
10006b2e:	2b00      	cmp	r3, #0
10006b30:	d0f0      	beq.n	10006b14 <stdio_stack_buffer_flush+0x10>
10006b32:	42a3      	cmp	r3, r4
10006b34:	d1f3      	bne.n	10006b1e <stdio_stack_buffer_flush+0x1a>
10006b36:	e7ed      	b.n	10006b14 <stdio_stack_buffer_flush+0x10>
10006b38:	2300      	movs	r3, #0
10006b3a:	602b      	str	r3, [r5, #0]
10006b3c:	bd70      	pop	{r4, r5, r6, pc}
10006b3e:	46c0      	nop			; (mov r8, r8)
10006b40:	200020a8 	.word	0x200020a8
10006b44:	200020b0 	.word	0x200020b0

10006b48 <stdio_buffered_printer>:
10006b48:	b570      	push	{r4, r5, r6, lr}
10006b4a:	0005      	movs	r5, r0
10006b4c:	000c      	movs	r4, r1
10006b4e:	680b      	ldr	r3, [r1, #0]
10006b50:	2b80      	cmp	r3, #128	; 0x80
10006b52:	d005      	beq.n	10006b60 <stdio_buffered_printer+0x18>
10006b54:	6821      	ldr	r1, [r4, #0]
10006b56:	1c4b      	adds	r3, r1, #1
10006b58:	6023      	str	r3, [r4, #0]
10006b5a:	1864      	adds	r4, r4, r1
10006b5c:	7125      	strb	r5, [r4, #4]
10006b5e:	bd70      	pop	{r4, r5, r6, pc}
10006b60:	0008      	movs	r0, r1
10006b62:	f7ff ffcf 	bl	10006b04 <stdio_stack_buffer_flush>
10006b66:	e7f5      	b.n	10006b54 <stdio_buffered_printer+0xc>

10006b68 <stdout_serialize_begin>:
10006b68:	b510      	push	{r4, lr}
10006b6a:	f7fd f8d7 	bl	10003d1c <time_us_64>
10006b6e:	0002      	movs	r2, r0
10006b70:	1e0b      	subs	r3, r1, #0
10006b72:	db0b      	blt.n	10006b8c <stdout_serialize_begin+0x24>
10006b74:	480d      	ldr	r0, [pc, #52]	; (10006bac <stdout_serialize_begin+0x44>)
10006b76:	2100      	movs	r1, #0
10006b78:	1812      	adds	r2, r2, r0
10006b7a:	414b      	adcs	r3, r1
10006b7c:	2b00      	cmp	r3, #0
10006b7e:	db0b      	blt.n	10006b98 <stdout_serialize_begin+0x30>
10006b80:	2b00      	cmp	r3, #0
10006b82:	db0d      	blt.n	10006ba0 <stdout_serialize_begin+0x38>
10006b84:	480a      	ldr	r0, [pc, #40]	; (10006bb0 <stdout_serialize_begin+0x48>)
10006b86:	f002 ff93 	bl	10009ab0 <__mutex_try_enter_block_until_veneer>
10006b8a:	bd10      	pop	{r4, pc}
10006b8c:	4b09      	ldr	r3, [pc, #36]	; (10006bb4 <stdout_serialize_begin+0x4c>)
10006b8e:	4a0a      	ldr	r2, [pc, #40]	; (10006bb8 <stdout_serialize_begin+0x50>)
10006b90:	213f      	movs	r1, #63	; 0x3f
10006b92:	480a      	ldr	r0, [pc, #40]	; (10006bbc <stdout_serialize_begin+0x54>)
10006b94:	f7fd fd96 	bl	100046c4 <__assert_func>
10006b98:	2201      	movs	r2, #1
10006b9a:	4252      	negs	r2, r2
10006b9c:	4b08      	ldr	r3, [pc, #32]	; (10006bc0 <stdout_serialize_begin+0x58>)
10006b9e:	e7ef      	b.n	10006b80 <stdout_serialize_begin+0x18>
10006ba0:	4b04      	ldr	r3, [pc, #16]	; (10006bb4 <stdout_serialize_begin+0x4c>)
10006ba2:	4a05      	ldr	r2, [pc, #20]	; (10006bb8 <stdout_serialize_begin+0x50>)
10006ba4:	213f      	movs	r1, #63	; 0x3f
10006ba6:	4805      	ldr	r0, [pc, #20]	; (10006bbc <stdout_serialize_begin+0x54>)
10006ba8:	f7fd fd8c 	bl	100046c4 <__assert_func>
10006bac:	000f4240 	.word	0x000f4240
10006bb0:	20000ef0 	.word	0x20000ef0
10006bb4:	1000a948 	.word	0x1000a948
10006bb8:	1000b674 	.word	0x1000b674
10006bbc:	1000a964 	.word	0x1000a964
10006bc0:	7fffffff 	.word	0x7fffffff

10006bc4 <stdout_serialize_end>:
10006bc4:	b510      	push	{r4, lr}
10006bc6:	4802      	ldr	r0, [pc, #8]	; (10006bd0 <stdout_serialize_end+0xc>)
10006bc8:	f002 ff3a 	bl	10009a40 <__mutex_exit_veneer>
10006bcc:	bd10      	pop	{r4, pc}
10006bce:	46c0      	nop			; (mov r8, r8)
10006bd0:	20000ef0 	.word	0x20000ef0

10006bd4 <stdio_put_string>:
10006bd4:	b5f0      	push	{r4, r5, r6, r7, lr}
10006bd6:	46ce      	mov	lr, r9
10006bd8:	4647      	mov	r7, r8
10006bda:	b580      	push	{r7, lr}
10006bdc:	b083      	sub	sp, #12
10006bde:	0006      	movs	r6, r0
10006be0:	000d      	movs	r5, r1
10006be2:	4690      	mov	r8, r2
10006be4:	001c      	movs	r4, r3
10006be6:	f7ff ffbf 	bl	10006b68 <stdout_serialize_begin>
10006bea:	4681      	mov	r9, r0
10006bec:	1c6b      	adds	r3, r5, #1
10006bee:	d005      	beq.n	10006bfc <stdio_put_string+0x28>
10006bf0:	2c00      	cmp	r4, #0
10006bf2:	d008      	beq.n	10006c06 <stdio_put_string+0x32>
10006bf4:	4f19      	ldr	r7, [pc, #100]	; (10006c5c <stdio_put_string+0x88>)
10006bf6:	4b1a      	ldr	r3, [pc, #104]	; (10006c60 <stdio_put_string+0x8c>)
10006bf8:	681c      	ldr	r4, [r3, #0]
10006bfa:	e007      	b.n	10006c0c <stdio_put_string+0x38>
10006bfc:	0030      	movs	r0, r6
10006bfe:	f002 fee7 	bl	100099d0 <strlen>
10006c02:	0005      	movs	r5, r0
10006c04:	e7f4      	b.n	10006bf0 <stdio_put_string+0x1c>
10006c06:	4f17      	ldr	r7, [pc, #92]	; (10006c64 <stdio_put_string+0x90>)
10006c08:	e7f5      	b.n	10006bf6 <stdio_put_string+0x22>
10006c0a:	6924      	ldr	r4, [r4, #16]
10006c0c:	2c00      	cmp	r4, #0
10006c0e:	d017      	beq.n	10006c40 <stdio_put_string+0x6c>
10006c10:	6823      	ldr	r3, [r4, #0]
10006c12:	2b00      	cmp	r3, #0
10006c14:	d0f9      	beq.n	10006c0a <stdio_put_string+0x36>
10006c16:	4b14      	ldr	r3, [pc, #80]	; (10006c68 <stdio_put_string+0x94>)
10006c18:	681b      	ldr	r3, [r3, #0]
10006c1a:	2b00      	cmp	r3, #0
10006c1c:	d001      	beq.n	10006c22 <stdio_put_string+0x4e>
10006c1e:	42a3      	cmp	r3, r4
10006c20:	d1f3      	bne.n	10006c0a <stdio_put_string+0x36>
10006c22:	002a      	movs	r2, r5
10006c24:	0031      	movs	r1, r6
10006c26:	0020      	movs	r0, r4
10006c28:	47b8      	blx	r7
10006c2a:	4643      	mov	r3, r8
10006c2c:	2b00      	cmp	r3, #0
10006c2e:	d0ec      	beq.n	10006c0a <stdio_put_string+0x36>
10006c30:	466b      	mov	r3, sp
10006c32:	1dd9      	adds	r1, r3, #7
10006c34:	230a      	movs	r3, #10
10006c36:	700b      	strb	r3, [r1, #0]
10006c38:	2201      	movs	r2, #1
10006c3a:	0020      	movs	r0, r4
10006c3c:	47b8      	blx	r7
10006c3e:	e7e4      	b.n	10006c0a <stdio_put_string+0x36>
10006c40:	464b      	mov	r3, r9
10006c42:	2b00      	cmp	r3, #0
10006c44:	d107      	bne.n	10006c56 <stdio_put_string+0x82>
10006c46:	1e6b      	subs	r3, r5, #1
10006c48:	419d      	sbcs	r5, r3
10006c4a:	b2e8      	uxtb	r0, r5
10006c4c:	b003      	add	sp, #12
10006c4e:	bcc0      	pop	{r6, r7}
10006c50:	46b9      	mov	r9, r7
10006c52:	46b0      	mov	r8, r6
10006c54:	bdf0      	pop	{r4, r5, r6, r7, pc}
10006c56:	f7ff ffb5 	bl	10006bc4 <stdout_serialize_end>
10006c5a:	e7f4      	b.n	10006c46 <stdio_put_string+0x72>
10006c5c:	10006a75 	.word	0x10006a75
10006c60:	200020a8 	.word	0x200020a8
10006c64:	10006a85 	.word	0x10006a85
10006c68:	200020b0 	.word	0x200020b0

10006c6c <__wrap_putchar>:
10006c6c:	b510      	push	{r4, lr}
10006c6e:	b082      	sub	sp, #8
10006c70:	0004      	movs	r4, r0
10006c72:	466b      	mov	r3, sp
10006c74:	1dd8      	adds	r0, r3, #7
10006c76:	7004      	strb	r4, [r0, #0]
10006c78:	2300      	movs	r3, #0
10006c7a:	2200      	movs	r2, #0
10006c7c:	2101      	movs	r1, #1
10006c7e:	f7ff ffa9 	bl	10006bd4 <stdio_put_string>
10006c82:	0020      	movs	r0, r4
10006c84:	b002      	add	sp, #8
10006c86:	bd10      	pop	{r4, pc}

10006c88 <stdio_flush>:
10006c88:	b510      	push	{r4, lr}
10006c8a:	4b06      	ldr	r3, [pc, #24]	; (10006ca4 <stdio_flush+0x1c>)
10006c8c:	681c      	ldr	r4, [r3, #0]
10006c8e:	e001      	b.n	10006c94 <stdio_flush+0xc>
10006c90:	4798      	blx	r3
10006c92:	6924      	ldr	r4, [r4, #16]
10006c94:	2c00      	cmp	r4, #0
10006c96:	d003      	beq.n	10006ca0 <stdio_flush+0x18>
10006c98:	6863      	ldr	r3, [r4, #4]
10006c9a:	2b00      	cmp	r3, #0
10006c9c:	d1f8      	bne.n	10006c90 <stdio_flush+0x8>
10006c9e:	e7f8      	b.n	10006c92 <stdio_flush+0xa>
10006ca0:	bd10      	pop	{r4, pc}
10006ca2:	46c0      	nop			; (mov r8, r8)
10006ca4:	200020a8 	.word	0x200020a8

10006ca8 <__wrap_puts>:
10006ca8:	b570      	push	{r4, r5, r6, lr}
10006caa:	0005      	movs	r5, r0
10006cac:	f002 fe90 	bl	100099d0 <strlen>
10006cb0:	0004      	movs	r4, r0
10006cb2:	2300      	movs	r3, #0
10006cb4:	2201      	movs	r2, #1
10006cb6:	0001      	movs	r1, r0
10006cb8:	0028      	movs	r0, r5
10006cba:	f7ff ff8b 	bl	10006bd4 <stdio_put_string>
10006cbe:	f7ff ffe3 	bl	10006c88 <stdio_flush>
10006cc2:	0020      	movs	r0, r4
10006cc4:	bd70      	pop	{r4, r5, r6, pc}
	...

10006cc8 <__wrap_vprintf>:
10006cc8:	b570      	push	{r4, r5, r6, lr}
10006cca:	b0a2      	sub	sp, #136	; 0x88
10006ccc:	0004      	movs	r4, r0
10006cce:	000e      	movs	r6, r1
10006cd0:	f7ff ff4a 	bl	10006b68 <stdout_serialize_begin>
10006cd4:	0005      	movs	r5, r0
10006cd6:	2300      	movs	r3, #0
10006cd8:	9301      	str	r3, [sp, #4]
10006cda:	0033      	movs	r3, r6
10006cdc:	0022      	movs	r2, r4
10006cde:	a901      	add	r1, sp, #4
10006ce0:	4808      	ldr	r0, [pc, #32]	; (10006d04 <__wrap_vprintf+0x3c>)
10006ce2:	f7fe fe31 	bl	10005948 <vfctprintf>
10006ce6:	0004      	movs	r4, r0
10006ce8:	a801      	add	r0, sp, #4
10006cea:	f7ff ff0b 	bl	10006b04 <stdio_stack_buffer_flush>
10006cee:	f7ff ffcb 	bl	10006c88 <stdio_flush>
10006cf2:	2d00      	cmp	r5, #0
10006cf4:	d102      	bne.n	10006cfc <__wrap_vprintf+0x34>
10006cf6:	0020      	movs	r0, r4
10006cf8:	b022      	add	sp, #136	; 0x88
10006cfa:	bd70      	pop	{r4, r5, r6, pc}
10006cfc:	f7ff ff62 	bl	10006bc4 <stdout_serialize_end>
10006d00:	e7f9      	b.n	10006cf6 <__wrap_vprintf+0x2e>
10006d02:	46c0      	nop			; (mov r8, r8)
10006d04:	10006b49 	.word	0x10006b49

10006d08 <__wrap_printf>:
10006d08:	b40f      	push	{r0, r1, r2, r3}
10006d0a:	b500      	push	{lr}
10006d0c:	b083      	sub	sp, #12
10006d0e:	a904      	add	r1, sp, #16
10006d10:	c901      	ldmia	r1!, {r0}
10006d12:	9101      	str	r1, [sp, #4]
10006d14:	f7ff ffd8 	bl	10006cc8 <__wrap_vprintf>
10006d18:	b003      	add	sp, #12
10006d1a:	bc08      	pop	{r3}
10006d1c:	b004      	add	sp, #16
10006d1e:	4718      	bx	r3

10006d20 <stdio_init_all>:
10006d20:	2000      	movs	r0, #0
10006d22:	4770      	bx	lr

10006d24 <splitmix64>:
10006d24:	b510      	push	{r4, lr}
10006d26:	4a10      	ldr	r2, [pc, #64]	; (10006d68 <splitmix64+0x44>)
10006d28:	4b10      	ldr	r3, [pc, #64]	; (10006d6c <splitmix64+0x48>)
10006d2a:	1812      	adds	r2, r2, r0
10006d2c:	414b      	adcs	r3, r1
10006d2e:	0099      	lsls	r1, r3, #2
10006d30:	0f90      	lsrs	r0, r2, #30
10006d32:	4308      	orrs	r0, r1
10006d34:	0f99      	lsrs	r1, r3, #30
10006d36:	4050      	eors	r0, r2
10006d38:	4059      	eors	r1, r3
10006d3a:	4a0d      	ldr	r2, [pc, #52]	; (10006d70 <splitmix64+0x4c>)
10006d3c:	4b0d      	ldr	r3, [pc, #52]	; (10006d74 <splitmix64+0x50>)
10006d3e:	f7ff fce5 	bl	1000670c <__wrap___aeabi_lmul>
10006d42:	0003      	movs	r3, r0
10006d44:	014a      	lsls	r2, r1, #5
10006d46:	0ec0      	lsrs	r0, r0, #27
10006d48:	4310      	orrs	r0, r2
10006d4a:	0eca      	lsrs	r2, r1, #27
10006d4c:	4058      	eors	r0, r3
10006d4e:	4051      	eors	r1, r2
10006d50:	4a09      	ldr	r2, [pc, #36]	; (10006d78 <splitmix64+0x54>)
10006d52:	4b0a      	ldr	r3, [pc, #40]	; (10006d7c <splitmix64+0x58>)
10006d54:	f7ff fcda 	bl	1000670c <__wrap___aeabi_lmul>
10006d58:	0003      	movs	r3, r0
10006d5a:	004a      	lsls	r2, r1, #1
10006d5c:	0fc0      	lsrs	r0, r0, #31
10006d5e:	4310      	orrs	r0, r2
10006d60:	0fca      	lsrs	r2, r1, #31
10006d62:	4058      	eors	r0, r3
10006d64:	4051      	eors	r1, r2
10006d66:	bd10      	pop	{r4, pc}
10006d68:	7f4a7c15 	.word	0x7f4a7c15
10006d6c:	9e3779b9 	.word	0x9e3779b9
10006d70:	1ce4e5b9 	.word	0x1ce4e5b9
10006d74:	bf58476d 	.word	0xbf58476d
10006d78:	133111eb 	.word	0x133111eb
10006d7c:	94d049bb 	.word	0x94d049bb

10006d80 <sdbm_hash64_sram>:
10006d80:	b5f0      	push	{r4, r5, r6, r7, lr}
10006d82:	46c6      	mov	lr, r8
10006d84:	b500      	push	{lr}
10006d86:	b084      	sub	sp, #16
10006d88:	0002      	movs	r2, r0
10006d8a:	000b      	movs	r3, r1
10006d8c:	4913      	ldr	r1, [pc, #76]	; (10006ddc <sdbm_hash64_sram+0x5c>)
10006d8e:	468c      	mov	ip, r1
10006d90:	e01b      	b.n	10006dca <sdbm_hash64_sram+0x4a>
10006d92:	4661      	mov	r1, ip
10006d94:	c901      	ldmia	r1!, {r0}
10006d96:	9000      	str	r0, [sp, #0]
10006d98:	468c      	mov	ip, r1
10006d9a:	2100      	movs	r1, #0
10006d9c:	9101      	str	r1, [sp, #4]
10006d9e:	0e91      	lsrs	r1, r2, #26
10006da0:	019f      	lsls	r7, r3, #6
10006da2:	430f      	orrs	r7, r1
10006da4:	0196      	lsls	r6, r2, #6
10006da6:	9800      	ldr	r0, [sp, #0]
10006da8:	9901      	ldr	r1, [sp, #4]
10006daa:	1980      	adds	r0, r0, r6
10006dac:	4179      	adcs	r1, r7
10006dae:	9002      	str	r0, [sp, #8]
10006db0:	9103      	str	r1, [sp, #12]
10006db2:	0c11      	lsrs	r1, r2, #16
10006db4:	041d      	lsls	r5, r3, #16
10006db6:	430d      	orrs	r5, r1
10006db8:	0414      	lsls	r4, r2, #16
10006dba:	9802      	ldr	r0, [sp, #8]
10006dbc:	9903      	ldr	r1, [sp, #12]
10006dbe:	1900      	adds	r0, r0, r4
10006dc0:	4169      	adcs	r1, r5
10006dc2:	1a80      	subs	r0, r0, r2
10006dc4:	4199      	sbcs	r1, r3
10006dc6:	0002      	movs	r2, r0
10006dc8:	000b      	movs	r3, r1
10006dca:	4905      	ldr	r1, [pc, #20]	; (10006de0 <sdbm_hash64_sram+0x60>)
10006dcc:	458c      	cmp	ip, r1
10006dce:	d9e0      	bls.n	10006d92 <sdbm_hash64_sram+0x12>
10006dd0:	0010      	movs	r0, r2
10006dd2:	0019      	movs	r1, r3
10006dd4:	b004      	add	sp, #16
10006dd6:	bc80      	pop	{r7}
10006dd8:	46b8      	mov	r8, r7
10006dda:	bdf0      	pop	{r4, r5, r6, r7, pc}
10006ddc:	20041c00 	.word	0x20041c00
10006de0:	20041fff 	.word	0x20041fff

10006de4 <xoroshiro128ss>:
10006de4:	b5f0      	push	{r4, r5, r6, r7, lr}
10006de6:	46ce      	mov	lr, r9
10006de8:	4647      	mov	r7, r8
10006dea:	b580      	push	{r7, lr}
10006dec:	b083      	sub	sp, #12
10006dee:	4680      	mov	r8, r0
10006df0:	6803      	ldr	r3, [r0, #0]
10006df2:	6844      	ldr	r4, [r0, #4]
10006df4:	9300      	str	r3, [sp, #0]
10006df6:	9401      	str	r4, [sp, #4]
10006df8:	0003      	movs	r3, r0
10006dfa:	6880      	ldr	r0, [r0, #8]
10006dfc:	68d9      	ldr	r1, [r3, #12]
10006dfe:	e001      	b.n	10006e04 <xoroshiro128ss+0x20>
10006e00:	f7fc ff8c 	bl	10003d1c <time_us_64>
10006e04:	9c00      	ldr	r4, [sp, #0]
10006e06:	9d01      	ldr	r5, [sp, #4]
10006e08:	0023      	movs	r3, r4
10006e0a:	432b      	orrs	r3, r5
10006e0c:	d102      	bne.n	10006e14 <xoroshiro128ss+0x30>
10006e0e:	0003      	movs	r3, r0
10006e10:	430b      	orrs	r3, r1
10006e12:	d0f5      	beq.n	10006e00 <xoroshiro128ss+0x1c>
10006e14:	9c00      	ldr	r4, [sp, #0]
10006e16:	9d01      	ldr	r5, [sp, #4]
10006e18:	0fa6      	lsrs	r6, r4, #30
10006e1a:	00ab      	lsls	r3, r5, #2
10006e1c:	4333      	orrs	r3, r6
10006e1e:	00a2      	lsls	r2, r4, #2
10006e20:	002e      	movs	r6, r5
10006e22:	0025      	movs	r5, r4
10006e24:	18ad      	adds	r5, r5, r2
10006e26:	415e      	adcs	r6, r3
10006e28:	0e6b      	lsrs	r3, r5, #25
10006e2a:	4699      	mov	r9, r3
10006e2c:	01f3      	lsls	r3, r6, #7
10006e2e:	469c      	mov	ip, r3
10006e30:	464b      	mov	r3, r9
10006e32:	4662      	mov	r2, ip
10006e34:	4313      	orrs	r3, r2
10006e36:	001f      	movs	r7, r3
10006e38:	0e73      	lsrs	r3, r6, #25
10006e3a:	01ea      	lsls	r2, r5, #7
10006e3c:	4313      	orrs	r3, r2
10006e3e:	001e      	movs	r6, r3
10006e40:	0f5b      	lsrs	r3, r3, #29
10006e42:	469c      	mov	ip, r3
10006e44:	00fb      	lsls	r3, r7, #3
10006e46:	4664      	mov	r4, ip
10006e48:	4323      	orrs	r3, r4
10006e4a:	00f2      	lsls	r2, r6, #3
10006e4c:	1992      	adds	r2, r2, r6
10006e4e:	417b      	adcs	r3, r7
10006e50:	9c00      	ldr	r4, [sp, #0]
10006e52:	9d01      	ldr	r5, [sp, #4]
10006e54:	4060      	eors	r0, r4
10006e56:	4069      	eors	r1, r5
10006e58:	0a26      	lsrs	r6, r4, #8
10006e5a:	062f      	lsls	r7, r5, #24
10006e5c:	433e      	orrs	r6, r7
10006e5e:	0a2d      	lsrs	r5, r5, #8
10006e60:	9c00      	ldr	r4, [sp, #0]
10006e62:	0624      	lsls	r4, r4, #24
10006e64:	432c      	orrs	r4, r5
10006e66:	4044      	eors	r4, r0
10006e68:	0035      	movs	r5, r6
10006e6a:	404d      	eors	r5, r1
10006e6c:	0c07      	lsrs	r7, r0, #16
10006e6e:	040e      	lsls	r6, r1, #16
10006e70:	433e      	orrs	r6, r7
10006e72:	0407      	lsls	r7, r0, #16
10006e74:	407c      	eors	r4, r7
10006e76:	4075      	eors	r5, r6
10006e78:	4646      	mov	r6, r8
10006e7a:	6034      	str	r4, [r6, #0]
10006e7c:	6075      	str	r5, [r6, #4]
10006e7e:	014c      	lsls	r4, r1, #5
10006e80:	0ec5      	lsrs	r5, r0, #27
10006e82:	432c      	orrs	r4, r5
10006e84:	0140      	lsls	r0, r0, #5
10006e86:	0ec9      	lsrs	r1, r1, #27
10006e88:	4308      	orrs	r0, r1
10006e8a:	60b4      	str	r4, [r6, #8]
10006e8c:	60f0      	str	r0, [r6, #12]
10006e8e:	0010      	movs	r0, r2
10006e90:	0019      	movs	r1, r3
10006e92:	b003      	add	sp, #12
10006e94:	bcc0      	pop	{r6, r7}
10006e96:	46b9      	mov	r9, r7
10006e98:	46b0      	mov	r8, r6
10006e9a:	bdf0      	pop	{r4, r5, r6, r7, pc}

10006e9c <capture_additional_rosc_samples>:
10006e9c:	b5f0      	push	{r4, r5, r6, r7, lr}
10006e9e:	46de      	mov	lr, fp
10006ea0:	4657      	mov	r7, sl
10006ea2:	464e      	mov	r6, r9
10006ea4:	4645      	mov	r5, r8
10006ea6:	b5e0      	push	{r5, r6, r7, lr}
10006ea8:	b083      	sub	sp, #12
10006eaa:	9001      	str	r0, [sp, #4]
10006eac:	4b57      	ldr	r3, [pc, #348]	; (1000700c <capture_additional_rosc_samples+0x170>)
10006eae:	699b      	ldr	r3, [r3, #24]
10006eb0:	04db      	lsls	r3, r3, #19
10006eb2:	d510      	bpl.n	10006ed6 <capture_additional_rosc_samples+0x3a>
10006eb4:	4b56      	ldr	r3, [pc, #344]	; (10007010 <capture_additional_rosc_samples+0x174>)
10006eb6:	6bda      	ldr	r2, [r3, #60]	; 0x3c
10006eb8:	23e0      	movs	r3, #224	; 0xe0
10006eba:	4013      	ands	r3, r2
10006ebc:	2b40      	cmp	r3, #64	; 0x40
10006ebe:	d00a      	beq.n	10006ed6 <capture_additional_rosc_samples+0x3a>
10006ec0:	f3ef 8305 	mrs	r3, IPSR
10006ec4:	4698      	mov	r8, r3
10006ec6:	9b01      	ldr	r3, [sp, #4]
10006ec8:	2b00      	cmp	r3, #0
10006eca:	d00a      	beq.n	10006ee2 <capture_additional_rosc_samples+0x46>
10006ecc:	2300      	movs	r3, #0
10006ece:	4699      	mov	r9, r3
10006ed0:	2400      	movs	r4, #0
10006ed2:	2500      	movs	r5, #0
10006ed4:	e08a      	b.n	10006fec <capture_additional_rosc_samples+0x150>
10006ed6:	4b4f      	ldr	r3, [pc, #316]	; (10007014 <capture_additional_rosc_samples+0x178>)
10006ed8:	4a4f      	ldr	r2, [pc, #316]	; (10007018 <capture_additional_rosc_samples+0x17c>)
10006eda:	2181      	movs	r1, #129	; 0x81
10006edc:	484f      	ldr	r0, [pc, #316]	; (1000701c <capture_additional_rosc_samples+0x180>)
10006ede:	f7fd fbf1 	bl	100046c4 <__assert_func>
10006ee2:	4b4f      	ldr	r3, [pc, #316]	; (10007020 <capture_additional_rosc_samples+0x184>)
10006ee4:	4a4c      	ldr	r2, [pc, #304]	; (10007018 <capture_additional_rosc_samples+0x17c>)
10006ee6:	2186      	movs	r1, #134	; 0x86
10006ee8:	484c      	ldr	r0, [pc, #304]	; (1000701c <capture_additional_rosc_samples+0x180>)
10006eea:	f7fd fbeb 	bl	100046c4 <__assert_func>
10006eee:	4b4d      	ldr	r3, [pc, #308]	; (10007024 <capture_additional_rosc_samples+0x188>)
10006ef0:	6818      	ldr	r0, [r3, #0]
10006ef2:	6859      	ldr	r1, [r3, #4]
10006ef4:	f7fc fdbe 	bl	10003a74 <sleep_until>
10006ef8:	f3ef 8610 	mrs	r6, PRIMASK
10006efc:	b672      	cpsid	i
10006efe:	4b4a      	ldr	r3, [pc, #296]	; (10007028 <capture_additional_rosc_samples+0x18c>)
10006f00:	681b      	ldr	r3, [r3, #0]
10006f02:	2b00      	cmp	r3, #0
10006f04:	d0fb      	beq.n	10006efe <capture_additional_rosc_samples+0x62>
10006f06:	f3bf 8f5f 	dmb	sy
10006f0a:	4b46      	ldr	r3, [pc, #280]	; (10007024 <capture_additional_rosc_samples+0x188>)
10006f0c:	6819      	ldr	r1, [r3, #0]
10006f0e:	685a      	ldr	r2, [r3, #4]
10006f10:	458a      	cmp	sl, r1
10006f12:	d016      	beq.n	10006f42 <capture_additional_rosc_samples+0xa6>
10006f14:	f3bf 8f5f 	dmb	sy
10006f18:	4b43      	ldr	r3, [pc, #268]	; (10007028 <capture_additional_rosc_samples+0x18c>)
10006f1a:	2200      	movs	r2, #0
10006f1c:	601a      	str	r2, [r3, #0]
10006f1e:	f386 8810 	msr	PRIMASK, r6
10006f22:	465b      	mov	r3, fp
10006f24:	2b00      	cmp	r3, #0
10006f26:	d15e      	bne.n	10006fe6 <capture_additional_rosc_samples+0x14a>
10006f28:	4b3e      	ldr	r3, [pc, #248]	; (10007024 <capture_additional_rosc_samples+0x188>)
10006f2a:	681a      	ldr	r2, [r3, #0]
10006f2c:	4692      	mov	sl, r2
10006f2e:	685f      	ldr	r7, [r3, #4]
10006f30:	4643      	mov	r3, r8
10006f32:	2b00      	cmp	r3, #0
10006f34:	d0db      	beq.n	10006eee <capture_additional_rosc_samples+0x52>
10006f36:	4b3b      	ldr	r3, [pc, #236]	; (10007024 <capture_additional_rosc_samples+0x188>)
10006f38:	6818      	ldr	r0, [r3, #0]
10006f3a:	6859      	ldr	r1, [r3, #4]
10006f3c:	f7fc fefa 	bl	10003d34 <busy_wait_until>
10006f40:	e7da      	b.n	10006ef8 <capture_additional_rosc_samples+0x5c>
10006f42:	42ba      	cmp	r2, r7
10006f44:	d1e6      	bne.n	10006f14 <capture_additional_rosc_samples+0x78>
10006f46:	0020      	movs	r0, r4
10006f48:	0029      	movs	r1, r5
10006f4a:	1900      	adds	r0, r0, r4
10006f4c:	4169      	adcs	r1, r5
10006f4e:	4b2f      	ldr	r3, [pc, #188]	; (1000700c <capture_additional_rosc_samples+0x170>)
10006f50:	69da      	ldr	r2, [r3, #28]
10006f52:	2301      	movs	r3, #1
10006f54:	4013      	ands	r3, r2
10006f56:	4303      	orrs	r3, r0
10006f58:	001c      	movs	r4, r3
10006f5a:	000d      	movs	r5, r1
10006f5c:	f7fc fede 	bl	10003d1c <time_us_64>
10006f60:	0002      	movs	r2, r0
10006f62:	1e0b      	subs	r3, r1, #0
10006f64:	db23      	blt.n	10006fae <capture_additional_rosc_samples+0x112>
10006f66:	200a      	movs	r0, #10
10006f68:	2100      	movs	r1, #0
10006f6a:	1812      	adds	r2, r2, r0
10006f6c:	414b      	adcs	r3, r1
10006f6e:	2b00      	cmp	r3, #0
10006f70:	db23      	blt.n	10006fba <capture_additional_rosc_samples+0x11e>
10006f72:	2b00      	cmp	r3, #0
10006f74:	db25      	blt.n	10006fc2 <capture_additional_rosc_samples+0x126>
10006f76:	492b      	ldr	r1, [pc, #172]	; (10007024 <capture_additional_rosc_samples+0x188>)
10006f78:	600a      	str	r2, [r1, #0]
10006f7a:	604b      	str	r3, [r1, #4]
10006f7c:	9901      	ldr	r1, [sp, #4]
10006f7e:	1e4b      	subs	r3, r1, #1
10006f80:	454b      	cmp	r3, r9
10006f82:	d12d      	bne.n	10006fe0 <capture_additional_rosc_samples+0x144>
10006f84:	4a29      	ldr	r2, [pc, #164]	; (1000702c <capture_additional_rosc_samples+0x190>)
10006f86:	2320      	movs	r3, #32
10006f88:	425b      	negs	r3, r3
10006f8a:	18cb      	adds	r3, r1, r3
10006f8c:	d41f      	bmi.n	10006fce <capture_additional_rosc_samples+0x132>
10006f8e:	6811      	ldr	r1, [r2, #0]
10006f90:	4099      	lsls	r1, r3
10006f92:	000b      	movs	r3, r1
10006f94:	6812      	ldr	r2, [r2, #0]
10006f96:	9901      	ldr	r1, [sp, #4]
10006f98:	408a      	lsls	r2, r1
10006f9a:	4322      	orrs	r2, r4
10006f9c:	432b      	orrs	r3, r5
10006f9e:	0014      	movs	r4, r2
10006fa0:	001d      	movs	r5, r3
10006fa2:	4b22      	ldr	r3, [pc, #136]	; (1000702c <capture_additional_rosc_samples+0x190>)
10006fa4:	601c      	str	r4, [r3, #0]
10006fa6:	605d      	str	r5, [r3, #4]
10006fa8:	2301      	movs	r3, #1
10006faa:	469b      	mov	fp, r3
10006fac:	e7b2      	b.n	10006f14 <capture_additional_rosc_samples+0x78>
10006fae:	4b20      	ldr	r3, [pc, #128]	; (10007030 <capture_additional_rosc_samples+0x194>)
10006fb0:	4a20      	ldr	r2, [pc, #128]	; (10007034 <capture_additional_rosc_samples+0x198>)
10006fb2:	213f      	movs	r1, #63	; 0x3f
10006fb4:	4820      	ldr	r0, [pc, #128]	; (10007038 <capture_additional_rosc_samples+0x19c>)
10006fb6:	f7fd fb85 	bl	100046c4 <__assert_func>
10006fba:	2201      	movs	r2, #1
10006fbc:	4252      	negs	r2, r2
10006fbe:	4b1f      	ldr	r3, [pc, #124]	; (1000703c <capture_additional_rosc_samples+0x1a0>)
10006fc0:	e7d7      	b.n	10006f72 <capture_additional_rosc_samples+0xd6>
10006fc2:	4b1b      	ldr	r3, [pc, #108]	; (10007030 <capture_additional_rosc_samples+0x194>)
10006fc4:	4a1b      	ldr	r2, [pc, #108]	; (10007034 <capture_additional_rosc_samples+0x198>)
10006fc6:	213f      	movs	r1, #63	; 0x3f
10006fc8:	481b      	ldr	r0, [pc, #108]	; (10007038 <capture_additional_rosc_samples+0x19c>)
10006fca:	f7fd fb7b 	bl	100046c4 <__assert_func>
10006fce:	2320      	movs	r3, #32
10006fd0:	9801      	ldr	r0, [sp, #4]
10006fd2:	1a1b      	subs	r3, r3, r0
10006fd4:	6811      	ldr	r1, [r2, #0]
10006fd6:	40d9      	lsrs	r1, r3
10006fd8:	6853      	ldr	r3, [r2, #4]
10006fda:	4083      	lsls	r3, r0
10006fdc:	430b      	orrs	r3, r1
10006fde:	e7d9      	b.n	10006f94 <capture_additional_rosc_samples+0xf8>
10006fe0:	2301      	movs	r3, #1
10006fe2:	469b      	mov	fp, r3
10006fe4:	e796      	b.n	10006f14 <capture_additional_rosc_samples+0x78>
10006fe6:	2301      	movs	r3, #1
10006fe8:	469c      	mov	ip, r3
10006fea:	44e1      	add	r9, ip
10006fec:	9b01      	ldr	r3, [sp, #4]
10006fee:	4599      	cmp	r9, r3
10006ff0:	d202      	bcs.n	10006ff8 <capture_additional_rosc_samples+0x15c>
10006ff2:	2300      	movs	r3, #0
10006ff4:	469b      	mov	fp, r3
10006ff6:	e797      	b.n	10006f28 <capture_additional_rosc_samples+0x8c>
10006ff8:	0020      	movs	r0, r4
10006ffa:	0029      	movs	r1, r5
10006ffc:	b003      	add	sp, #12
10006ffe:	bcf0      	pop	{r4, r5, r6, r7}
10007000:	46bb      	mov	fp, r7
10007002:	46b2      	mov	sl, r6
10007004:	46a9      	mov	r9, r5
10007006:	46a0      	mov	r8, r4
10007008:	bdf0      	pop	{r4, r5, r6, r7, pc}
1000700a:	46c0      	nop			; (mov r8, r8)
1000700c:	40060000 	.word	0x40060000
10007010:	40008000 	.word	0x40008000
10007014:	1000b690 	.word	0x1000b690
10007018:	1000b7d4 	.word	0x1000b7d4
1000701c:	1000b758 	.word	0x1000b758
10007020:	1000a834 	.word	0x1000a834
10007024:	20001030 	.word	0x20001030
10007028:	d0000130 	.word	0xd0000130
1000702c:	20000f28 	.word	0x20000f28
10007030:	1000a948 	.word	0x1000a948
10007034:	1000b7bc 	.word	0x1000b7bc
10007038:	1000a964 	.word	0x1000a964
1000703c:	7fffffff 	.word	0x7fffffff

10007040 <initialise_rand>:
10007040:	b510      	push	{r4, lr}
10007042:	b088      	sub	sp, #32
10007044:	4c3b      	ldr	r4, [pc, #236]	; (10007134 <initialise_rand+0xf4>)
10007046:	6820      	ldr	r0, [r4, #0]
10007048:	6861      	ldr	r1, [r4, #4]
1000704a:	f7ff fe99 	bl	10006d80 <sdbm_hash64_sram>
1000704e:	6020      	str	r0, [r4, #0]
10007050:	6061      	str	r1, [r4, #4]
10007052:	f7ff fe67 	bl	10006d24 <splitmix64>
10007056:	9b04      	ldr	r3, [sp, #16]
10007058:	4058      	eors	r0, r3
1000705a:	9b05      	ldr	r3, [sp, #20]
1000705c:	9301      	str	r3, [sp, #4]
1000705e:	4059      	eors	r1, r3
10007060:	9004      	str	r0, [sp, #16]
10007062:	9105      	str	r1, [sp, #20]
10007064:	a802      	add	r0, sp, #8
10007066:	f000 f911 	bl	1000728c <pico_get_unique_board_id>
1000706a:	9802      	ldr	r0, [sp, #8]
1000706c:	9903      	ldr	r1, [sp, #12]
1000706e:	f7ff fe59 	bl	10006d24 <splitmix64>
10007072:	9b06      	ldr	r3, [sp, #24]
10007074:	9301      	str	r3, [sp, #4]
10007076:	4058      	eors	r0, r3
10007078:	9b07      	ldr	r3, [sp, #28]
1000707a:	9301      	str	r3, [sp, #4]
1000707c:	4059      	eors	r1, r3
1000707e:	9006      	str	r0, [sp, #24]
10007080:	9107      	str	r1, [sp, #28]
10007082:	2040      	movs	r0, #64	; 0x40
10007084:	f7ff ff0a 	bl	10006e9c <capture_additional_rosc_samples>
10007088:	f7ff fe4c 	bl	10006d24 <splitmix64>
1000708c:	9b04      	ldr	r3, [sp, #16]
1000708e:	4058      	eors	r0, r3
10007090:	9b05      	ldr	r3, [sp, #20]
10007092:	9301      	str	r3, [sp, #4]
10007094:	4059      	eors	r1, r3
10007096:	9004      	str	r0, [sp, #16]
10007098:	9105      	str	r1, [sp, #20]
1000709a:	f7fc fe3f 	bl	10003d1c <time_us_64>
1000709e:	f7ff fe41 	bl	10006d24 <splitmix64>
100070a2:	9b06      	ldr	r3, [sp, #24]
100070a4:	9301      	str	r3, [sp, #4]
100070a6:	4058      	eors	r0, r3
100070a8:	9b07      	ldr	r3, [sp, #28]
100070aa:	9301      	str	r3, [sp, #4]
100070ac:	4059      	eors	r1, r3
100070ae:	9006      	str	r0, [sp, #24]
100070b0:	9107      	str	r1, [sp, #28]
100070b2:	f3ef 8410 	mrs	r4, PRIMASK
100070b6:	b672      	cpsid	i
100070b8:	4b1f      	ldr	r3, [pc, #124]	; (10007138 <initialise_rand+0xf8>)
100070ba:	681b      	ldr	r3, [r3, #0]
100070bc:	2b00      	cmp	r3, #0
100070be:	d0fb      	beq.n	100070b8 <initialise_rand+0x78>
100070c0:	f3bf 8f5f 	dmb	sy
100070c4:	4b1d      	ldr	r3, [pc, #116]	; (1000713c <initialise_rand+0xfc>)
100070c6:	781b      	ldrb	r3, [r3, #0]
100070c8:	2b00      	cmp	r3, #0
100070ca:	d124      	bne.n	10007116 <initialise_rand+0xd6>
100070cc:	2b03      	cmp	r3, #3
100070ce:	d809      	bhi.n	100070e4 <initialise_rand+0xa4>
100070d0:	1c5a      	adds	r2, r3, #1
100070d2:	00d2      	lsls	r2, r2, #3
100070d4:	491a      	ldr	r1, [pc, #104]	; (10007140 <initialise_rand+0x100>)
100070d6:	468c      	mov	ip, r1
100070d8:	4462      	add	r2, ip
100070da:	6852      	ldr	r2, [r2, #4]
100070dc:	2a1f      	cmp	r2, #31
100070de:	d003      	beq.n	100070e8 <initialise_rand+0xa8>
100070e0:	3301      	adds	r3, #1
100070e2:	e7f3      	b.n	100070cc <initialise_rand+0x8c>
100070e4:	2301      	movs	r3, #1
100070e6:	425b      	negs	r3, r3
100070e8:	1c5a      	adds	r2, r3, #1
100070ea:	d01d      	beq.n	10007128 <initialise_rand+0xe8>
100070ec:	b2db      	uxtb	r3, r3
100070ee:	4a15      	ldr	r2, [pc, #84]	; (10007144 <initialise_rand+0x104>)
100070f0:	7013      	strb	r3, [r2, #0]
100070f2:	3301      	adds	r3, #1
100070f4:	00db      	lsls	r3, r3, #3
100070f6:	4a12      	ldr	r2, [pc, #72]	; (10007140 <initialise_rand+0x100>)
100070f8:	4694      	mov	ip, r2
100070fa:	4463      	add	r3, ip
100070fc:	2205      	movs	r2, #5
100070fe:	605a      	str	r2, [r3, #4]
10007100:	a804      	add	r0, sp, #16
10007102:	f7ff fe6f 	bl	10006de4 <xoroshiro128ss>
10007106:	2210      	movs	r2, #16
10007108:	a904      	add	r1, sp, #16
1000710a:	480f      	ldr	r0, [pc, #60]	; (10007148 <initialise_rand+0x108>)
1000710c:	f7ff fcac 	bl	10006a68 <__wrap___aeabi_memcpy>
10007110:	4b0a      	ldr	r3, [pc, #40]	; (1000713c <initialise_rand+0xfc>)
10007112:	2201      	movs	r2, #1
10007114:	701a      	strb	r2, [r3, #0]
10007116:	f3bf 8f5f 	dmb	sy
1000711a:	4b07      	ldr	r3, [pc, #28]	; (10007138 <initialise_rand+0xf8>)
1000711c:	2200      	movs	r2, #0
1000711e:	601a      	str	r2, [r3, #0]
10007120:	f384 8810 	msr	PRIMASK, r4
10007124:	b008      	add	sp, #32
10007126:	bd10      	pop	{r4, pc}
10007128:	4b08      	ldr	r3, [pc, #32]	; (1000714c <initialise_rand+0x10c>)
1000712a:	4a09      	ldr	r2, [pc, #36]	; (10007150 <initialise_rand+0x110>)
1000712c:	21e9      	movs	r1, #233	; 0xe9
1000712e:	4809      	ldr	r0, [pc, #36]	; (10007154 <initialise_rand+0x114>)
10007130:	f7fd fac8 	bl	100046c4 <__assert_func>
10007134:	20000f10 	.word	0x20000f10
10007138:	d0000130 	.word	0xd0000130
1000713c:	2000273a 	.word	0x2000273a
10007140:	40030000 	.word	0x40030000
10007144:	20002736 	.word	0x20002736
10007148:	20000f18 	.word	0x20000f18
1000714c:	1000b7b0 	.word	0x1000b7b0
10007150:	1000b7f4 	.word	0x1000b7f4
10007154:	1000b758 	.word	0x1000b758

10007158 <get_rand_64>:
10007158:	b570      	push	{r4, r5, r6, lr}
1000715a:	b086      	sub	sp, #24
1000715c:	4b3e      	ldr	r3, [pc, #248]	; (10007258 <get_rand_64+0x100>)
1000715e:	781b      	ldrb	r3, [r3, #0]
10007160:	2b00      	cmp	r3, #0
10007162:	d100      	bne.n	10007166 <get_rand_64+0xe>
10007164:	e06e      	b.n	10007244 <get_rand_64+0xec>
10007166:	2210      	movs	r2, #16
10007168:	493c      	ldr	r1, [pc, #240]	; (1000725c <get_rand_64+0x104>)
1000716a:	a802      	add	r0, sp, #8
1000716c:	f7ff fc7c 	bl	10006a68 <__wrap___aeabi_memcpy>
10007170:	4b3b      	ldr	r3, [pc, #236]	; (10007260 <get_rand_64+0x108>)
10007172:	781c      	ldrb	r4, [r3, #0]
10007174:	b2e4      	uxtb	r4, r4
10007176:	f7fc fdd1 	bl	10003d1c <time_us_64>
1000717a:	f7ff fdd3 	bl	10006d24 <splitmix64>
1000717e:	9b02      	ldr	r3, [sp, #8]
10007180:	4058      	eors	r0, r3
10007182:	9b03      	ldr	r3, [sp, #12]
10007184:	9301      	str	r3, [sp, #4]
10007186:	4059      	eors	r1, r3
10007188:	9002      	str	r0, [sp, #8]
1000718a:	9103      	str	r1, [sp, #12]
1000718c:	2001      	movs	r0, #1
1000718e:	f7ff fe85 	bl	10006e9c <capture_additional_rosc_samples>
10007192:	f7ff fdc7 	bl	10006d24 <splitmix64>
10007196:	9b04      	ldr	r3, [sp, #16]
10007198:	9301      	str	r3, [sp, #4]
1000719a:	4058      	eors	r0, r3
1000719c:	9b05      	ldr	r3, [sp, #20]
1000719e:	9301      	str	r3, [sp, #4]
100071a0:	4059      	eors	r1, r3
100071a2:	9004      	str	r0, [sp, #16]
100071a4:	9105      	str	r1, [sp, #20]
100071a6:	4b2f      	ldr	r3, [pc, #188]	; (10007264 <get_rand_64+0x10c>)
100071a8:	781a      	ldrb	r2, [r3, #0]
100071aa:	1c53      	adds	r3, r2, #1
100071ac:	00db      	lsls	r3, r3, #3
100071ae:	492e      	ldr	r1, [pc, #184]	; (10007268 <get_rand_64+0x110>)
100071b0:	5858      	ldr	r0, [r3, r1]
100071b2:	4b2e      	ldr	r3, [pc, #184]	; (1000726c <get_rand_64+0x114>)
100071b4:	4298      	cmp	r0, r3
100071b6:	d048      	beq.n	1000724a <get_rand_64+0xf2>
100071b8:	2100      	movs	r1, #0
100071ba:	f7ff fdb3 	bl	10006d24 <splitmix64>
100071be:	9b02      	ldr	r3, [sp, #8]
100071c0:	4058      	eors	r0, r3
100071c2:	9b03      	ldr	r3, [sp, #12]
100071c4:	9301      	str	r3, [sp, #4]
100071c6:	4059      	eors	r1, r3
100071c8:	9002      	str	r0, [sp, #8]
100071ca:	9103      	str	r1, [sp, #12]
100071cc:	f3ef 8610 	mrs	r6, PRIMASK
100071d0:	b672      	cpsid	i
100071d2:	4b27      	ldr	r3, [pc, #156]	; (10007270 <get_rand_64+0x118>)
100071d4:	681b      	ldr	r3, [r3, #0]
100071d6:	2b00      	cmp	r3, #0
100071d8:	d0fb      	beq.n	100071d2 <get_rand_64+0x7a>
100071da:	f3bf 8f5f 	dmb	sy
100071de:	4b20      	ldr	r3, [pc, #128]	; (10007260 <get_rand_64+0x108>)
100071e0:	781b      	ldrb	r3, [r3, #0]
100071e2:	b2db      	uxtb	r3, r3
100071e4:	42a3      	cmp	r3, r4
100071e6:	d013      	beq.n	10007210 <get_rand_64+0xb8>
100071e8:	4b1c      	ldr	r3, [pc, #112]	; (1000725c <get_rand_64+0x104>)
100071ea:	9902      	ldr	r1, [sp, #8]
100071ec:	681a      	ldr	r2, [r3, #0]
100071ee:	4051      	eors	r1, r2
100071f0:	9a03      	ldr	r2, [sp, #12]
100071f2:	9201      	str	r2, [sp, #4]
100071f4:	6858      	ldr	r0, [r3, #4]
100071f6:	4042      	eors	r2, r0
100071f8:	9102      	str	r1, [sp, #8]
100071fa:	9203      	str	r2, [sp, #12]
100071fc:	689a      	ldr	r2, [r3, #8]
100071fe:	68db      	ldr	r3, [r3, #12]
10007200:	9904      	ldr	r1, [sp, #16]
10007202:	9101      	str	r1, [sp, #4]
10007204:	404a      	eors	r2, r1
10007206:	9905      	ldr	r1, [sp, #20]
10007208:	9101      	str	r1, [sp, #4]
1000720a:	404b      	eors	r3, r1
1000720c:	9204      	str	r2, [sp, #16]
1000720e:	9305      	str	r3, [sp, #20]
10007210:	a802      	add	r0, sp, #8
10007212:	f7ff fde7 	bl	10006de4 <xoroshiro128ss>
10007216:	0005      	movs	r5, r0
10007218:	000c      	movs	r4, r1
1000721a:	2210      	movs	r2, #16
1000721c:	a902      	add	r1, sp, #8
1000721e:	480f      	ldr	r0, [pc, #60]	; (1000725c <get_rand_64+0x104>)
10007220:	f7ff fc22 	bl	10006a68 <__wrap___aeabi_memcpy>
10007224:	4a0e      	ldr	r2, [pc, #56]	; (10007260 <get_rand_64+0x108>)
10007226:	7813      	ldrb	r3, [r2, #0]
10007228:	3301      	adds	r3, #1
1000722a:	b2db      	uxtb	r3, r3
1000722c:	7013      	strb	r3, [r2, #0]
1000722e:	f3bf 8f5f 	dmb	sy
10007232:	4b0f      	ldr	r3, [pc, #60]	; (10007270 <get_rand_64+0x118>)
10007234:	2200      	movs	r2, #0
10007236:	601a      	str	r2, [r3, #0]
10007238:	f386 8810 	msr	PRIMASK, r6
1000723c:	0028      	movs	r0, r5
1000723e:	0021      	movs	r1, r4
10007240:	b006      	add	sp, #24
10007242:	bd70      	pop	{r4, r5, r6, pc}
10007244:	f7ff fefc 	bl	10007040 <initialise_rand>
10007248:	e78d      	b.n	10007166 <get_rand_64+0xe>
1000724a:	3201      	adds	r2, #1
1000724c:	00d2      	lsls	r2, r2, #3
1000724e:	000b      	movs	r3, r1
10007250:	2100      	movs	r1, #0
10007252:	50d1      	str	r1, [r2, r3]
10007254:	e7b0      	b.n	100071b8 <get_rand_64+0x60>
10007256:	46c0      	nop			; (mov r8, r8)
10007258:	2000273a 	.word	0x2000273a
1000725c:	20000f18 	.word	0x20000f18
10007260:	20002737 	.word	0x20002737
10007264:	20002736 	.word	0x20002736
10007268:	40030000 	.word	0x40030000
1000726c:	00ffffff 	.word	0x00ffffff
10007270:	d0000130 	.word	0xd0000130

10007274 <get_rand_32>:
10007274:	b510      	push	{r4, lr}
10007276:	f7ff ff6f 	bl	10007158 <get_rand_64>
1000727a:	bd10      	pop	{r4, pc}

1000727c <_retrieve_unique_id_on_boot>:
1000727c:	b510      	push	{r4, lr}
1000727e:	4802      	ldr	r0, [pc, #8]	; (10007288 <_retrieve_unique_id_on_boot+0xc>)
10007280:	f000 f80c 	bl	1000729c <flash_get_unique_id>
10007284:	bd10      	pop	{r4, pc}
10007286:	46c0      	nop			; (mov r8, r8)
10007288:	200024ec 	.word	0x200024ec

1000728c <pico_get_unique_board_id>:
1000728c:	b510      	push	{r4, lr}
1000728e:	2208      	movs	r2, #8
10007290:	4901      	ldr	r1, [pc, #4]	; (10007298 <pico_get_unique_board_id+0xc>)
10007292:	f7ff fbe9 	bl	10006a68 <__wrap___aeabi_memcpy>
10007296:	bd10      	pop	{r4, pc}
10007298:	200024ec 	.word	0x200024ec

1000729c <flash_get_unique_id>:
1000729c:	b570      	push	{r4, r5, r6, lr}
1000729e:	b088      	sub	sp, #32
100072a0:	0004      	movs	r4, r0
100072a2:	ad04      	add	r5, sp, #16
100072a4:	2600      	movs	r6, #0
100072a6:	9604      	str	r6, [sp, #16]
100072a8:	2209      	movs	r2, #9
100072aa:	2100      	movs	r1, #0
100072ac:	a805      	add	r0, sp, #20
100072ae:	f7ff fbd5 	bl	10006a5c <__wrap_memset>
100072b2:	9600      	str	r6, [sp, #0]
100072b4:	2209      	movs	r2, #9
100072b6:	2100      	movs	r1, #0
100072b8:	a801      	add	r0, sp, #4
100072ba:	f7ff fbcf 	bl	10006a5c <__wrap_memset>
100072be:	234b      	movs	r3, #75	; 0x4b
100072c0:	702b      	strb	r3, [r5, #0]
100072c2:	220d      	movs	r2, #13
100072c4:	4669      	mov	r1, sp
100072c6:	0028      	movs	r0, r5
100072c8:	f002 fbb2 	bl	10009a30 <__flash_do_cmd_veneer>
100072cc:	2300      	movs	r3, #0
100072ce:	e004      	b.n	100072da <flash_get_unique_id+0x3e>
100072d0:	1d5a      	adds	r2, r3, #5
100072d2:	4669      	mov	r1, sp
100072d4:	5c8a      	ldrb	r2, [r1, r2]
100072d6:	54e2      	strb	r2, [r4, r3]
100072d8:	3301      	adds	r3, #1
100072da:	2b07      	cmp	r3, #7
100072dc:	ddf8      	ble.n	100072d0 <flash_get_unique_id+0x34>
100072de:	b008      	add	sp, #32
100072e0:	bd70      	pop	{r4, r5, r6, pc}
	...

100072e4 <hw_endpoint_get_by_addr>:
100072e4:	0002      	movs	r2, r0
100072e6:	207f      	movs	r0, #127	; 0x7f
100072e8:	4010      	ands	r0, r2
100072ea:	09d2      	lsrs	r2, r2, #7
100072ec:	0040      	lsls	r0, r0, #1
100072ee:	1880      	adds	r0, r0, r2
100072f0:	0140      	lsls	r0, r0, #5
100072f2:	4b01      	ldr	r3, [pc, #4]	; (100072f8 <hw_endpoint_get_by_addr+0x14>)
100072f4:	18c0      	adds	r0, r0, r3
100072f6:	4770      	bx	lr
100072f8:	200020d0 	.word	0x200020d0

100072fc <_hw_endpoint_alloc>:
100072fc:	b510      	push	{r4, lr}
100072fe:	8b03      	ldrh	r3, [r0, #24]
10007300:	333f      	adds	r3, #63	; 0x3f
10007302:	223f      	movs	r2, #63	; 0x3f
10007304:	4393      	bics	r3, r2
10007306:	2902      	cmp	r1, #2
10007308:	d015      	beq.n	10007336 <_hw_endpoint_alloc+0x3a>
1000730a:	4c12      	ldr	r4, [pc, #72]	; (10007354 <_hw_endpoint_alloc+0x58>)
1000730c:	6822      	ldr	r2, [r4, #0]
1000730e:	60c2      	str	r2, [r0, #12]
10007310:	18d3      	adds	r3, r2, r3
10007312:	6023      	str	r3, [r4, #0]
10007314:	069c      	lsls	r4, r3, #26
10007316:	d110      	bne.n	1000733a <_hw_endpoint_alloc+0x3e>
10007318:	4c0f      	ldr	r4, [pc, #60]	; (10007358 <_hw_endpoint_alloc+0x5c>)
1000731a:	4062      	eors	r2, r4
1000731c:	4063      	eors	r3, r4
1000731e:	2480      	movs	r4, #128	; 0x80
10007320:	0164      	lsls	r4, r4, #5
10007322:	42a3      	cmp	r3, r4
10007324:	d80f      	bhi.n	10007346 <_hw_endpoint_alloc+0x4a>
10007326:	0689      	lsls	r1, r1, #26
10007328:	4311      	orrs	r1, r2
1000732a:	2380      	movs	r3, #128	; 0x80
1000732c:	061b      	lsls	r3, r3, #24
1000732e:	4319      	orrs	r1, r3
10007330:	6843      	ldr	r3, [r0, #4]
10007332:	6019      	str	r1, [r3, #0]
10007334:	bd10      	pop	{r4, pc}
10007336:	005b      	lsls	r3, r3, #1
10007338:	e7e7      	b.n	1000730a <_hw_endpoint_alloc+0xe>
1000733a:	4b08      	ldr	r3, [pc, #32]	; (1000735c <_hw_endpoint_alloc+0x60>)
1000733c:	4a08      	ldr	r2, [pc, #32]	; (10007360 <_hw_endpoint_alloc+0x64>)
1000733e:	2154      	movs	r1, #84	; 0x54
10007340:	4808      	ldr	r0, [pc, #32]	; (10007364 <_hw_endpoint_alloc+0x68>)
10007342:	f7fd f9bf 	bl	100046c4 <__assert_func>
10007346:	4b08      	ldr	r3, [pc, #32]	; (10007368 <_hw_endpoint_alloc+0x6c>)
10007348:	4a05      	ldr	r2, [pc, #20]	; (10007360 <_hw_endpoint_alloc+0x64>)
1000734a:	2156      	movs	r1, #86	; 0x56
1000734c:	4805      	ldr	r0, [pc, #20]	; (10007364 <_hw_endpoint_alloc+0x68>)
1000734e:	f7fd f9b9 	bl	100046c4 <__assert_func>
10007352:	46c0      	nop			; (mov r8, r8)
10007354:	200024d0 	.word	0x200024d0
10007358:	50100000 	.word	0x50100000
1000735c:	1000b9b4 	.word	0x1000b9b4
10007360:	1000bafc 	.word	0x1000bafc
10007364:	1000b9e4 	.word	0x1000b9e4
10007368:	1000ba54 	.word	0x1000ba54

1000736c <hw_endpoint_init>:
1000736c:	b5f8      	push	{r3, r4, r5, r6, r7, lr}
1000736e:	0005      	movs	r5, r0
10007370:	000e      	movs	r6, r1
10007372:	0014      	movs	r4, r2
10007374:	f7ff ffb6 	bl	100072e4 <hw_endpoint_get_by_addr>
10007378:	237f      	movs	r3, #127	; 0x7f
1000737a:	402b      	ands	r3, r5
1000737c:	09ef      	lsrs	r7, r5, #7
1000737e:	7085      	strb	r5, [r0, #2]
10007380:	427a      	negs	r2, r7
10007382:	417a      	adcs	r2, r7
10007384:	7042      	strb	r2, [r0, #1]
10007386:	2200      	movs	r2, #0
10007388:	70c2      	strb	r2, [r0, #3]
1000738a:	8306      	strh	r6, [r0, #24]
1000738c:	76c4      	strb	r4, [r0, #27]
1000738e:	2f01      	cmp	r7, #1
10007390:	d00d      	beq.n	100073ae <hw_endpoint_init+0x42>
10007392:	00da      	lsls	r2, r3, #3
10007394:	4912      	ldr	r1, [pc, #72]	; (100073e0 <hw_endpoint_init+0x74>)
10007396:	468c      	mov	ip, r1
10007398:	4462      	add	r2, ip
1000739a:	6082      	str	r2, [r0, #8]
1000739c:	6882      	ldr	r2, [r0, #8]
1000739e:	2100      	movs	r1, #0
100073a0:	6011      	str	r1, [r2, #0]
100073a2:	2b00      	cmp	r3, #0
100073a4:	d109      	bne.n	100073ba <hw_endpoint_init+0x4e>
100073a6:	6043      	str	r3, [r0, #4]
100073a8:	4b0e      	ldr	r3, [pc, #56]	; (100073e4 <hw_endpoint_init+0x78>)
100073aa:	60c3      	str	r3, [r0, #12]
100073ac:	bdf8      	pop	{r3, r4, r5, r6, r7, pc}
100073ae:	00da      	lsls	r2, r3, #3
100073b0:	490d      	ldr	r1, [pc, #52]	; (100073e8 <hw_endpoint_init+0x7c>)
100073b2:	468c      	mov	ip, r1
100073b4:	4462      	add	r2, ip
100073b6:	6082      	str	r2, [r0, #8]
100073b8:	e7f0      	b.n	1000739c <hw_endpoint_init+0x30>
100073ba:	2f01      	cmp	r7, #1
100073bc:	d009      	beq.n	100073d2 <hw_endpoint_init+0x66>
100073be:	3b01      	subs	r3, #1
100073c0:	00db      	lsls	r3, r3, #3
100073c2:	4a0a      	ldr	r2, [pc, #40]	; (100073ec <hw_endpoint_init+0x80>)
100073c4:	4694      	mov	ip, r2
100073c6:	4463      	add	r3, ip
100073c8:	6043      	str	r3, [r0, #4]
100073ca:	0021      	movs	r1, r4
100073cc:	f7ff ff96 	bl	100072fc <_hw_endpoint_alloc>
100073d0:	e7ec      	b.n	100073ac <hw_endpoint_init+0x40>
100073d2:	3b01      	subs	r3, #1
100073d4:	00db      	lsls	r3, r3, #3
100073d6:	4a06      	ldr	r2, [pc, #24]	; (100073f0 <hw_endpoint_init+0x84>)
100073d8:	4694      	mov	ip, r2
100073da:	4463      	add	r3, ip
100073dc:	6043      	str	r3, [r0, #4]
100073de:	e7f4      	b.n	100073ca <hw_endpoint_init+0x5e>
100073e0:	50100084 	.word	0x50100084
100073e4:	50100100 	.word	0x50100100
100073e8:	50100080 	.word	0x50100080
100073ec:	5010000c 	.word	0x5010000c
100073f0:	50100008 	.word	0x50100008

100073f4 <hw_endpoint_xfer>:
100073f4:	b570      	push	{r4, r5, r6, lr}
100073f6:	000c      	movs	r4, r1
100073f8:	0015      	movs	r5, r2
100073fa:	f7ff ff73 	bl	100072e4 <hw_endpoint_get_by_addr>
100073fe:	002a      	movs	r2, r5
10007400:	0021      	movs	r1, r4
10007402:	f000 f929 	bl	10007658 <hw_endpoint_xfer_start>
10007406:	bd70      	pop	{r4, r5, r6, pc}

10007408 <dcd_int_enable>:
10007408:	b510      	push	{r4, lr}
1000740a:	2800      	cmp	r0, #0
1000740c:	d104      	bne.n	10007418 <dcd_int_enable+0x10>
1000740e:	2101      	movs	r1, #1
10007410:	2005      	movs	r0, #5
10007412:	f7fb fba1 	bl	10002b58 <irq_set_enabled>
10007416:	bd10      	pop	{r4, pc}
10007418:	21d5      	movs	r1, #213	; 0xd5
1000741a:	4b03      	ldr	r3, [pc, #12]	; (10007428 <dcd_int_enable+0x20>)
1000741c:	4a03      	ldr	r2, [pc, #12]	; (1000742c <dcd_int_enable+0x24>)
1000741e:	0049      	lsls	r1, r1, #1
10007420:	4803      	ldr	r0, [pc, #12]	; (10007430 <dcd_int_enable+0x28>)
10007422:	f7fd f94f 	bl	100046c4 <__assert_func>
10007426:	46c0      	nop			; (mov r8, r8)
10007428:	1000ba9c 	.word	0x1000ba9c
1000742c:	1000baec 	.word	0x1000baec
10007430:	1000b9e4 	.word	0x1000b9e4

10007434 <dcd_set_address>:
10007434:	b510      	push	{r4, lr}
10007436:	2800      	cmp	r0, #0
10007438:	d105      	bne.n	10007446 <dcd_set_address+0x12>
1000743a:	2200      	movs	r2, #0
1000743c:	2100      	movs	r1, #0
1000743e:	2080      	movs	r0, #128	; 0x80
10007440:	f7ff ffd8 	bl	100073f4 <hw_endpoint_xfer>
10007444:	bd10      	pop	{r4, pc}
10007446:	21db      	movs	r1, #219	; 0xdb
10007448:	4b02      	ldr	r3, [pc, #8]	; (10007454 <dcd_set_address+0x20>)
1000744a:	4a03      	ldr	r2, [pc, #12]	; (10007458 <dcd_set_address+0x24>)
1000744c:	0049      	lsls	r1, r1, #1
1000744e:	4803      	ldr	r0, [pc, #12]	; (1000745c <dcd_set_address+0x28>)
10007450:	f7fd f938 	bl	100046c4 <__assert_func>
10007454:	1000ba9c 	.word	0x1000ba9c
10007458:	1000badc 	.word	0x1000badc
1000745c:	1000b9e4 	.word	0x1000b9e4

10007460 <dcd_remote_wakeup>:
10007460:	b510      	push	{r4, lr}
10007462:	2800      	cmp	r0, #0
10007464:	d108      	bne.n	10007478 <dcd_remote_wakeup+0x18>
10007466:	4b08      	ldr	r3, [pc, #32]	; (10007488 <dcd_remote_wakeup+0x28>)
10007468:	2290      	movs	r2, #144	; 0x90
1000746a:	2180      	movs	r1, #128	; 0x80
1000746c:	0289      	lsls	r1, r1, #10
1000746e:	5099      	str	r1, [r3, r2]
10007470:	2280      	movs	r2, #128	; 0x80
10007472:	0152      	lsls	r2, r2, #5
10007474:	64da      	str	r2, [r3, #76]	; 0x4c
10007476:	bd10      	pop	{r4, pc}
10007478:	21e0      	movs	r1, #224	; 0xe0
1000747a:	4b04      	ldr	r3, [pc, #16]	; (1000748c <dcd_remote_wakeup+0x2c>)
1000747c:	4a04      	ldr	r2, [pc, #16]	; (10007490 <dcd_remote_wakeup+0x30>)
1000747e:	0049      	lsls	r1, r1, #1
10007480:	4804      	ldr	r0, [pc, #16]	; (10007494 <dcd_remote_wakeup+0x34>)
10007482:	f7fd f91f 	bl	100046c4 <__assert_func>
10007486:	46c0      	nop			; (mov r8, r8)
10007488:	50112000 	.word	0x50112000
1000748c:	1000ba9c 	.word	0x1000ba9c
10007490:	1000bac8 	.word	0x1000bac8
10007494:	1000b9e4 	.word	0x1000b9e4

10007498 <dcd_connect>:
10007498:	4b02      	ldr	r3, [pc, #8]	; (100074a4 <dcd_connect+0xc>)
1000749a:	2280      	movs	r2, #128	; 0x80
1000749c:	0252      	lsls	r2, r2, #9
1000749e:	64da      	str	r2, [r3, #76]	; 0x4c
100074a0:	4770      	bx	lr
100074a2:	46c0      	nop			; (mov r8, r8)
100074a4:	50112000 	.word	0x50112000

100074a8 <dcd_init>:
100074a8:	b570      	push	{r4, r5, r6, lr}
100074aa:	1e04      	subs	r4, r0, #0
100074ac:	d126      	bne.n	100074fc <dcd_init+0x54>
100074ae:	f000 f8ad 	bl	1000760c <rp2040_usb_init>
100074b2:	4d16      	ldr	r5, [pc, #88]	; (1000750c <dcd_init+0x64>)
100074b4:	230c      	movs	r3, #12
100074b6:	67ab      	str	r3, [r5, #120]	; 0x78
100074b8:	22ff      	movs	r2, #255	; 0xff
100074ba:	4915      	ldr	r1, [pc, #84]	; (10007510 <dcd_init+0x68>)
100074bc:	2005      	movs	r0, #5
100074be:	f7fb fb85 	bl	10002bcc <irq_add_shared_handler>
100074c2:	2240      	movs	r2, #64	; 0x40
100074c4:	2100      	movs	r1, #0
100074c6:	4813      	ldr	r0, [pc, #76]	; (10007514 <dcd_init+0x6c>)
100074c8:	f7ff fac8 	bl	10006a5c <__wrap_memset>
100074cc:	2200      	movs	r2, #0
100074ce:	2140      	movs	r1, #64	; 0x40
100074d0:	2000      	movs	r0, #0
100074d2:	f7ff ff4b 	bl	1000736c <hw_endpoint_init>
100074d6:	2200      	movs	r2, #0
100074d8:	2140      	movs	r1, #64	; 0x40
100074da:	2080      	movs	r0, #128	; 0x80
100074dc:	f7ff ff46 	bl	1000736c <hw_endpoint_init>
100074e0:	f002 fb06 	bl	10009af0 <__reset_non_control_endpoints_veneer>
100074e4:	2301      	movs	r3, #1
100074e6:	642b      	str	r3, [r5, #64]	; 0x40
100074e8:	2380      	movs	r3, #128	; 0x80
100074ea:	059b      	lsls	r3, r3, #22
100074ec:	64eb      	str	r3, [r5, #76]	; 0x4c
100074ee:	2390      	movs	r3, #144	; 0x90
100074f0:	4a09      	ldr	r2, [pc, #36]	; (10007518 <dcd_init+0x70>)
100074f2:	50ea      	str	r2, [r5, r3]
100074f4:	0020      	movs	r0, r4
100074f6:	f7ff ffcf 	bl	10007498 <dcd_connect>
100074fa:	bd70      	pop	{r4, r5, r6, pc}
100074fc:	2186      	movs	r1, #134	; 0x86
100074fe:	4b07      	ldr	r3, [pc, #28]	; (1000751c <dcd_init+0x74>)
10007500:	4a07      	ldr	r2, [pc, #28]	; (10007520 <dcd_init+0x78>)
10007502:	31ff      	adds	r1, #255	; 0xff
10007504:	4807      	ldr	r0, [pc, #28]	; (10007524 <dcd_init+0x7c>)
10007506:	f7fd f8dd 	bl	100046c4 <__assert_func>
1000750a:	46c0      	nop			; (mov r8, r8)
1000750c:	50110000 	.word	0x50110000
10007510:	20000611 	.word	0x20000611
10007514:	200020d0 	.word	0x200020d0
10007518:	0001d010 	.word	0x0001d010
1000751c:	1000ba9c 	.word	0x1000ba9c
10007520:	1000bb10 	.word	0x1000bb10
10007524:	1000b9e4 	.word	0x1000b9e4

10007528 <dcd_edpt0_status_complete>:
10007528:	780b      	ldrb	r3, [r1, #0]
1000752a:	065b      	lsls	r3, r3, #25
1000752c:	d102      	bne.n	10007534 <dcd_edpt0_status_complete+0xc>
1000752e:	784b      	ldrb	r3, [r1, #1]
10007530:	2b05      	cmp	r3, #5
10007532:	d000      	beq.n	10007536 <dcd_edpt0_status_complete+0xe>
10007534:	4770      	bx	lr
10007536:	788a      	ldrb	r2, [r1, #2]
10007538:	4b01      	ldr	r3, [pc, #4]	; (10007540 <dcd_edpt0_status_complete+0x18>)
1000753a:	601a      	str	r2, [r3, #0]
1000753c:	e7fa      	b.n	10007534 <dcd_edpt0_status_complete+0xc>
1000753e:	46c0      	nop			; (mov r8, r8)
10007540:	50110000 	.word	0x50110000

10007544 <dcd_edpt_open>:
10007544:	b510      	push	{r4, lr}
10007546:	000c      	movs	r4, r1
10007548:	2800      	cmp	r0, #0
1000754a:	d10d      	bne.n	10007568 <dcd_edpt_open+0x24>
1000754c:	7909      	ldrb	r1, [r1, #4]
1000754e:	7963      	ldrb	r3, [r4, #5]
10007550:	021b      	lsls	r3, r3, #8
10007552:	430b      	orrs	r3, r1
10007554:	055b      	lsls	r3, r3, #21
10007556:	0d59      	lsrs	r1, r3, #21
10007558:	78e2      	ldrb	r2, [r4, #3]
1000755a:	0792      	lsls	r2, r2, #30
1000755c:	0f92      	lsrs	r2, r2, #30
1000755e:	78a0      	ldrb	r0, [r4, #2]
10007560:	f7ff ff04 	bl	1000736c <hw_endpoint_init>
10007564:	2001      	movs	r0, #1
10007566:	bd10      	pop	{r4, pc}
10007568:	21fc      	movs	r1, #252	; 0xfc
1000756a:	4b03      	ldr	r3, [pc, #12]	; (10007578 <dcd_edpt_open+0x34>)
1000756c:	4a03      	ldr	r2, [pc, #12]	; (1000757c <dcd_edpt_open+0x38>)
1000756e:	31ff      	adds	r1, #255	; 0xff
10007570:	4803      	ldr	r0, [pc, #12]	; (10007580 <dcd_edpt_open+0x3c>)
10007572:	f7fd f8a7 	bl	100046c4 <__assert_func>
10007576:	46c0      	nop			; (mov r8, r8)
10007578:	1000ba9c 	.word	0x1000ba9c
1000757c:	1000bab8 	.word	0x1000bab8
10007580:	1000b9e4 	.word	0x1000b9e4

10007584 <dcd_edpt_close_all>:
10007584:	b510      	push	{r4, lr}
10007586:	f002 fab3 	bl	10009af0 <__reset_non_control_endpoints_veneer>
1000758a:	bd10      	pop	{r4, pc}

1000758c <dcd_edpt_xfer>:
1000758c:	b510      	push	{r4, lr}
1000758e:	0004      	movs	r4, r0
10007590:	0008      	movs	r0, r1
10007592:	0011      	movs	r1, r2
10007594:	001a      	movs	r2, r3
10007596:	2c00      	cmp	r4, #0
10007598:	d103      	bne.n	100075a2 <dcd_edpt_xfer+0x16>
1000759a:	f7ff ff2b 	bl	100073f4 <hw_endpoint_xfer>
1000759e:	2001      	movs	r0, #1
100075a0:	bd10      	pop	{r4, pc}
100075a2:	4b03      	ldr	r3, [pc, #12]	; (100075b0 <dcd_edpt_xfer+0x24>)
100075a4:	4a03      	ldr	r2, [pc, #12]	; (100075b4 <dcd_edpt_xfer+0x28>)
100075a6:	4904      	ldr	r1, [pc, #16]	; (100075b8 <dcd_edpt_xfer+0x2c>)
100075a8:	4804      	ldr	r0, [pc, #16]	; (100075bc <dcd_edpt_xfer+0x30>)
100075aa:	f7fd f88b 	bl	100046c4 <__assert_func>
100075ae:	46c0      	nop			; (mov r8, r8)
100075b0:	1000ba9c 	.word	0x1000ba9c
100075b4:	1000baa8 	.word	0x1000baa8
100075b8:	0000020a 	.word	0x0000020a
100075bc:	1000b9e4 	.word	0x1000b9e4

100075c0 <dcd_edpt_stall>:
100075c0:	b510      	push	{r4, lr}
100075c2:	0008      	movs	r0, r1
100075c4:	064b      	lsls	r3, r1, #25
100075c6:	d105      	bne.n	100075d4 <dcd_edpt_stall+0x14>
100075c8:	09cb      	lsrs	r3, r1, #7
100075ca:	2b01      	cmp	r3, #1
100075cc:	d00a      	beq.n	100075e4 <dcd_edpt_stall+0x24>
100075ce:	2202      	movs	r2, #2
100075d0:	4b05      	ldr	r3, [pc, #20]	; (100075e8 <dcd_edpt_stall+0x28>)
100075d2:	669a      	str	r2, [r3, #104]	; 0x68
100075d4:	f7ff fe86 	bl	100072e4 <hw_endpoint_get_by_addr>
100075d8:	2280      	movs	r2, #128	; 0x80
100075da:	0112      	lsls	r2, r2, #4
100075dc:	2100      	movs	r1, #0
100075de:	f002 fa8f 	bl	10009b00 <___hw_endpoint_buffer_control_update32_veneer>
100075e2:	bd10      	pop	{r4, pc}
100075e4:	2201      	movs	r2, #1
100075e6:	e7f3      	b.n	100075d0 <dcd_edpt_stall+0x10>
100075e8:	50112000 	.word	0x50112000

100075ec <dcd_edpt_clear_stall>:
100075ec:	b510      	push	{r4, lr}
100075ee:	0008      	movs	r0, r1
100075f0:	064b      	lsls	r3, r1, #25
100075f2:	d100      	bne.n	100075f6 <dcd_edpt_clear_stall+0xa>
100075f4:	bd10      	pop	{r4, pc}
100075f6:	f7ff fe75 	bl	100072e4 <hw_endpoint_get_by_addr>
100075fa:	2300      	movs	r3, #0
100075fc:	70c3      	strb	r3, [r0, #3]
100075fe:	2200      	movs	r2, #0
10007600:	4901      	ldr	r1, [pc, #4]	; (10007608 <dcd_edpt_clear_stall+0x1c>)
10007602:	f002 fa7d 	bl	10009b00 <___hw_endpoint_buffer_control_update32_veneer>
10007606:	e7f5      	b.n	100075f4 <dcd_edpt_clear_stall+0x8>
10007608:	fffff7ff 	.word	0xfffff7ff

1000760c <rp2040_usb_init>:
1000760c:	b510      	push	{r4, lr}
1000760e:	2380      	movs	r3, #128	; 0x80
10007610:	045b      	lsls	r3, r3, #17
10007612:	4a0c      	ldr	r2, [pc, #48]	; (10007644 <rp2040_usb_init+0x38>)
10007614:	6013      	str	r3, [r2, #0]
10007616:	4a0c      	ldr	r2, [pc, #48]	; (10007648 <rp2040_usb_init+0x3c>)
10007618:	6013      	str	r3, [r2, #0]
1000761a:	4b0c      	ldr	r3, [pc, #48]	; (1000764c <rp2040_usb_init+0x40>)
1000761c:	689a      	ldr	r2, [r3, #8]
1000761e:	2380      	movs	r3, #128	; 0x80
10007620:	045b      	lsls	r3, r3, #17
10007622:	4393      	bics	r3, r2
10007624:	d1f9      	bne.n	1000761a <rp2040_usb_init+0xe>
10007626:	4c0a      	ldr	r4, [pc, #40]	; (10007650 <rp2040_usb_init+0x44>)
10007628:	229c      	movs	r2, #156	; 0x9c
1000762a:	2100      	movs	r1, #0
1000762c:	0020      	movs	r0, r4
1000762e:	f7ff fa15 	bl	10006a5c <__wrap_memset>
10007632:	2280      	movs	r2, #128	; 0x80
10007634:	0152      	lsls	r2, r2, #5
10007636:	2100      	movs	r1, #0
10007638:	4806      	ldr	r0, [pc, #24]	; (10007654 <rp2040_usb_init+0x48>)
1000763a:	f7ff fa0f 	bl	10006a5c <__wrap_memset>
1000763e:	2309      	movs	r3, #9
10007640:	6763      	str	r3, [r4, #116]	; 0x74
10007642:	bd10      	pop	{r4, pc}
10007644:	4000e000 	.word	0x4000e000
10007648:	4000f000 	.word	0x4000f000
1000764c:	4000c000 	.word	0x4000c000
10007650:	50110000 	.word	0x50110000
10007654:	50100000 	.word	0x50100000

10007658 <hw_endpoint_xfer_start>:
10007658:	b570      	push	{r4, r5, r6, lr}
1000765a:	0004      	movs	r4, r0
1000765c:	000d      	movs	r5, r1
1000765e:	0016      	movs	r6, r2
10007660:	7e83      	ldrb	r3, [r0, #26]
10007662:	2b00      	cmp	r3, #0
10007664:	d117      	bne.n	10007696 <hw_endpoint_xfer_start+0x3e>
10007666:	82a6      	strh	r6, [r4, #20]
10007668:	2300      	movs	r3, #0
1000766a:	82e3      	strh	r3, [r4, #22]
1000766c:	3301      	adds	r3, #1
1000766e:	76a3      	strb	r3, [r4, #26]
10007670:	6125      	str	r5, [r4, #16]
10007672:	0020      	movs	r0, r4
10007674:	f002 fa2c 	bl	10009ad0 <__e15_is_bulkin_ep_veneer>
10007678:	2800      	cmp	r0, #0
1000767a:	d004      	beq.n	10007686 <hw_endpoint_xfer_start+0x2e>
1000767c:	4a09      	ldr	r2, [pc, #36]	; (100076a4 <hw_endpoint_xfer_start+0x4c>)
1000767e:	2390      	movs	r3, #144	; 0x90
10007680:	2180      	movs	r1, #128	; 0x80
10007682:	0289      	lsls	r1, r1, #10
10007684:	50d1      	str	r1, [r2, r3]
10007686:	0020      	movs	r0, r4
10007688:	f002 f9ea 	bl	10009a60 <__e15_is_critical_frame_period_veneer>
1000768c:	2800      	cmp	r0, #0
1000768e:	d005      	beq.n	1000769c <hw_endpoint_xfer_start+0x44>
10007690:	2301      	movs	r3, #1
10007692:	7723      	strb	r3, [r4, #28]
10007694:	bd70      	pop	{r4, r5, r6, pc}
10007696:	f002 fa23 	bl	10009ae0 <__hw_endpoint_reset_transfer_veneer>
1000769a:	e7e4      	b.n	10007666 <hw_endpoint_xfer_start+0xe>
1000769c:	0020      	movs	r0, r4
1000769e:	f002 fa0f 	bl	10009ac0 <__hw_endpoint_start_next_buffer_veneer>
100076a2:	e7f7      	b.n	10007694 <hw_endpoint_xfer_start+0x3c>
100076a4:	50112000 	.word	0x50112000

100076a8 <configuration_reset>:
100076a8:	b570      	push	{r4, r5, r6, lr}
100076aa:	0005      	movs	r5, r0
100076ac:	2400      	movs	r4, #0
100076ae:	e00c      	b.n	100076ca <configuration_reset+0x22>
100076b0:	0063      	lsls	r3, r4, #1
100076b2:	191b      	adds	r3, r3, r4
100076b4:	00da      	lsls	r2, r3, #3
100076b6:	4b19      	ldr	r3, [pc, #100]	; (1000771c <configuration_reset+0x74>)
100076b8:	681b      	ldr	r3, [r3, #0]
100076ba:	189b      	adds	r3, r3, r2
100076bc:	2b00      	cmp	r3, #0
100076be:	d02b      	beq.n	10007718 <configuration_reset+0x70>
100076c0:	685b      	ldr	r3, [r3, #4]
100076c2:	0028      	movs	r0, r5
100076c4:	4798      	blx	r3
100076c6:	3401      	adds	r4, #1
100076c8:	b2e4      	uxtb	r4, r4
100076ca:	4b15      	ldr	r3, [pc, #84]	; (10007720 <configuration_reset+0x78>)
100076cc:	781b      	ldrb	r3, [r3, #0]
100076ce:	1c9a      	adds	r2, r3, #2
100076d0:	42a2      	cmp	r2, r4
100076d2:	db10      	blt.n	100076f6 <configuration_reset+0x4e>
100076d4:	4a13      	ldr	r2, [pc, #76]	; (10007724 <configuration_reset+0x7c>)
100076d6:	2a00      	cmp	r2, #0
100076d8:	d00b      	beq.n	100076f2 <configuration_reset+0x4a>
100076da:	42a3      	cmp	r3, r4
100076dc:	d8e8      	bhi.n	100076b0 <configuration_reset+0x8>
100076de:	1ae3      	subs	r3, r4, r3
100076e0:	b2db      	uxtb	r3, r3
100076e2:	2b02      	cmp	r3, #2
100076e4:	d818      	bhi.n	10007718 <configuration_reset+0x70>
100076e6:	005a      	lsls	r2, r3, #1
100076e8:	18d2      	adds	r2, r2, r3
100076ea:	00d2      	lsls	r2, r2, #3
100076ec:	4b0e      	ldr	r3, [pc, #56]	; (10007728 <configuration_reset+0x80>)
100076ee:	189b      	adds	r3, r3, r2
100076f0:	e7e4      	b.n	100076bc <configuration_reset+0x14>
100076f2:	0023      	movs	r3, r4
100076f4:	e7f5      	b.n	100076e2 <configuration_reset+0x3a>
100076f6:	4c0d      	ldr	r4, [pc, #52]	; (1000772c <configuration_reset+0x84>)
100076f8:	2253      	movs	r2, #83	; 0x53
100076fa:	2100      	movs	r1, #0
100076fc:	0020      	movs	r0, r4
100076fe:	f7ff f9ad 	bl	10006a5c <__wrap_memset>
10007702:	1ce0      	adds	r0, r4, #3
10007704:	2210      	movs	r2, #16
10007706:	21ff      	movs	r1, #255	; 0xff
10007708:	f7ff f9a8 	bl	10006a5c <__wrap_memset>
1000770c:	0020      	movs	r0, r4
1000770e:	3013      	adds	r0, #19
10007710:	2220      	movs	r2, #32
10007712:	21ff      	movs	r1, #255	; 0xff
10007714:	f7ff f9a2 	bl	10006a5c <__wrap_memset>
10007718:	bd70      	pop	{r4, r5, r6, pc}
1000771a:	46c0      	nop			; (mov r8, r8)
1000771c:	2000106c 	.word	0x2000106c
10007720:	2000272c 	.word	0x2000272c
10007724:	10000e95 	.word	0x10000e95
10007728:	1000bcbc 	.word	0x1000bcbc
1000772c:	200018e0 	.word	0x200018e0

10007730 <usbd_reset>:
10007730:	b510      	push	{r4, lr}
10007732:	f7ff ffb9 	bl	100076a8 <configuration_reset>
10007736:	f000 fe0b 	bl	10008350 <usbd_control_reset>
1000773a:	bd10      	pop	{r4, pc}

1000773c <invoke_class_control>:
1000773c:	b570      	push	{r4, r5, r6, lr}
1000773e:	0005      	movs	r5, r0
10007740:	000c      	movs	r4, r1
10007742:	0016      	movs	r6, r2
10007744:	68c8      	ldr	r0, [r1, #12]
10007746:	f000 fe0d 	bl	10008364 <usbd_control_set_complete_callback>
1000774a:	68e3      	ldr	r3, [r4, #12]
1000774c:	0032      	movs	r2, r6
1000774e:	2101      	movs	r1, #1
10007750:	0028      	movs	r0, r5
10007752:	4798      	blx	r3
10007754:	bd70      	pop	{r4, r5, r6, pc}
	...

10007758 <process_set_config>:
10007758:	b5f0      	push	{r4, r5, r6, r7, lr}
1000775a:	46de      	mov	lr, fp
1000775c:	4657      	mov	r7, sl
1000775e:	464e      	mov	r6, r9
10007760:	b5c0      	push	{r6, r7, lr}
10007762:	b084      	sub	sp, #16
10007764:	9001      	str	r0, [sp, #4]
10007766:	3901      	subs	r1, #1
10007768:	b2c8      	uxtb	r0, r1
1000776a:	f7f9 fad1 	bl	10000d10 <tud_descriptor_configuration_cb>
1000776e:	2800      	cmp	r0, #0
10007770:	d100      	bne.n	10007774 <process_set_config+0x1c>
10007772:	e091      	b.n	10007898 <process_set_config+0x140>
10007774:	7843      	ldrb	r3, [r0, #1]
10007776:	469a      	mov	sl, r3
10007778:	2b02      	cmp	r3, #2
1000777a:	d000      	beq.n	1000777e <process_set_config+0x26>
1000777c:	e08e      	b.n	1000789c <process_set_config+0x144>
1000777e:	79c5      	ldrb	r5, [r0, #7]
10007780:	116a      	asrs	r2, r5, #5
10007782:	3b01      	subs	r3, #1
10007784:	494e      	ldr	r1, [pc, #312]	; (100078c0 <process_set_config+0x168>)
10007786:	401a      	ands	r2, r3
10007788:	0114      	lsls	r4, r2, #4
1000778a:	780a      	ldrb	r2, [r1, #0]
1000778c:	2710      	movs	r7, #16
1000778e:	43ba      	bics	r2, r7
10007790:	4322      	orrs	r2, r4
10007792:	700a      	strb	r2, [r1, #0]
10007794:	11ad      	asrs	r5, r5, #6
10007796:	402b      	ands	r3, r5
10007798:	015b      	lsls	r3, r3, #5
1000779a:	b2d2      	uxtb	r2, r2
1000779c:	2420      	movs	r4, #32
1000779e:	43a2      	bics	r2, r4
100077a0:	4313      	orrs	r3, r2
100077a2:	700b      	strb	r3, [r1, #0]
100077a4:	0006      	movs	r6, r0
100077a6:	3609      	adds	r6, #9
100077a8:	7882      	ldrb	r2, [r0, #2]
100077aa:	78c4      	ldrb	r4, [r0, #3]
100077ac:	0224      	lsls	r4, r4, #8
100077ae:	4314      	orrs	r4, r2
100077b0:	1904      	adds	r4, r0, r4
100077b2:	42a6      	cmp	r6, r4
100077b4:	d269      	bcs.n	1000788a <process_set_config+0x132>
100077b6:	7873      	ldrb	r3, [r6, #1]
100077b8:	2b0b      	cmp	r3, #11
100077ba:	d00a      	beq.n	100077d2 <process_set_config+0x7a>
100077bc:	2301      	movs	r3, #1
100077be:	469b      	mov	fp, r3
100077c0:	7873      	ldrb	r3, [r6, #1]
100077c2:	2b04      	cmp	r3, #4
100077c4:	d000      	beq.n	100077c8 <process_set_config+0x70>
100077c6:	e070      	b.n	100078aa <process_set_config+0x152>
100077c8:	1ba3      	subs	r3, r4, r6
100077ca:	b29b      	uxth	r3, r3
100077cc:	4699      	mov	r9, r3
100077ce:	2500      	movs	r5, #0
100077d0:	e027      	b.n	10007822 <process_set_config+0xca>
100077d2:	78f3      	ldrb	r3, [r6, #3]
100077d4:	469b      	mov	fp, r3
100077d6:	7833      	ldrb	r3, [r6, #0]
100077d8:	18f6      	adds	r6, r6, r3
100077da:	e7f1      	b.n	100077c0 <process_set_config+0x68>
100077dc:	006f      	lsls	r7, r5, #1
100077de:	197f      	adds	r7, r7, r5
100077e0:	00fb      	lsls	r3, r7, #3
100077e2:	4a38      	ldr	r2, [pc, #224]	; (100078c4 <process_set_config+0x16c>)
100077e4:	6817      	ldr	r7, [r2, #0]
100077e6:	18ff      	adds	r7, r7, r3
100077e8:	e02f      	b.n	1000784a <process_set_config+0xf2>
100077ea:	002b      	movs	r3, r5
100077ec:	e026      	b.n	1000783c <process_set_config+0xe4>
100077ee:	68ba      	ldr	r2, [r7, #8]
100077f0:	4b35      	ldr	r3, [pc, #212]	; (100078c8 <process_set_config+0x170>)
100077f2:	429a      	cmp	r2, r3
100077f4:	d138      	bne.n	10007868 <process_set_config+0x110>
100077f6:	46d3      	mov	fp, sl
100077f8:	e036      	b.n	10007868 <process_set_config+0x110>
100077fa:	4831      	ldr	r0, [pc, #196]	; (100078c0 <process_set_config+0x168>)
100077fc:	002b      	movs	r3, r5
100077fe:	9d03      	ldr	r5, [sp, #12]
10007800:	002a      	movs	r2, r5
10007802:	0031      	movs	r1, r6
10007804:	3013      	adds	r0, #19
10007806:	f001 fd4b 	bl	100092a0 <tu_edpt_bind_driver>
1000780a:	46ac      	mov	ip, r5
1000780c:	4466      	add	r6, ip
1000780e:	4b2f      	ldr	r3, [pc, #188]	; (100078cc <process_set_config+0x174>)
10007810:	781b      	ldrb	r3, [r3, #0]
10007812:	3302      	adds	r3, #2
10007814:	9a02      	ldr	r2, [sp, #8]
10007816:	429a      	cmp	r2, r3
10007818:	ddcb      	ble.n	100077b2 <process_set_config+0x5a>
1000781a:	2000      	movs	r0, #0
1000781c:	e03f      	b.n	1000789e <process_set_config+0x146>
1000781e:	3501      	adds	r5, #1
10007820:	b2ed      	uxtb	r5, r5
10007822:	4b2a      	ldr	r3, [pc, #168]	; (100078cc <process_set_config+0x174>)
10007824:	781b      	ldrb	r3, [r3, #0]
10007826:	1c9a      	adds	r2, r3, #2
10007828:	9502      	str	r5, [sp, #8]
1000782a:	42aa      	cmp	r2, r5
1000782c:	dbef      	blt.n	1000780e <process_set_config+0xb6>
1000782e:	4a28      	ldr	r2, [pc, #160]	; (100078d0 <process_set_config+0x178>)
10007830:	2a00      	cmp	r2, #0
10007832:	d0da      	beq.n	100077ea <process_set_config+0x92>
10007834:	42ab      	cmp	r3, r5
10007836:	d8d1      	bhi.n	100077dc <process_set_config+0x84>
10007838:	1aeb      	subs	r3, r5, r3
1000783a:	b2db      	uxtb	r3, r3
1000783c:	2b02      	cmp	r3, #2
1000783e:	d836      	bhi.n	100078ae <process_set_config+0x156>
10007840:	005f      	lsls	r7, r3, #1
10007842:	18fb      	adds	r3, r7, r3
10007844:	00db      	lsls	r3, r3, #3
10007846:	4f23      	ldr	r7, [pc, #140]	; (100078d4 <process_set_config+0x17c>)
10007848:	18ff      	adds	r7, r7, r3
1000784a:	2f00      	cmp	r7, #0
1000784c:	d031      	beq.n	100078b2 <process_set_config+0x15a>
1000784e:	464a      	mov	r2, r9
10007850:	0031      	movs	r1, r6
10007852:	9801      	ldr	r0, [sp, #4]
10007854:	68bb      	ldr	r3, [r7, #8]
10007856:	4798      	blx	r3
10007858:	9003      	str	r0, [sp, #12]
1000785a:	2808      	cmp	r0, #8
1000785c:	d9df      	bls.n	1000781e <process_set_config+0xc6>
1000785e:	4581      	cmp	r9, r0
10007860:	d3dd      	bcc.n	1000781e <process_set_config+0xc6>
10007862:	465b      	mov	r3, fp
10007864:	2b01      	cmp	r3, #1
10007866:	d0c2      	beq.n	100077ee <process_set_config+0x96>
10007868:	2100      	movs	r1, #0
1000786a:	458b      	cmp	fp, r1
1000786c:	d9c5      	bls.n	100077fa <process_set_config+0xa2>
1000786e:	78b3      	ldrb	r3, [r6, #2]
10007870:	185b      	adds	r3, r3, r1
10007872:	b2db      	uxtb	r3, r3
10007874:	4a12      	ldr	r2, [pc, #72]	; (100078c0 <process_set_config+0x168>)
10007876:	18d2      	adds	r2, r2, r3
10007878:	78d2      	ldrb	r2, [r2, #3]
1000787a:	2aff      	cmp	r2, #255	; 0xff
1000787c:	d11b      	bne.n	100078b6 <process_set_config+0x15e>
1000787e:	4a10      	ldr	r2, [pc, #64]	; (100078c0 <process_set_config+0x168>)
10007880:	18d3      	adds	r3, r2, r3
10007882:	70dd      	strb	r5, [r3, #3]
10007884:	3101      	adds	r1, #1
10007886:	b2c9      	uxtb	r1, r1
10007888:	e7ef      	b.n	1000786a <process_set_config+0x112>
1000788a:	4b13      	ldr	r3, [pc, #76]	; (100078d8 <process_set_config+0x180>)
1000788c:	2b00      	cmp	r3, #0
1000788e:	d014      	beq.n	100078ba <process_set_config+0x162>
10007890:	e000      	b.n	10007894 <process_set_config+0x13c>
10007892:	bf00      	nop
10007894:	2001      	movs	r0, #1
10007896:	e002      	b.n	1000789e <process_set_config+0x146>
10007898:	2000      	movs	r0, #0
1000789a:	e000      	b.n	1000789e <process_set_config+0x146>
1000789c:	2000      	movs	r0, #0
1000789e:	b004      	add	sp, #16
100078a0:	bce0      	pop	{r5, r6, r7}
100078a2:	46bb      	mov	fp, r7
100078a4:	46b2      	mov	sl, r6
100078a6:	46a9      	mov	r9, r5
100078a8:	bdf0      	pop	{r4, r5, r6, r7, pc}
100078aa:	2000      	movs	r0, #0
100078ac:	e7f7      	b.n	1000789e <process_set_config+0x146>
100078ae:	2000      	movs	r0, #0
100078b0:	e7f5      	b.n	1000789e <process_set_config+0x146>
100078b2:	2000      	movs	r0, #0
100078b4:	e7f3      	b.n	1000789e <process_set_config+0x146>
100078b6:	2000      	movs	r0, #0
100078b8:	e7f1      	b.n	1000789e <process_set_config+0x146>
100078ba:	2001      	movs	r0, #1
100078bc:	e7ef      	b.n	1000789e <process_set_config+0x146>
100078be:	46c0      	nop			; (mov r8, r8)
100078c0:	200018e0 	.word	0x200018e0
100078c4:	2000106c 	.word	0x2000106c
100078c8:	10008679 	.word	0x10008679
100078cc:	2000272c 	.word	0x2000272c
100078d0:	10000e95 	.word	0x10000e95
100078d4:	1000bcbc 	.word	0x1000bcbc
100078d8:	00000000 	.word	0x00000000

100078dc <process_get_descriptor>:
100078dc:	b570      	push	{r4, r5, r6, lr}
100078de:	0005      	movs	r5, r0
100078e0:	000c      	movs	r4, r1
100078e2:	78cb      	ldrb	r3, [r1, #3]
100078e4:	7888      	ldrb	r0, [r1, #2]
100078e6:	2b0f      	cmp	r3, #15
100078e8:	d850      	bhi.n	1000798c <process_get_descriptor+0xb0>
100078ea:	009a      	lsls	r2, r3, #2
100078ec:	492e      	ldr	r1, [pc, #184]	; (100079a8 <process_get_descriptor+0xcc>)
100078ee:	588a      	ldr	r2, [r1, r2]
100078f0:	4697      	mov	pc, r2
100078f2:	f7f9 f9f3 	bl	10000cdc <tud_descriptor_device_cb>
100078f6:	0002      	movs	r2, r0
100078f8:	2312      	movs	r3, #18
100078fa:	0021      	movs	r1, r4
100078fc:	0028      	movs	r0, r5
100078fe:	f000 fced 	bl	100082dc <tud_control_xfer>
10007902:	e044      	b.n	1000798e <process_get_descriptor+0xb2>
10007904:	4b29      	ldr	r3, [pc, #164]	; (100079ac <process_get_descriptor+0xd0>)
10007906:	2b00      	cmp	r3, #0
10007908:	d042      	beq.n	10007990 <process_get_descriptor+0xb4>
1000790a:	f7f9 f80f 	bl	1000092c <tud_descriptor_bos_cb>
1000790e:	1e02      	subs	r2, r0, #0
10007910:	d040      	beq.n	10007994 <process_get_descriptor+0xb8>
10007912:	7881      	ldrb	r1, [r0, #2]
10007914:	78c3      	ldrb	r3, [r0, #3]
10007916:	021b      	lsls	r3, r3, #8
10007918:	430b      	orrs	r3, r1
1000791a:	0021      	movs	r1, r4
1000791c:	0028      	movs	r0, r5
1000791e:	f000 fcdd 	bl	100082dc <tud_control_xfer>
10007922:	e034      	b.n	1000798e <process_get_descriptor+0xb2>
10007924:	2b02      	cmp	r3, #2
10007926:	d009      	beq.n	1000793c <process_get_descriptor+0x60>
10007928:	4b21      	ldr	r3, [pc, #132]	; (100079b0 <process_get_descriptor+0xd4>)
1000792a:	2b00      	cmp	r3, #0
1000792c:	d034      	beq.n	10007998 <process_get_descriptor+0xbc>
1000792e:	e000      	b.n	10007932 <process_get_descriptor+0x56>
10007930:	bf00      	nop
10007932:	0002      	movs	r2, r0
10007934:	2a00      	cmp	r2, #0
10007936:	d105      	bne.n	10007944 <process_get_descriptor+0x68>
10007938:	2000      	movs	r0, #0
1000793a:	e028      	b.n	1000798e <process_get_descriptor+0xb2>
1000793c:	f7f9 f9e8 	bl	10000d10 <tud_descriptor_configuration_cb>
10007940:	0002      	movs	r2, r0
10007942:	e7f7      	b.n	10007934 <process_get_descriptor+0x58>
10007944:	7891      	ldrb	r1, [r2, #2]
10007946:	78d3      	ldrb	r3, [r2, #3]
10007948:	021b      	lsls	r3, r3, #8
1000794a:	430b      	orrs	r3, r1
1000794c:	0021      	movs	r1, r4
1000794e:	0028      	movs	r0, r5
10007950:	f000 fcc4 	bl	100082dc <tud_control_xfer>
10007954:	e01b      	b.n	1000798e <process_get_descriptor+0xb2>
10007956:	7923      	ldrb	r3, [r4, #4]
10007958:	7961      	ldrb	r1, [r4, #5]
1000795a:	0209      	lsls	r1, r1, #8
1000795c:	4319      	orrs	r1, r3
1000795e:	f7f9 faa9 	bl	10000eb4 <tud_descriptor_string_cb>
10007962:	1e02      	subs	r2, r0, #0
10007964:	d01a      	beq.n	1000799c <process_get_descriptor+0xc0>
10007966:	7803      	ldrb	r3, [r0, #0]
10007968:	0021      	movs	r1, r4
1000796a:	0028      	movs	r0, r5
1000796c:	f000 fcb6 	bl	100082dc <tud_control_xfer>
10007970:	e00d      	b.n	1000798e <process_get_descriptor+0xb2>
10007972:	4b10      	ldr	r3, [pc, #64]	; (100079b4 <process_get_descriptor+0xd8>)
10007974:	2b00      	cmp	r3, #0
10007976:	d013      	beq.n	100079a0 <process_get_descriptor+0xc4>
10007978:	e000      	b.n	1000797c <process_get_descriptor+0xa0>
1000797a:	bf00      	nop
1000797c:	1e02      	subs	r2, r0, #0
1000797e:	d011      	beq.n	100079a4 <process_get_descriptor+0xc8>
10007980:	7803      	ldrb	r3, [r0, #0]
10007982:	0021      	movs	r1, r4
10007984:	0028      	movs	r0, r5
10007986:	f000 fca9 	bl	100082dc <tud_control_xfer>
1000798a:	e000      	b.n	1000798e <process_get_descriptor+0xb2>
1000798c:	2000      	movs	r0, #0
1000798e:	bd70      	pop	{r4, r5, r6, pc}
10007990:	2000      	movs	r0, #0
10007992:	e7fc      	b.n	1000798e <process_get_descriptor+0xb2>
10007994:	2000      	movs	r0, #0
10007996:	e7fa      	b.n	1000798e <process_get_descriptor+0xb2>
10007998:	2000      	movs	r0, #0
1000799a:	e7f8      	b.n	1000798e <process_get_descriptor+0xb2>
1000799c:	2000      	movs	r0, #0
1000799e:	e7f6      	b.n	1000798e <process_get_descriptor+0xb2>
100079a0:	2000      	movs	r0, #0
100079a2:	e7f4      	b.n	1000798e <process_get_descriptor+0xb2>
100079a4:	2000      	movs	r0, #0
100079a6:	e7f2      	b.n	1000798e <process_get_descriptor+0xb2>
100079a8:	1000bc30 	.word	0x1000bc30
100079ac:	1000092d 	.word	0x1000092d
	...

100079b8 <tud_mounted>:
100079b8:	4b02      	ldr	r3, [pc, #8]	; (100079c4 <tud_mounted+0xc>)
100079ba:	7858      	ldrb	r0, [r3, #1]
100079bc:	1e43      	subs	r3, r0, #1
100079be:	4198      	sbcs	r0, r3
100079c0:	b2c0      	uxtb	r0, r0
100079c2:	4770      	bx	lr
100079c4:	200018e0 	.word	0x200018e0

100079c8 <tud_suspended>:
100079c8:	4b02      	ldr	r3, [pc, #8]	; (100079d4 <tud_suspended+0xc>)
100079ca:	7818      	ldrb	r0, [r3, #0]
100079cc:	0740      	lsls	r0, r0, #29
100079ce:	0fc0      	lsrs	r0, r0, #31
100079d0:	4770      	bx	lr
100079d2:	46c0      	nop			; (mov r8, r8)
100079d4:	200018e0 	.word	0x200018e0

100079d8 <tud_remote_wakeup>:
100079d8:	b510      	push	{r4, lr}
100079da:	4b0a      	ldr	r3, [pc, #40]	; (10007a04 <tud_remote_wakeup+0x2c>)
100079dc:	781b      	ldrb	r3, [r3, #0]
100079de:	075b      	lsls	r3, r3, #29
100079e0:	0fdc      	lsrs	r4, r3, #31
100079e2:	2b00      	cmp	r3, #0
100079e4:	da06      	bge.n	100079f4 <tud_remote_wakeup+0x1c>
100079e6:	4b07      	ldr	r3, [pc, #28]	; (10007a04 <tud_remote_wakeup+0x2c>)
100079e8:	781a      	ldrb	r2, [r3, #0]
100079ea:	2318      	movs	r3, #24
100079ec:	4013      	ands	r3, r2
100079ee:	2b18      	cmp	r3, #24
100079f0:	d002      	beq.n	100079f8 <tud_remote_wakeup+0x20>
100079f2:	2400      	movs	r4, #0
100079f4:	0020      	movs	r0, r4
100079f6:	bd10      	pop	{r4, pc}
100079f8:	4b03      	ldr	r3, [pc, #12]	; (10007a08 <tud_remote_wakeup+0x30>)
100079fa:	7818      	ldrb	r0, [r3, #0]
100079fc:	f7ff fd30 	bl	10007460 <dcd_remote_wakeup>
10007a00:	e7f8      	b.n	100079f4 <tud_remote_wakeup+0x1c>
10007a02:	46c0      	nop			; (mov r8, r8)
10007a04:	200018e0 	.word	0x200018e0
10007a08:	20000ee4 	.word	0x20000ee4

10007a0c <tud_inited>:
10007a0c:	4b03      	ldr	r3, [pc, #12]	; (10007a1c <tud_inited+0x10>)
10007a0e:	7818      	ldrb	r0, [r3, #0]
10007a10:	38ff      	subs	r0, #255	; 0xff
10007a12:	1e43      	subs	r3, r0, #1
10007a14:	4198      	sbcs	r0, r3
10007a16:	b2c0      	uxtb	r0, r0
10007a18:	4770      	bx	lr
10007a1a:	46c0      	nop			; (mov r8, r8)
10007a1c:	20000ee4 	.word	0x20000ee4

10007a20 <tud_init>:
10007a20:	b570      	push	{r4, r5, r6, lr}
10007a22:	0004      	movs	r4, r0
10007a24:	f7ff fff2 	bl	10007a0c <tud_inited>
10007a28:	1e06      	subs	r6, r0, #0
10007a2a:	d001      	beq.n	10007a30 <tud_init+0x10>
10007a2c:	0030      	movs	r0, r6
10007a2e:	bd70      	pop	{r4, r5, r6, pc}
10007a30:	2253      	movs	r2, #83	; 0x53
10007a32:	2100      	movs	r1, #0
10007a34:	4824      	ldr	r0, [pc, #144]	; (10007ac8 <tud_init+0xa8>)
10007a36:	f7ff f811 	bl	10006a5c <__wrap_memset>
10007a3a:	4d24      	ldr	r5, [pc, #144]	; (10007acc <tud_init+0xac>)
10007a3c:	0028      	movs	r0, r5
10007a3e:	f7fb fb43 	bl	100030c8 <mutex_init>
10007a42:	4b23      	ldr	r3, [pc, #140]	; (10007ad0 <tud_init+0xb0>)
10007a44:	601d      	str	r5, [r3, #0]
10007a46:	4d23      	ldr	r5, [pc, #140]	; (10007ad4 <tud_init+0xb4>)
10007a48:	0028      	movs	r0, r5
10007a4a:	3014      	adds	r0, #20
10007a4c:	f7fb fb62 	bl	10003114 <critical_section_init>
10007a50:	0028      	movs	r0, r5
10007a52:	f001 ff7a 	bl	1000994a <tu_fifo_clear>
10007a56:	4b20      	ldr	r3, [pc, #128]	; (10007ad8 <tud_init+0xb8>)
10007a58:	601d      	str	r5, [r3, #0]
10007a5a:	4b20      	ldr	r3, [pc, #128]	; (10007adc <tud_init+0xbc>)
10007a5c:	2b00      	cmp	r3, #0
10007a5e:	d004      	beq.n	10007a6a <tud_init+0x4a>
10007a60:	481f      	ldr	r0, [pc, #124]	; (10007ae0 <tud_init+0xc0>)
10007a62:	f7f9 fa17 	bl	10000e94 <usbd_app_driver_get_cb>
10007a66:	4b1f      	ldr	r3, [pc, #124]	; (10007ae4 <tud_init+0xc4>)
10007a68:	6018      	str	r0, [r3, #0]
10007a6a:	2500      	movs	r5, #0
10007a6c:	e00b      	b.n	10007a86 <tud_init+0x66>
10007a6e:	006b      	lsls	r3, r5, #1
10007a70:	195b      	adds	r3, r3, r5
10007a72:	00da      	lsls	r2, r3, #3
10007a74:	4b1b      	ldr	r3, [pc, #108]	; (10007ae4 <tud_init+0xc4>)
10007a76:	681b      	ldr	r3, [r3, #0]
10007a78:	189b      	adds	r3, r3, r2
10007a7a:	2b00      	cmp	r3, #0
10007a7c:	d0d6      	beq.n	10007a2c <tud_init+0xc>
10007a7e:	681b      	ldr	r3, [r3, #0]
10007a80:	4798      	blx	r3
10007a82:	3501      	adds	r5, #1
10007a84:	b2ed      	uxtb	r5, r5
10007a86:	4b16      	ldr	r3, [pc, #88]	; (10007ae0 <tud_init+0xc0>)
10007a88:	781b      	ldrb	r3, [r3, #0]
10007a8a:	1c9a      	adds	r2, r3, #2
10007a8c:	42aa      	cmp	r2, r5
10007a8e:	db10      	blt.n	10007ab2 <tud_init+0x92>
10007a90:	4a12      	ldr	r2, [pc, #72]	; (10007adc <tud_init+0xbc>)
10007a92:	2a00      	cmp	r2, #0
10007a94:	d00b      	beq.n	10007aae <tud_init+0x8e>
10007a96:	42ab      	cmp	r3, r5
10007a98:	d8e9      	bhi.n	10007a6e <tud_init+0x4e>
10007a9a:	1aeb      	subs	r3, r5, r3
10007a9c:	b2db      	uxtb	r3, r3
10007a9e:	2b02      	cmp	r3, #2
10007aa0:	d8c4      	bhi.n	10007a2c <tud_init+0xc>
10007aa2:	005a      	lsls	r2, r3, #1
10007aa4:	18d2      	adds	r2, r2, r3
10007aa6:	00d2      	lsls	r2, r2, #3
10007aa8:	4b0f      	ldr	r3, [pc, #60]	; (10007ae8 <tud_init+0xc8>)
10007aaa:	189b      	adds	r3, r3, r2
10007aac:	e7e5      	b.n	10007a7a <tud_init+0x5a>
10007aae:	002b      	movs	r3, r5
10007ab0:	e7f5      	b.n	10007a9e <tud_init+0x7e>
10007ab2:	4b0e      	ldr	r3, [pc, #56]	; (10007aec <tud_init+0xcc>)
10007ab4:	701c      	strb	r4, [r3, #0]
10007ab6:	0020      	movs	r0, r4
10007ab8:	f7ff fcf6 	bl	100074a8 <dcd_init>
10007abc:	0020      	movs	r0, r4
10007abe:	f7ff fca3 	bl	10007408 <dcd_int_enable>
10007ac2:	2601      	movs	r6, #1
10007ac4:	e7b2      	b.n	10007a2c <tud_init+0xc>
10007ac6:	46c0      	nop			; (mov r8, r8)
10007ac8:	200018e0 	.word	0x200018e0
10007acc:	20001890 	.word	0x20001890
10007ad0:	20001934 	.word	0x20001934
10007ad4:	20000ec8 	.word	0x20000ec8
10007ad8:	20001938 	.word	0x20001938
10007adc:	10000e95 	.word	0x10000e95
10007ae0:	2000272c 	.word	0x2000272c
10007ae4:	2000106c 	.word	0x2000106c
10007ae8:	1000bcbc 	.word	0x1000bcbc
10007aec:	20000ee4 	.word	0x20000ee4

10007af0 <usbd_edpt_open>:
10007af0:	b570      	push	{r4, r5, r6, lr}
10007af2:	000c      	movs	r4, r1
10007af4:	4b09      	ldr	r3, [pc, #36]	; (10007b1c <usbd_edpt_open+0x2c>)
10007af6:	781d      	ldrb	r5, [r3, #0]
10007af8:	788b      	ldrb	r3, [r1, #2]
10007afa:	2270      	movs	r2, #112	; 0x70
10007afc:	421a      	tst	r2, r3
10007afe:	d001      	beq.n	10007b04 <usbd_edpt_open+0x14>
10007b00:	2000      	movs	r0, #0
10007b02:	bd70      	pop	{r4, r5, r6, pc}
10007b04:	4b06      	ldr	r3, [pc, #24]	; (10007b20 <usbd_edpt_open+0x30>)
10007b06:	7899      	ldrb	r1, [r3, #2]
10007b08:	0020      	movs	r0, r4
10007b0a:	f001 fb8d 	bl	10009228 <tu_edpt_validate>
10007b0e:	2800      	cmp	r0, #0
10007b10:	d0f7      	beq.n	10007b02 <usbd_edpt_open+0x12>
10007b12:	0021      	movs	r1, r4
10007b14:	0028      	movs	r0, r5
10007b16:	f7ff fd15 	bl	10007544 <dcd_edpt_open>
10007b1a:	e7f2      	b.n	10007b02 <usbd_edpt_open+0x12>
10007b1c:	20000ee4 	.word	0x20000ee4
10007b20:	200018e0 	.word	0x200018e0

10007b24 <usbd_open_edpt_pair>:
10007b24:	b5f8      	push	{r3, r4, r5, r6, r7, lr}
10007b26:	46ce      	mov	lr, r9
10007b28:	4647      	mov	r7, r8
10007b2a:	b580      	push	{r7, lr}
10007b2c:	4681      	mov	r9, r0
10007b2e:	000c      	movs	r4, r1
10007b30:	0017      	movs	r7, r2
10007b32:	001e      	movs	r6, r3
10007b34:	9b08      	ldr	r3, [sp, #32]
10007b36:	4698      	mov	r8, r3
10007b38:	2500      	movs	r5, #0
10007b3a:	e004      	b.n	10007b46 <usbd_open_edpt_pair+0x22>
10007b3c:	9a09      	ldr	r2, [sp, #36]	; 0x24
10007b3e:	7013      	strb	r3, [r2, #0]
10007b40:	7823      	ldrb	r3, [r4, #0]
10007b42:	18e4      	adds	r4, r4, r3
10007b44:	3501      	adds	r5, #1
10007b46:	42af      	cmp	r7, r5
10007b48:	dd14      	ble.n	10007b74 <usbd_open_edpt_pair+0x50>
10007b4a:	7863      	ldrb	r3, [r4, #1]
10007b4c:	2b05      	cmp	r3, #5
10007b4e:	d116      	bne.n	10007b7e <usbd_open_edpt_pair+0x5a>
10007b50:	78e1      	ldrb	r1, [r4, #3]
10007b52:	0789      	lsls	r1, r1, #30
10007b54:	0f89      	lsrs	r1, r1, #30
10007b56:	42b1      	cmp	r1, r6
10007b58:	d113      	bne.n	10007b82 <usbd_open_edpt_pair+0x5e>
10007b5a:	0021      	movs	r1, r4
10007b5c:	4648      	mov	r0, r9
10007b5e:	f7ff ffc7 	bl	10007af0 <usbd_edpt_open>
10007b62:	2800      	cmp	r0, #0
10007b64:	d007      	beq.n	10007b76 <usbd_open_edpt_pair+0x52>
10007b66:	78a3      	ldrb	r3, [r4, #2]
10007b68:	09da      	lsrs	r2, r3, #7
10007b6a:	2a01      	cmp	r2, #1
10007b6c:	d0e6      	beq.n	10007b3c <usbd_open_edpt_pair+0x18>
10007b6e:	4642      	mov	r2, r8
10007b70:	7013      	strb	r3, [r2, #0]
10007b72:	e7e5      	b.n	10007b40 <usbd_open_edpt_pair+0x1c>
10007b74:	2001      	movs	r0, #1
10007b76:	bcc0      	pop	{r6, r7}
10007b78:	46b9      	mov	r9, r7
10007b7a:	46b0      	mov	r8, r6
10007b7c:	bdf8      	pop	{r3, r4, r5, r6, r7, pc}
10007b7e:	2000      	movs	r0, #0
10007b80:	e7f9      	b.n	10007b76 <usbd_open_edpt_pair+0x52>
10007b82:	2000      	movs	r0, #0
10007b84:	e7f7      	b.n	10007b76 <usbd_open_edpt_pair+0x52>
	...

10007b88 <usbd_edpt_claim>:
10007b88:	b510      	push	{r4, lr}
10007b8a:	207f      	movs	r0, #127	; 0x7f
10007b8c:	4008      	ands	r0, r1
10007b8e:	09c9      	lsrs	r1, r1, #7
10007b90:	0040      	lsls	r0, r0, #1
10007b92:	1840      	adds	r0, r0, r1
10007b94:	3030      	adds	r0, #48	; 0x30
10007b96:	4904      	ldr	r1, [pc, #16]	; (10007ba8 <usbd_edpt_claim+0x20>)
10007b98:	1808      	adds	r0, r1, r0
10007b9a:	3003      	adds	r0, #3
10007b9c:	4b03      	ldr	r3, [pc, #12]	; (10007bac <usbd_edpt_claim+0x24>)
10007b9e:	6819      	ldr	r1, [r3, #0]
10007ba0:	f001 fafc 	bl	1000919c <tu_edpt_claim>
10007ba4:	bd10      	pop	{r4, pc}
10007ba6:	46c0      	nop			; (mov r8, r8)
10007ba8:	200018e0 	.word	0x200018e0
10007bac:	20001934 	.word	0x20001934

10007bb0 <usbd_edpt_release>:
10007bb0:	b510      	push	{r4, lr}
10007bb2:	207f      	movs	r0, #127	; 0x7f
10007bb4:	4008      	ands	r0, r1
10007bb6:	09c9      	lsrs	r1, r1, #7
10007bb8:	0040      	lsls	r0, r0, #1
10007bba:	1840      	adds	r0, r0, r1
10007bbc:	3030      	adds	r0, #48	; 0x30
10007bbe:	4904      	ldr	r1, [pc, #16]	; (10007bd0 <usbd_edpt_release+0x20>)
10007bc0:	1808      	adds	r0, r1, r0
10007bc2:	3003      	adds	r0, #3
10007bc4:	4b03      	ldr	r3, [pc, #12]	; (10007bd4 <usbd_edpt_release+0x24>)
10007bc6:	6819      	ldr	r1, [r3, #0]
10007bc8:	f001 fb10 	bl	100091ec <tu_edpt_release>
10007bcc:	bd10      	pop	{r4, pc}
10007bce:	46c0      	nop			; (mov r8, r8)
10007bd0:	200018e0 	.word	0x200018e0
10007bd4:	20001934 	.word	0x20001934

10007bd8 <usbd_edpt_xfer>:
10007bd8:	b5f8      	push	{r3, r4, r5, r6, r7, lr}
10007bda:	46ce      	mov	lr, r9
10007bdc:	4647      	mov	r7, r8
10007bde:	b580      	push	{r7, lr}
10007be0:	4819      	ldr	r0, [pc, #100]	; (10007c48 <usbd_edpt_xfer+0x70>)
10007be2:	7800      	ldrb	r0, [r0, #0]
10007be4:	257f      	movs	r5, #127	; 0x7f
10007be6:	400d      	ands	r5, r1
10007be8:	09ce      	lsrs	r6, r1, #7
10007bea:	006f      	lsls	r7, r5, #1
10007bec:	4c17      	ldr	r4, [pc, #92]	; (10007c4c <usbd_edpt_xfer+0x74>)
10007bee:	19e4      	adds	r4, r4, r7
10007bf0:	19a4      	adds	r4, r4, r6
10007bf2:	3430      	adds	r4, #48	; 0x30
10007bf4:	78e4      	ldrb	r4, [r4, #3]
10007bf6:	07e4      	lsls	r4, r4, #31
10007bf8:	d504      	bpl.n	10007c04 <usbd_edpt_xfer+0x2c>
10007bfa:	2000      	movs	r0, #0
10007bfc:	bcc0      	pop	{r6, r7}
10007bfe:	46b9      	mov	r9, r7
10007c00:	46b0      	mov	r8, r6
10007c02:	bdf8      	pop	{r3, r4, r5, r6, r7, pc}
10007c04:	4c11      	ldr	r4, [pc, #68]	; (10007c4c <usbd_edpt_xfer+0x74>)
10007c06:	19e4      	adds	r4, r4, r7
10007c08:	19a4      	adds	r4, r4, r6
10007c0a:	2730      	movs	r7, #48	; 0x30
10007c0c:	46b9      	mov	r9, r7
10007c0e:	44a1      	add	r9, r4
10007c10:	464c      	mov	r4, r9
10007c12:	78e4      	ldrb	r4, [r4, #3]
10007c14:	2701      	movs	r7, #1
10007c16:	46bc      	mov	ip, r7
10007c18:	4667      	mov	r7, ip
10007c1a:	433c      	orrs	r4, r7
10007c1c:	0027      	movs	r7, r4
10007c1e:	464c      	mov	r4, r9
10007c20:	70e7      	strb	r7, [r4, #3]
10007c22:	f7ff fcb3 	bl	1000758c <dcd_edpt_xfer>
10007c26:	2800      	cmp	r0, #0
10007c28:	d1e8      	bne.n	10007bfc <usbd_edpt_xfer+0x24>
10007c2a:	006d      	lsls	r5, r5, #1
10007c2c:	4b07      	ldr	r3, [pc, #28]	; (10007c4c <usbd_edpt_xfer+0x74>)
10007c2e:	195d      	adds	r5, r3, r5
10007c30:	19ae      	adds	r6, r5, r6
10007c32:	3630      	adds	r6, #48	; 0x30
10007c34:	78f3      	ldrb	r3, [r6, #3]
10007c36:	2201      	movs	r2, #1
10007c38:	4393      	bics	r3, r2
10007c3a:	70f3      	strb	r3, [r6, #3]
10007c3c:	78f3      	ldrb	r3, [r6, #3]
10007c3e:	3203      	adds	r2, #3
10007c40:	4393      	bics	r3, r2
10007c42:	70f3      	strb	r3, [r6, #3]
10007c44:	e7da      	b.n	10007bfc <usbd_edpt_xfer+0x24>
10007c46:	46c0      	nop			; (mov r8, r8)
10007c48:	20000ee4 	.word	0x20000ee4
10007c4c:	200018e0 	.word	0x200018e0

10007c50 <usbd_edpt_busy>:
10007c50:	227f      	movs	r2, #127	; 0x7f
10007c52:	400a      	ands	r2, r1
10007c54:	09cb      	lsrs	r3, r1, #7
10007c56:	0052      	lsls	r2, r2, #1
10007c58:	4903      	ldr	r1, [pc, #12]	; (10007c68 <usbd_edpt_busy+0x18>)
10007c5a:	1889      	adds	r1, r1, r2
10007c5c:	18c9      	adds	r1, r1, r3
10007c5e:	3130      	adds	r1, #48	; 0x30
10007c60:	78c8      	ldrb	r0, [r1, #3]
10007c62:	07c0      	lsls	r0, r0, #31
10007c64:	0fc0      	lsrs	r0, r0, #31
10007c66:	4770      	bx	lr
10007c68:	200018e0 	.word	0x200018e0

10007c6c <usbd_edpt_stall>:
10007c6c:	b570      	push	{r4, r5, r6, lr}
10007c6e:	4b0f      	ldr	r3, [pc, #60]	; (10007cac <usbd_edpt_stall+0x40>)
10007c70:	7818      	ldrb	r0, [r3, #0]
10007c72:	247f      	movs	r4, #127	; 0x7f
10007c74:	400c      	ands	r4, r1
10007c76:	09cd      	lsrs	r5, r1, #7
10007c78:	0062      	lsls	r2, r4, #1
10007c7a:	4b0d      	ldr	r3, [pc, #52]	; (10007cb0 <usbd_edpt_stall+0x44>)
10007c7c:	189b      	adds	r3, r3, r2
10007c7e:	195b      	adds	r3, r3, r5
10007c80:	3330      	adds	r3, #48	; 0x30
10007c82:	78db      	ldrb	r3, [r3, #3]
10007c84:	079b      	lsls	r3, r3, #30
10007c86:	d500      	bpl.n	10007c8a <usbd_edpt_stall+0x1e>
10007c88:	bd70      	pop	{r4, r5, r6, pc}
10007c8a:	f7ff fc99 	bl	100075c0 <dcd_edpt_stall>
10007c8e:	0063      	lsls	r3, r4, #1
10007c90:	4c07      	ldr	r4, [pc, #28]	; (10007cb0 <usbd_edpt_stall+0x44>)
10007c92:	18e4      	adds	r4, r4, r3
10007c94:	1964      	adds	r4, r4, r5
10007c96:	3430      	adds	r4, #48	; 0x30
10007c98:	78e3      	ldrb	r3, [r4, #3]
10007c9a:	2202      	movs	r2, #2
10007c9c:	4313      	orrs	r3, r2
10007c9e:	70e3      	strb	r3, [r4, #3]
10007ca0:	78e3      	ldrb	r3, [r4, #3]
10007ca2:	2201      	movs	r2, #1
10007ca4:	4313      	orrs	r3, r2
10007ca6:	70e3      	strb	r3, [r4, #3]
10007ca8:	e7ee      	b.n	10007c88 <usbd_edpt_stall+0x1c>
10007caa:	46c0      	nop			; (mov r8, r8)
10007cac:	20000ee4 	.word	0x20000ee4
10007cb0:	200018e0 	.word	0x200018e0

10007cb4 <usbd_edpt_clear_stall>:
10007cb4:	b570      	push	{r4, r5, r6, lr}
10007cb6:	4b0f      	ldr	r3, [pc, #60]	; (10007cf4 <usbd_edpt_clear_stall+0x40>)
10007cb8:	7818      	ldrb	r0, [r3, #0]
10007cba:	247f      	movs	r4, #127	; 0x7f
10007cbc:	400c      	ands	r4, r1
10007cbe:	09cd      	lsrs	r5, r1, #7
10007cc0:	0062      	lsls	r2, r4, #1
10007cc2:	4b0d      	ldr	r3, [pc, #52]	; (10007cf8 <usbd_edpt_clear_stall+0x44>)
10007cc4:	189b      	adds	r3, r3, r2
10007cc6:	195b      	adds	r3, r3, r5
10007cc8:	3330      	adds	r3, #48	; 0x30
10007cca:	78db      	ldrb	r3, [r3, #3]
10007ccc:	079b      	lsls	r3, r3, #30
10007cce:	d400      	bmi.n	10007cd2 <usbd_edpt_clear_stall+0x1e>
10007cd0:	bd70      	pop	{r4, r5, r6, pc}
10007cd2:	f7ff fc8b 	bl	100075ec <dcd_edpt_clear_stall>
10007cd6:	0063      	lsls	r3, r4, #1
10007cd8:	4c07      	ldr	r4, [pc, #28]	; (10007cf8 <usbd_edpt_clear_stall+0x44>)
10007cda:	18e4      	adds	r4, r4, r3
10007cdc:	1964      	adds	r4, r4, r5
10007cde:	3430      	adds	r4, #48	; 0x30
10007ce0:	78e3      	ldrb	r3, [r4, #3]
10007ce2:	2202      	movs	r2, #2
10007ce4:	4393      	bics	r3, r2
10007ce6:	70e3      	strb	r3, [r4, #3]
10007ce8:	78e3      	ldrb	r3, [r4, #3]
10007cea:	3a01      	subs	r2, #1
10007cec:	4393      	bics	r3, r2
10007cee:	70e3      	strb	r3, [r4, #3]
10007cf0:	e7ee      	b.n	10007cd0 <usbd_edpt_clear_stall+0x1c>
10007cf2:	46c0      	nop			; (mov r8, r8)
10007cf4:	20000ee4 	.word	0x20000ee4
10007cf8:	200018e0 	.word	0x200018e0

10007cfc <usbd_edpt_stalled>:
10007cfc:	227f      	movs	r2, #127	; 0x7f
10007cfe:	400a      	ands	r2, r1
10007d00:	09cb      	lsrs	r3, r1, #7
10007d02:	0052      	lsls	r2, r2, #1
10007d04:	4903      	ldr	r1, [pc, #12]	; (10007d14 <usbd_edpt_stalled+0x18>)
10007d06:	1889      	adds	r1, r1, r2
10007d08:	18c9      	adds	r1, r1, r3
10007d0a:	3130      	adds	r1, #48	; 0x30
10007d0c:	78c8      	ldrb	r0, [r1, #3]
10007d0e:	0780      	lsls	r0, r0, #30
10007d10:	0fc0      	lsrs	r0, r0, #31
10007d12:	4770      	bx	lr
10007d14:	200018e0 	.word	0x200018e0

10007d18 <process_control_request>:
10007d18:	b5f0      	push	{r4, r5, r6, r7, lr}
10007d1a:	46c6      	mov	lr, r8
10007d1c:	b500      	push	{lr}
10007d1e:	b082      	sub	sp, #8
10007d20:	0005      	movs	r5, r0
10007d22:	000c      	movs	r4, r1
10007d24:	2000      	movs	r0, #0
10007d26:	f000 fb1d 	bl	10008364 <usbd_control_set_complete_callback>
10007d2a:	7823      	ldrb	r3, [r4, #0]
10007d2c:	2260      	movs	r2, #96	; 0x60
10007d2e:	4013      	ands	r3, r2
10007d30:	2b60      	cmp	r3, #96	; 0x60
10007d32:	d100      	bne.n	10007d36 <process_control_request+0x1e>
10007d34:	e185      	b.n	10008042 <process_control_request+0x32a>
10007d36:	2b40      	cmp	r3, #64	; 0x40
10007d38:	d00f      	beq.n	10007d5a <process_control_request+0x42>
10007d3a:	7822      	ldrb	r2, [r4, #0]
10007d3c:	06d2      	lsls	r2, r2, #27
10007d3e:	0ed2      	lsrs	r2, r2, #27
10007d40:	2a01      	cmp	r2, #1
10007d42:	d100      	bne.n	10007d46 <process_control_request+0x2e>
10007d44:	e0c9      	b.n	10007eda <process_control_request+0x1c2>
10007d46:	2a02      	cmp	r2, #2
10007d48:	d100      	bne.n	10007d4c <process_control_request+0x34>
10007d4a:	e10f      	b.n	10007f6c <process_control_request+0x254>
10007d4c:	2a00      	cmp	r2, #0
10007d4e:	d011      	beq.n	10007d74 <process_control_request+0x5c>
10007d50:	2000      	movs	r0, #0
10007d52:	b002      	add	sp, #8
10007d54:	bc80      	pop	{r7}
10007d56:	46b8      	mov	r8, r7
10007d58:	bdf0      	pop	{r4, r5, r6, r7, pc}
10007d5a:	4bc7      	ldr	r3, [pc, #796]	; (10008078 <process_control_request+0x360>)
10007d5c:	2b00      	cmp	r3, #0
10007d5e:	d100      	bne.n	10007d62 <process_control_request+0x4a>
10007d60:	e171      	b.n	10008046 <process_control_request+0x32e>
10007d62:	0018      	movs	r0, r3
10007d64:	f000 fafe 	bl	10008364 <usbd_control_set_complete_callback>
10007d68:	0022      	movs	r2, r4
10007d6a:	2101      	movs	r1, #1
10007d6c:	0028      	movs	r0, r5
10007d6e:	f7f9 f909 	bl	10000f84 <tud_vendor_control_xfer_cb>
10007d72:	e7ee      	b.n	10007d52 <process_control_request+0x3a>
10007d74:	2b20      	cmp	r3, #32
10007d76:	d00a      	beq.n	10007d8e <process_control_request+0x76>
10007d78:	2b00      	cmp	r3, #0
10007d7a:	d000      	beq.n	10007d7e <process_control_request+0x66>
10007d7c:	e16b      	b.n	10008056 <process_control_request+0x33e>
10007d7e:	7863      	ldrb	r3, [r4, #1]
10007d80:	2b09      	cmp	r3, #9
10007d82:	d900      	bls.n	10007d86 <process_control_request+0x6e>
10007d84:	e169      	b.n	1000805a <process_control_request+0x342>
10007d86:	009b      	lsls	r3, r3, #2
10007d88:	4abc      	ldr	r2, [pc, #752]	; (1000807c <process_control_request+0x364>)
10007d8a:	58d3      	ldr	r3, [r2, r3]
10007d8c:	469f      	mov	pc, r3
10007d8e:	7923      	ldrb	r3, [r4, #4]
10007d90:	2b0f      	cmp	r3, #15
10007d92:	d900      	bls.n	10007d96 <process_control_request+0x7e>
10007d94:	e159      	b.n	1000804a <process_control_request+0x332>
10007d96:	4aba      	ldr	r2, [pc, #744]	; (10008080 <process_control_request+0x368>)
10007d98:	18d3      	adds	r3, r2, r3
10007d9a:	78db      	ldrb	r3, [r3, #3]
10007d9c:	4ab9      	ldr	r2, [pc, #740]	; (10008084 <process_control_request+0x36c>)
10007d9e:	2a00      	cmp	r2, #0
10007da0:	d005      	beq.n	10007dae <process_control_request+0x96>
10007da2:	4ab9      	ldr	r2, [pc, #740]	; (10008088 <process_control_request+0x370>)
10007da4:	7812      	ldrb	r2, [r2, #0]
10007da6:	4293      	cmp	r3, r2
10007da8:	d311      	bcc.n	10007dce <process_control_request+0xb6>
10007daa:	1a9b      	subs	r3, r3, r2
10007dac:	b2db      	uxtb	r3, r3
10007dae:	2b02      	cmp	r3, #2
10007db0:	d900      	bls.n	10007db4 <process_control_request+0x9c>
10007db2:	e14c      	b.n	1000804e <process_control_request+0x336>
10007db4:	0059      	lsls	r1, r3, #1
10007db6:	18cb      	adds	r3, r1, r3
10007db8:	00db      	lsls	r3, r3, #3
10007dba:	49b4      	ldr	r1, [pc, #720]	; (1000808c <process_control_request+0x374>)
10007dbc:	18c9      	adds	r1, r1, r3
10007dbe:	2900      	cmp	r1, #0
10007dc0:	d100      	bne.n	10007dc4 <process_control_request+0xac>
10007dc2:	e146      	b.n	10008052 <process_control_request+0x33a>
10007dc4:	0022      	movs	r2, r4
10007dc6:	0028      	movs	r0, r5
10007dc8:	f7ff fcb8 	bl	1000773c <invoke_class_control>
10007dcc:	e7c1      	b.n	10007d52 <process_control_request+0x3a>
10007dce:	0059      	lsls	r1, r3, #1
10007dd0:	18cb      	adds	r3, r1, r3
10007dd2:	00db      	lsls	r3, r3, #3
10007dd4:	4aae      	ldr	r2, [pc, #696]	; (10008090 <process_control_request+0x378>)
10007dd6:	6811      	ldr	r1, [r2, #0]
10007dd8:	18c9      	adds	r1, r1, r3
10007dda:	e7f0      	b.n	10007dbe <process_control_request+0xa6>
10007ddc:	0020      	movs	r0, r4
10007dde:	f000 fac7 	bl	10008370 <usbd_control_set_request>
10007de2:	78a1      	ldrb	r1, [r4, #2]
10007de4:	0028      	movs	r0, r5
10007de6:	f7ff fb25 	bl	10007434 <dcd_set_address>
10007dea:	4aa5      	ldr	r2, [pc, #660]	; (10008080 <process_control_request+0x368>)
10007dec:	7813      	ldrb	r3, [r2, #0]
10007dee:	2102      	movs	r1, #2
10007df0:	430b      	orrs	r3, r1
10007df2:	7013      	strb	r3, [r2, #0]
10007df4:	2001      	movs	r0, #1
10007df6:	e7ac      	b.n	10007d52 <process_control_request+0x3a>
10007df8:	4ba1      	ldr	r3, [pc, #644]	; (10008080 <process_control_request+0x368>)
10007dfa:	785b      	ldrb	r3, [r3, #1]
10007dfc:	466a      	mov	r2, sp
10007dfe:	3206      	adds	r2, #6
10007e00:	7013      	strb	r3, [r2, #0]
10007e02:	2301      	movs	r3, #1
10007e04:	0021      	movs	r1, r4
10007e06:	0028      	movs	r0, r5
10007e08:	f000 fa68 	bl	100082dc <tud_control_xfer>
10007e0c:	2001      	movs	r0, #1
10007e0e:	e7a0      	b.n	10007d52 <process_control_request+0x3a>
10007e10:	78a6      	ldrb	r6, [r4, #2]
10007e12:	4b9b      	ldr	r3, [pc, #620]	; (10008080 <process_control_request+0x368>)
10007e14:	785b      	ldrb	r3, [r3, #1]
10007e16:	b2db      	uxtb	r3, r3
10007e18:	42b3      	cmp	r3, r6
10007e1a:	d005      	beq.n	10007e28 <process_control_request+0x110>
10007e1c:	4b98      	ldr	r3, [pc, #608]	; (10008080 <process_control_request+0x368>)
10007e1e:	785b      	ldrb	r3, [r3, #1]
10007e20:	2b00      	cmp	r3, #0
10007e22:	d109      	bne.n	10007e38 <process_control_request+0x120>
10007e24:	2e00      	cmp	r6, #0
10007e26:	d113      	bne.n	10007e50 <process_control_request+0x138>
10007e28:	4b95      	ldr	r3, [pc, #596]	; (10008080 <process_control_request+0x368>)
10007e2a:	705e      	strb	r6, [r3, #1]
10007e2c:	0021      	movs	r1, r4
10007e2e:	0028      	movs	r0, r5
10007e30:	f000 fa38 	bl	100082a4 <tud_control_status>
10007e34:	2001      	movs	r0, #1
10007e36:	e78c      	b.n	10007d52 <process_control_request+0x3a>
10007e38:	0028      	movs	r0, r5
10007e3a:	f7ff fba3 	bl	10007584 <dcd_edpt_close_all>
10007e3e:	4f90      	ldr	r7, [pc, #576]	; (10008080 <process_control_request+0x368>)
10007e40:	78bb      	ldrb	r3, [r7, #2]
10007e42:	4698      	mov	r8, r3
10007e44:	0028      	movs	r0, r5
10007e46:	f7ff fc2f 	bl	100076a8 <configuration_reset>
10007e4a:	4643      	mov	r3, r8
10007e4c:	70bb      	strb	r3, [r7, #2]
10007e4e:	e7e9      	b.n	10007e24 <process_control_request+0x10c>
10007e50:	0031      	movs	r1, r6
10007e52:	0028      	movs	r0, r5
10007e54:	f7ff fc80 	bl	10007758 <process_set_config>
10007e58:	2800      	cmp	r0, #0
10007e5a:	d1e5      	bne.n	10007e28 <process_control_request+0x110>
10007e5c:	e779      	b.n	10007d52 <process_control_request+0x3a>
10007e5e:	0021      	movs	r1, r4
10007e60:	0028      	movs	r0, r5
10007e62:	f7ff fd3b 	bl	100078dc <process_get_descriptor>
10007e66:	e774      	b.n	10007d52 <process_control_request+0x3a>
10007e68:	78a2      	ldrb	r2, [r4, #2]
10007e6a:	78e3      	ldrb	r3, [r4, #3]
10007e6c:	021b      	lsls	r3, r3, #8
10007e6e:	4313      	orrs	r3, r2
10007e70:	2b01      	cmp	r3, #1
10007e72:	d001      	beq.n	10007e78 <process_control_request+0x160>
10007e74:	2000      	movs	r0, #0
10007e76:	e76c      	b.n	10007d52 <process_control_request+0x3a>
10007e78:	4a81      	ldr	r2, [pc, #516]	; (10008080 <process_control_request+0x368>)
10007e7a:	7813      	ldrb	r3, [r2, #0]
10007e7c:	2108      	movs	r1, #8
10007e7e:	430b      	orrs	r3, r1
10007e80:	7013      	strb	r3, [r2, #0]
10007e82:	0021      	movs	r1, r4
10007e84:	0028      	movs	r0, r5
10007e86:	f000 fa0d 	bl	100082a4 <tud_control_status>
10007e8a:	2001      	movs	r0, #1
10007e8c:	e761      	b.n	10007d52 <process_control_request+0x3a>
10007e8e:	78a2      	ldrb	r2, [r4, #2]
10007e90:	78e3      	ldrb	r3, [r4, #3]
10007e92:	021b      	lsls	r3, r3, #8
10007e94:	4313      	orrs	r3, r2
10007e96:	2b01      	cmp	r3, #1
10007e98:	d001      	beq.n	10007e9e <process_control_request+0x186>
10007e9a:	2000      	movs	r0, #0
10007e9c:	e759      	b.n	10007d52 <process_control_request+0x3a>
10007e9e:	4a78      	ldr	r2, [pc, #480]	; (10008080 <process_control_request+0x368>)
10007ea0:	7813      	ldrb	r3, [r2, #0]
10007ea2:	2108      	movs	r1, #8
10007ea4:	438b      	bics	r3, r1
10007ea6:	7013      	strb	r3, [r2, #0]
10007ea8:	0021      	movs	r1, r4
10007eaa:	0028      	movs	r0, r5
10007eac:	f000 f9fa 	bl	100082a4 <tud_control_status>
10007eb0:	2001      	movs	r0, #1
10007eb2:	e74e      	b.n	10007d52 <process_control_request+0x3a>
10007eb4:	4b72      	ldr	r3, [pc, #456]	; (10008080 <process_control_request+0x368>)
10007eb6:	781a      	ldrb	r2, [r3, #0]
10007eb8:	0951      	lsrs	r1, r2, #5
10007eba:	0892      	lsrs	r2, r2, #2
10007ebc:	2301      	movs	r3, #1
10007ebe:	400b      	ands	r3, r1
10007ec0:	2102      	movs	r1, #2
10007ec2:	400a      	ands	r2, r1
10007ec4:	4313      	orrs	r3, r2
10007ec6:	466a      	mov	r2, sp
10007ec8:	3206      	adds	r2, #6
10007eca:	8013      	strh	r3, [r2, #0]
10007ecc:	2302      	movs	r3, #2
10007ece:	0021      	movs	r1, r4
10007ed0:	0028      	movs	r0, r5
10007ed2:	f000 fa03 	bl	100082dc <tud_control_xfer>
10007ed6:	2001      	movs	r0, #1
10007ed8:	e73b      	b.n	10007d52 <process_control_request+0x3a>
10007eda:	7923      	ldrb	r3, [r4, #4]
10007edc:	2b0f      	cmp	r3, #15
10007ede:	d900      	bls.n	10007ee2 <process_control_request+0x1ca>
10007ee0:	e0bd      	b.n	1000805e <process_control_request+0x346>
10007ee2:	4a67      	ldr	r2, [pc, #412]	; (10008080 <process_control_request+0x368>)
10007ee4:	18d3      	adds	r3, r2, r3
10007ee6:	78d9      	ldrb	r1, [r3, #3]
10007ee8:	4b66      	ldr	r3, [pc, #408]	; (10008084 <process_control_request+0x36c>)
10007eea:	2b00      	cmp	r3, #0
10007eec:	d005      	beq.n	10007efa <process_control_request+0x1e2>
10007eee:	4b66      	ldr	r3, [pc, #408]	; (10008088 <process_control_request+0x370>)
10007ef0:	781b      	ldrb	r3, [r3, #0]
10007ef2:	4299      	cmp	r1, r3
10007ef4:	d328      	bcc.n	10007f48 <process_control_request+0x230>
10007ef6:	1ac9      	subs	r1, r1, r3
10007ef8:	b2c9      	uxtb	r1, r1
10007efa:	2902      	cmp	r1, #2
10007efc:	d900      	bls.n	10007f00 <process_control_request+0x1e8>
10007efe:	e0b0      	b.n	10008062 <process_control_request+0x34a>
10007f00:	004b      	lsls	r3, r1, #1
10007f02:	185b      	adds	r3, r3, r1
10007f04:	00db      	lsls	r3, r3, #3
10007f06:	4961      	ldr	r1, [pc, #388]	; (1000808c <process_control_request+0x374>)
10007f08:	18c9      	adds	r1, r1, r3
10007f0a:	2900      	cmp	r1, #0
10007f0c:	d100      	bne.n	10007f10 <process_control_request+0x1f8>
10007f0e:	e0aa      	b.n	10008066 <process_control_request+0x34e>
10007f10:	0022      	movs	r2, r4
10007f12:	0028      	movs	r0, r5
10007f14:	f7ff fc12 	bl	1000773c <invoke_class_control>
10007f18:	2800      	cmp	r0, #0
10007f1a:	d000      	beq.n	10007f1e <process_control_request+0x206>
10007f1c:	e719      	b.n	10007d52 <process_control_request+0x3a>
10007f1e:	7823      	ldrb	r3, [r4, #0]
10007f20:	2260      	movs	r2, #96	; 0x60
10007f22:	421a      	tst	r2, r3
10007f24:	d000      	beq.n	10007f28 <process_control_request+0x210>
10007f26:	e714      	b.n	10007d52 <process_control_request+0x3a>
10007f28:	7863      	ldrb	r3, [r4, #1]
10007f2a:	3b0a      	subs	r3, #10
10007f2c:	2b01      	cmp	r3, #1
10007f2e:	d900      	bls.n	10007f32 <process_control_request+0x21a>
10007f30:	e70f      	b.n	10007d52 <process_control_request+0x3a>
10007f32:	f000 fa17 	bl	10008364 <usbd_control_set_complete_callback>
10007f36:	7863      	ldrb	r3, [r4, #1]
10007f38:	2b0a      	cmp	r3, #10
10007f3a:	d00c      	beq.n	10007f56 <process_control_request+0x23e>
10007f3c:	0021      	movs	r1, r4
10007f3e:	0028      	movs	r0, r5
10007f40:	f000 f9b0 	bl	100082a4 <tud_control_status>
10007f44:	2001      	movs	r0, #1
10007f46:	e704      	b.n	10007d52 <process_control_request+0x3a>
10007f48:	004b      	lsls	r3, r1, #1
10007f4a:	185b      	adds	r3, r3, r1
10007f4c:	00db      	lsls	r3, r3, #3
10007f4e:	4a50      	ldr	r2, [pc, #320]	; (10008090 <process_control_request+0x378>)
10007f50:	6811      	ldr	r1, [r2, #0]
10007f52:	18c9      	adds	r1, r1, r3
10007f54:	e7d9      	b.n	10007f0a <process_control_request+0x1f2>
10007f56:	466b      	mov	r3, sp
10007f58:	1d9a      	adds	r2, r3, #6
10007f5a:	2300      	movs	r3, #0
10007f5c:	7013      	strb	r3, [r2, #0]
10007f5e:	3301      	adds	r3, #1
10007f60:	0021      	movs	r1, r4
10007f62:	0028      	movs	r0, r5
10007f64:	f000 f9ba 	bl	100082dc <tud_control_xfer>
10007f68:	2001      	movs	r0, #1
10007f6a:	e6f2      	b.n	10007d52 <process_control_request+0x3a>
10007f6c:	7921      	ldrb	r1, [r4, #4]
10007f6e:	227f      	movs	r2, #127	; 0x7f
10007f70:	400a      	ands	r2, r1
10007f72:	09ce      	lsrs	r6, r1, #7
10007f74:	2070      	movs	r0, #112	; 0x70
10007f76:	4208      	tst	r0, r1
10007f78:	d177      	bne.n	1000806a <process_control_request+0x352>
10007f7a:	0052      	lsls	r2, r2, #1
10007f7c:	4840      	ldr	r0, [pc, #256]	; (10008080 <process_control_request+0x368>)
10007f7e:	1882      	adds	r2, r0, r2
10007f80:	1992      	adds	r2, r2, r6
10007f82:	7cd2      	ldrb	r2, [r2, #19]
10007f84:	483f      	ldr	r0, [pc, #252]	; (10008084 <process_control_request+0x36c>)
10007f86:	2800      	cmp	r0, #0
10007f88:	d005      	beq.n	10007f96 <process_control_request+0x27e>
10007f8a:	483f      	ldr	r0, [pc, #252]	; (10008088 <process_control_request+0x370>)
10007f8c:	7800      	ldrb	r0, [r0, #0]
10007f8e:	4282      	cmp	r2, r0
10007f90:	d312      	bcc.n	10007fb8 <process_control_request+0x2a0>
10007f92:	1a12      	subs	r2, r2, r0
10007f94:	b2d2      	uxtb	r2, r2
10007f96:	2a02      	cmp	r2, #2
10007f98:	d815      	bhi.n	10007fc6 <process_control_request+0x2ae>
10007f9a:	0056      	lsls	r6, r2, #1
10007f9c:	18b2      	adds	r2, r6, r2
10007f9e:	00d2      	lsls	r2, r2, #3
10007fa0:	4e3a      	ldr	r6, [pc, #232]	; (1000808c <process_control_request+0x374>)
10007fa2:	18b6      	adds	r6, r6, r2
10007fa4:	2b00      	cmp	r3, #0
10007fa6:	d010      	beq.n	10007fca <process_control_request+0x2b2>
10007fa8:	2e00      	cmp	r6, #0
10007faa:	d060      	beq.n	1000806e <process_control_request+0x356>
10007fac:	0022      	movs	r2, r4
10007fae:	0031      	movs	r1, r6
10007fb0:	0028      	movs	r0, r5
10007fb2:	f7ff fbc3 	bl	1000773c <invoke_class_control>
10007fb6:	e6cc      	b.n	10007d52 <process_control_request+0x3a>
10007fb8:	0056      	lsls	r6, r2, #1
10007fba:	18b2      	adds	r2, r6, r2
10007fbc:	00d2      	lsls	r2, r2, #3
10007fbe:	4834      	ldr	r0, [pc, #208]	; (10008090 <process_control_request+0x378>)
10007fc0:	6806      	ldr	r6, [r0, #0]
10007fc2:	18b6      	adds	r6, r6, r2
10007fc4:	e7ee      	b.n	10007fa4 <process_control_request+0x28c>
10007fc6:	2600      	movs	r6, #0
10007fc8:	e7ec      	b.n	10007fa4 <process_control_request+0x28c>
10007fca:	7863      	ldrb	r3, [r4, #1]
10007fcc:	2b01      	cmp	r3, #1
10007fce:	d012      	beq.n	10007ff6 <process_control_request+0x2de>
10007fd0:	2b03      	cmp	r3, #3
10007fd2:	d010      	beq.n	10007ff6 <process_control_request+0x2de>
10007fd4:	2b00      	cmp	r3, #0
10007fd6:	d001      	beq.n	10007fdc <process_control_request+0x2c4>
10007fd8:	2000      	movs	r0, #0
10007fda:	e6ba      	b.n	10007d52 <process_control_request+0x3a>
10007fdc:	0028      	movs	r0, r5
10007fde:	f7ff fe8d 	bl	10007cfc <usbd_edpt_stalled>
10007fe2:	466b      	mov	r3, sp
10007fe4:	1d9a      	adds	r2, r3, #6
10007fe6:	8010      	strh	r0, [r2, #0]
10007fe8:	2302      	movs	r3, #2
10007fea:	0021      	movs	r1, r4
10007fec:	0028      	movs	r0, r5
10007fee:	f000 f975 	bl	100082dc <tud_control_xfer>
10007ff2:	2001      	movs	r0, #1
10007ff4:	e6ad      	b.n	10007d52 <process_control_request+0x3a>
10007ff6:	78a7      	ldrb	r7, [r4, #2]
10007ff8:	78e2      	ldrb	r2, [r4, #3]
10007ffa:	0212      	lsls	r2, r2, #8
10007ffc:	433a      	orrs	r2, r7
10007ffe:	d104      	bne.n	1000800a <process_control_request+0x2f2>
10008000:	2b01      	cmp	r3, #1
10008002:	d01a      	beq.n	1000803a <process_control_request+0x322>
10008004:	0028      	movs	r0, r5
10008006:	f7ff fe31 	bl	10007c6c <usbd_edpt_stall>
1000800a:	2e00      	cmp	r6, #0
1000800c:	d031      	beq.n	10008072 <process_control_request+0x35a>
1000800e:	0022      	movs	r2, r4
10008010:	0031      	movs	r1, r6
10008012:	0028      	movs	r0, r5
10008014:	f7ff fb92 	bl	1000773c <invoke_class_control>
10008018:	2000      	movs	r0, #0
1000801a:	f000 f9a3 	bl	10008364 <usbd_control_set_complete_callback>
1000801e:	4a18      	ldr	r2, [pc, #96]	; (10008080 <process_control_request+0x368>)
10008020:	2334      	movs	r3, #52	; 0x34
10008022:	5cd3      	ldrb	r3, [r2, r3]
10008024:	07db      	lsls	r3, r3, #31
10008026:	0fd8      	lsrs	r0, r3, #31
10008028:	2b00      	cmp	r3, #0
1000802a:	d000      	beq.n	1000802e <process_control_request+0x316>
1000802c:	e691      	b.n	10007d52 <process_control_request+0x3a>
1000802e:	0021      	movs	r1, r4
10008030:	0028      	movs	r0, r5
10008032:	f000 f937 	bl	100082a4 <tud_control_status>
10008036:	2001      	movs	r0, #1
10008038:	e68b      	b.n	10007d52 <process_control_request+0x3a>
1000803a:	0028      	movs	r0, r5
1000803c:	f7ff fe3a 	bl	10007cb4 <usbd_edpt_clear_stall>
10008040:	e7e3      	b.n	1000800a <process_control_request+0x2f2>
10008042:	2000      	movs	r0, #0
10008044:	e685      	b.n	10007d52 <process_control_request+0x3a>
10008046:	2000      	movs	r0, #0
10008048:	e683      	b.n	10007d52 <process_control_request+0x3a>
1000804a:	2000      	movs	r0, #0
1000804c:	e681      	b.n	10007d52 <process_control_request+0x3a>
1000804e:	2000      	movs	r0, #0
10008050:	e67f      	b.n	10007d52 <process_control_request+0x3a>
10008052:	2000      	movs	r0, #0
10008054:	e67d      	b.n	10007d52 <process_control_request+0x3a>
10008056:	2000      	movs	r0, #0
10008058:	e67b      	b.n	10007d52 <process_control_request+0x3a>
1000805a:	2000      	movs	r0, #0
1000805c:	e679      	b.n	10007d52 <process_control_request+0x3a>
1000805e:	2000      	movs	r0, #0
10008060:	e677      	b.n	10007d52 <process_control_request+0x3a>
10008062:	2000      	movs	r0, #0
10008064:	e675      	b.n	10007d52 <process_control_request+0x3a>
10008066:	2000      	movs	r0, #0
10008068:	e673      	b.n	10007d52 <process_control_request+0x3a>
1000806a:	2000      	movs	r0, #0
1000806c:	e671      	b.n	10007d52 <process_control_request+0x3a>
1000806e:	2000      	movs	r0, #0
10008070:	e66f      	b.n	10007d52 <process_control_request+0x3a>
10008072:	2001      	movs	r0, #1
10008074:	e66d      	b.n	10007d52 <process_control_request+0x3a>
10008076:	46c0      	nop			; (mov r8, r8)
10008078:	10000f85 	.word	0x10000f85
1000807c:	1000bc70 	.word	0x1000bc70
10008080:	200018e0 	.word	0x200018e0
10008084:	10000e95 	.word	0x10000e95
10008088:	2000272c 	.word	0x2000272c
1000808c:	1000bcbc 	.word	0x1000bcbc
10008090:	2000106c 	.word	0x2000106c

10008094 <tud_task_ext>:
10008094:	b530      	push	{r4, r5, lr}
10008096:	b085      	sub	sp, #20
10008098:	f001 f879 	bl	1000918e <tusb_inited>
1000809c:	2800      	cmp	r0, #0
1000809e:	d108      	bne.n	100080b2 <tud_task_ext+0x1e>
100080a0:	b005      	add	sp, #20
100080a2:	bd30      	pop	{r4, r5, pc}
100080a4:	ac01      	add	r4, sp, #4
100080a6:	7820      	ldrb	r0, [r4, #0]
100080a8:	f7ff fb42 	bl	10007730 <usbd_reset>
100080ac:	7922      	ldrb	r2, [r4, #4]
100080ae:	4b5d      	ldr	r3, [pc, #372]	; (10008224 <tud_task_ext+0x190>)
100080b0:	709a      	strb	r2, [r3, #2]
100080b2:	4b5d      	ldr	r3, [pc, #372]	; (10008228 <tud_task_ext+0x194>)
100080b4:	681c      	ldr	r4, [r3, #0]
100080b6:	0021      	movs	r1, r4
100080b8:	3114      	adds	r1, #20
100080ba:	6962      	ldr	r2, [r4, #20]
100080bc:	f3ef 8010 	mrs	r0, PRIMASK
100080c0:	b672      	cpsid	i
100080c2:	6813      	ldr	r3, [r2, #0]
100080c4:	2b00      	cmp	r3, #0
100080c6:	d0fc      	beq.n	100080c2 <tud_task_ext+0x2e>
100080c8:	f3bf 8f5f 	dmb	sy
100080cc:	6048      	str	r0, [r1, #4]
100080ce:	a901      	add	r1, sp, #4
100080d0:	0020      	movs	r0, r4
100080d2:	f001 fbdd 	bl	10009890 <tu_fifo_read>
100080d6:	6962      	ldr	r2, [r4, #20]
100080d8:	69a3      	ldr	r3, [r4, #24]
100080da:	f3bf 8f5f 	dmb	sy
100080de:	2100      	movs	r1, #0
100080e0:	6011      	str	r1, [r2, #0]
100080e2:	f383 8810 	msr	PRIMASK, r3
100080e6:	2800      	cmp	r0, #0
100080e8:	d0da      	beq.n	100080a0 <tud_task_ext+0xc>
100080ea:	ab01      	add	r3, sp, #4
100080ec:	785b      	ldrb	r3, [r3, #1]
100080ee:	2b08      	cmp	r3, #8
100080f0:	d8df      	bhi.n	100080b2 <tud_task_ext+0x1e>
100080f2:	009b      	lsls	r3, r3, #2
100080f4:	4a4d      	ldr	r2, [pc, #308]	; (1000822c <tud_task_ext+0x198>)
100080f6:	58d3      	ldr	r3, [r2, r3]
100080f8:	469f      	mov	pc, r3
100080fa:	ab01      	add	r3, sp, #4
100080fc:	7818      	ldrb	r0, [r3, #0]
100080fe:	f7ff fb17 	bl	10007730 <usbd_reset>
10008102:	4b4b      	ldr	r3, [pc, #300]	; (10008230 <tud_task_ext+0x19c>)
10008104:	2b00      	cmp	r3, #0
10008106:	d0d4      	beq.n	100080b2 <tud_task_ext+0x1e>
10008108:	e000      	b.n	1000810c <tud_task_ext+0x78>
1000810a:	bf00      	nop
1000810c:	e7d1      	b.n	100080b2 <tud_task_ext+0x1e>
1000810e:	4b45      	ldr	r3, [pc, #276]	; (10008224 <tud_task_ext+0x190>)
10008110:	781a      	ldrb	r2, [r3, #0]
10008112:	2401      	movs	r4, #1
10008114:	2101      	movs	r1, #1
10008116:	430a      	orrs	r2, r1
10008118:	701a      	strb	r2, [r3, #0]
1000811a:	2233      	movs	r2, #51	; 0x33
1000811c:	5c99      	ldrb	r1, [r3, r2]
1000811e:	43a1      	bics	r1, r4
10008120:	5499      	strb	r1, [r3, r2]
10008122:	5c99      	ldrb	r1, [r3, r2]
10008124:	2004      	movs	r0, #4
10008126:	4381      	bics	r1, r0
10008128:	5499      	strb	r1, [r3, r2]
1000812a:	3201      	adds	r2, #1
1000812c:	5c99      	ldrb	r1, [r3, r2]
1000812e:	43a1      	bics	r1, r4
10008130:	5499      	strb	r1, [r3, r2]
10008132:	5c99      	ldrb	r1, [r3, r2]
10008134:	4381      	bics	r1, r0
10008136:	5499      	strb	r1, [r3, r2]
10008138:	ab01      	add	r3, sp, #4
1000813a:	7818      	ldrb	r0, [r3, #0]
1000813c:	a902      	add	r1, sp, #8
1000813e:	f7ff fdeb 	bl	10007d18 <process_control_request>
10008142:	2800      	cmp	r0, #0
10008144:	d1b5      	bne.n	100080b2 <tud_task_ext+0x1e>
10008146:	ac01      	add	r4, sp, #4
10008148:	7820      	ldrb	r0, [r4, #0]
1000814a:	2100      	movs	r1, #0
1000814c:	f7ff fa38 	bl	100075c0 <dcd_edpt_stall>
10008150:	7820      	ldrb	r0, [r4, #0]
10008152:	2180      	movs	r1, #128	; 0x80
10008154:	f7ff fa34 	bl	100075c0 <dcd_edpt_stall>
10008158:	e7ab      	b.n	100080b2 <tud_task_ext+0x1e>
1000815a:	ab01      	add	r3, sp, #4
1000815c:	7919      	ldrb	r1, [r3, #4]
1000815e:	227f      	movs	r2, #127	; 0x7f
10008160:	400a      	ands	r2, r1
10008162:	09cc      	lsrs	r4, r1, #7
10008164:	0050      	lsls	r0, r2, #1
10008166:	4b2f      	ldr	r3, [pc, #188]	; (10008224 <tud_task_ext+0x190>)
10008168:	181b      	adds	r3, r3, r0
1000816a:	191b      	adds	r3, r3, r4
1000816c:	3330      	adds	r3, #48	; 0x30
1000816e:	78d8      	ldrb	r0, [r3, #3]
10008170:	2501      	movs	r5, #1
10008172:	43a8      	bics	r0, r5
10008174:	70d8      	strb	r0, [r3, #3]
10008176:	78d8      	ldrb	r0, [r3, #3]
10008178:	3503      	adds	r5, #3
1000817a:	43a8      	bics	r0, r5
1000817c:	70d8      	strb	r0, [r3, #3]
1000817e:	2a00      	cmp	r2, #0
10008180:	d01f      	beq.n	100081c2 <tud_task_ext+0x12e>
10008182:	0052      	lsls	r2, r2, #1
10008184:	4b27      	ldr	r3, [pc, #156]	; (10008224 <tud_task_ext+0x190>)
10008186:	189a      	adds	r2, r3, r2
10008188:	1912      	adds	r2, r2, r4
1000818a:	7cd3      	ldrb	r3, [r2, #19]
1000818c:	4a29      	ldr	r2, [pc, #164]	; (10008234 <tud_task_ext+0x1a0>)
1000818e:	2a00      	cmp	r2, #0
10008190:	d005      	beq.n	1000819e <tud_task_ext+0x10a>
10008192:	4a29      	ldr	r2, [pc, #164]	; (10008238 <tud_task_ext+0x1a4>)
10008194:	7812      	ldrb	r2, [r2, #0]
10008196:	4293      	cmp	r3, r2
10008198:	d31a      	bcc.n	100081d0 <tud_task_ext+0x13c>
1000819a:	1a9b      	subs	r3, r3, r2
1000819c:	b2db      	uxtb	r3, r3
1000819e:	2b02      	cmp	r3, #2
100081a0:	d900      	bls.n	100081a4 <tud_task_ext+0x110>
100081a2:	e77d      	b.n	100080a0 <tud_task_ext+0xc>
100081a4:	005a      	lsls	r2, r3, #1
100081a6:	18d2      	adds	r2, r2, r3
100081a8:	00d2      	lsls	r2, r2, #3
100081aa:	4b24      	ldr	r3, [pc, #144]	; (1000823c <tud_task_ext+0x1a8>)
100081ac:	189b      	adds	r3, r3, r2
100081ae:	2b00      	cmp	r3, #0
100081b0:	d100      	bne.n	100081b4 <tud_task_ext+0x120>
100081b2:	e775      	b.n	100080a0 <tud_task_ext+0xc>
100081b4:	691c      	ldr	r4, [r3, #16]
100081b6:	a801      	add	r0, sp, #4
100081b8:	7942      	ldrb	r2, [r0, #5]
100081ba:	9b03      	ldr	r3, [sp, #12]
100081bc:	7800      	ldrb	r0, [r0, #0]
100081be:	47a0      	blx	r4
100081c0:	e777      	b.n	100080b2 <tud_task_ext+0x1e>
100081c2:	a801      	add	r0, sp, #4
100081c4:	7942      	ldrb	r2, [r0, #5]
100081c6:	9b03      	ldr	r3, [sp, #12]
100081c8:	7800      	ldrb	r0, [r0, #0]
100081ca:	f000 f8df 	bl	1000838c <usbd_control_xfer_cb>
100081ce:	e770      	b.n	100080b2 <tud_task_ext+0x1e>
100081d0:	005a      	lsls	r2, r3, #1
100081d2:	18d2      	adds	r2, r2, r3
100081d4:	00d2      	lsls	r2, r2, #3
100081d6:	4b1a      	ldr	r3, [pc, #104]	; (10008240 <tud_task_ext+0x1ac>)
100081d8:	681b      	ldr	r3, [r3, #0]
100081da:	189b      	adds	r3, r3, r2
100081dc:	e7e7      	b.n	100081ae <tud_task_ext+0x11a>
100081de:	4b11      	ldr	r3, [pc, #68]	; (10008224 <tud_task_ext+0x190>)
100081e0:	781b      	ldrb	r3, [r3, #0]
100081e2:	07db      	lsls	r3, r3, #31
100081e4:	d400      	bmi.n	100081e8 <tud_task_ext+0x154>
100081e6:	e764      	b.n	100080b2 <tud_task_ext+0x1e>
100081e8:	4b16      	ldr	r3, [pc, #88]	; (10008244 <tud_task_ext+0x1b0>)
100081ea:	2b00      	cmp	r3, #0
100081ec:	d100      	bne.n	100081f0 <tud_task_ext+0x15c>
100081ee:	e760      	b.n	100080b2 <tud_task_ext+0x1e>
100081f0:	4b0c      	ldr	r3, [pc, #48]	; (10008224 <tud_task_ext+0x190>)
100081f2:	7818      	ldrb	r0, [r3, #0]
100081f4:	0700      	lsls	r0, r0, #28
100081f6:	0fc0      	lsrs	r0, r0, #31
100081f8:	f7f8 fd6e 	bl	10000cd8 <tud_suspend_cb>
100081fc:	e759      	b.n	100080b2 <tud_task_ext+0x1e>
100081fe:	4b09      	ldr	r3, [pc, #36]	; (10008224 <tud_task_ext+0x190>)
10008200:	781b      	ldrb	r3, [r3, #0]
10008202:	07db      	lsls	r3, r3, #31
10008204:	d400      	bmi.n	10008208 <tud_task_ext+0x174>
10008206:	e754      	b.n	100080b2 <tud_task_ext+0x1e>
10008208:	4b0f      	ldr	r3, [pc, #60]	; (10008248 <tud_task_ext+0x1b4>)
1000820a:	2b00      	cmp	r3, #0
1000820c:	d100      	bne.n	10008210 <tud_task_ext+0x17c>
1000820e:	e750      	b.n	100080b2 <tud_task_ext+0x1e>
10008210:	e000      	b.n	10008214 <tud_task_ext+0x180>
10008212:	bf00      	nop
10008214:	e74d      	b.n	100080b2 <tud_task_ext+0x1e>
10008216:	9b02      	ldr	r3, [sp, #8]
10008218:	2b00      	cmp	r3, #0
1000821a:	d100      	bne.n	1000821e <tud_task_ext+0x18a>
1000821c:	e749      	b.n	100080b2 <tud_task_ext+0x1e>
1000821e:	9803      	ldr	r0, [sp, #12]
10008220:	4798      	blx	r3
10008222:	e746      	b.n	100080b2 <tud_task_ext+0x1e>
10008224:	200018e0 	.word	0x200018e0
10008228:	20001938 	.word	0x20001938
1000822c:	1000bc98 	.word	0x1000bc98
10008230:	00000000 	.word	0x00000000
10008234:	10000e95 	.word	0x10000e95
10008238:	2000272c 	.word	0x2000272c
1000823c:	1000bcbc 	.word	0x1000bcbc
10008240:	2000106c 	.word	0x2000106c
10008244:	10000cd9 	.word	0x10000cd9
10008248:	00000000 	.word	0x00000000

1000824c <_data_stage_xact>:
1000824c:	b5f8      	push	{r3, r4, r5, r6, r7, lr}
1000824e:	0005      	movs	r5, r0
10008250:	4b12      	ldr	r3, [pc, #72]	; (1000829c <_data_stage_xact+0x50>)
10008252:	899f      	ldrh	r7, [r3, #12]
10008254:	89de      	ldrh	r6, [r3, #14]
10008256:	1bb9      	subs	r1, r7, r6
10008258:	b289      	uxth	r1, r1
1000825a:	1c0b      	adds	r3, r1, #0
1000825c:	2940      	cmp	r1, #64	; 0x40
1000825e:	d900      	bls.n	10008262 <_data_stage_xact+0x16>
10008260:	2340      	movs	r3, #64	; 0x40
10008262:	b29c      	uxth	r4, r3
10008264:	4b0d      	ldr	r3, [pc, #52]	; (1000829c <_data_stage_xact+0x50>)
10008266:	781b      	ldrb	r3, [r3, #0]
10008268:	b25b      	sxtb	r3, r3
1000826a:	2b00      	cmp	r3, #0
1000826c:	db08      	blt.n	10008280 <_data_stage_xact+0x34>
1000826e:	2100      	movs	r1, #0
10008270:	42b7      	cmp	r7, r6
10008272:	d011      	beq.n	10008298 <_data_stage_xact+0x4c>
10008274:	4a0a      	ldr	r2, [pc, #40]	; (100082a0 <_data_stage_xact+0x54>)
10008276:	0023      	movs	r3, r4
10008278:	0028      	movs	r0, r5
1000827a:	f7ff fcad 	bl	10007bd8 <usbd_edpt_xfer>
1000827e:	bdf8      	pop	{r3, r4, r5, r6, r7, pc}
10008280:	42b7      	cmp	r7, r6
10008282:	d101      	bne.n	10008288 <_data_stage_xact+0x3c>
10008284:	2180      	movs	r1, #128	; 0x80
10008286:	e7f3      	b.n	10008270 <_data_stage_xact+0x24>
10008288:	4b04      	ldr	r3, [pc, #16]	; (1000829c <_data_stage_xact+0x50>)
1000828a:	6899      	ldr	r1, [r3, #8]
1000828c:	0022      	movs	r2, r4
1000828e:	4804      	ldr	r0, [pc, #16]	; (100082a0 <_data_stage_xact+0x54>)
10008290:	f7fe fbea 	bl	10006a68 <__wrap___aeabi_memcpy>
10008294:	2180      	movs	r1, #128	; 0x80
10008296:	e7eb      	b.n	10008270 <_data_stage_xact+0x24>
10008298:	2200      	movs	r2, #0
1000829a:	e7ec      	b.n	10008276 <_data_stage_xact+0x2a>
1000829c:	20001300 	.word	0x20001300
100082a0:	200018a0 	.word	0x200018a0

100082a4 <tud_control_status>:
100082a4:	b570      	push	{r4, r5, r6, lr}
100082a6:	0006      	movs	r6, r0
100082a8:	000c      	movs	r4, r1
100082aa:	4d0b      	ldr	r5, [pc, #44]	; (100082d8 <tud_control_status+0x34>)
100082ac:	2208      	movs	r2, #8
100082ae:	0028      	movs	r0, r5
100082b0:	f7fe fbda 	bl	10006a68 <__wrap___aeabi_memcpy>
100082b4:	2300      	movs	r3, #0
100082b6:	60ab      	str	r3, [r5, #8]
100082b8:	81eb      	strh	r3, [r5, #14]
100082ba:	81ab      	strh	r3, [r5, #12]
100082bc:	2300      	movs	r3, #0
100082be:	56e3      	ldrsb	r3, [r4, r3]
100082c0:	2b00      	cmp	r3, #0
100082c2:	db06      	blt.n	100082d2 <tud_control_status+0x2e>
100082c4:	2180      	movs	r1, #128	; 0x80
100082c6:	2300      	movs	r3, #0
100082c8:	2200      	movs	r2, #0
100082ca:	0030      	movs	r0, r6
100082cc:	f7ff fc84 	bl	10007bd8 <usbd_edpt_xfer>
100082d0:	bd70      	pop	{r4, r5, r6, pc}
100082d2:	2100      	movs	r1, #0
100082d4:	e7f7      	b.n	100082c6 <tud_control_status+0x22>
100082d6:	46c0      	nop			; (mov r8, r8)
100082d8:	20001300 	.word	0x20001300

100082dc <tud_control_xfer>:
100082dc:	b5f0      	push	{r4, r5, r6, r7, lr}
100082de:	46c6      	mov	lr, r8
100082e0:	b500      	push	{lr}
100082e2:	4680      	mov	r8, r0
100082e4:	000c      	movs	r4, r1
100082e6:	0016      	movs	r6, r2
100082e8:	001d      	movs	r5, r3
100082ea:	4f18      	ldr	r7, [pc, #96]	; (1000834c <tud_control_xfer+0x70>)
100082ec:	2208      	movs	r2, #8
100082ee:	0038      	movs	r0, r7
100082f0:	f7fe fbba 	bl	10006a68 <__wrap___aeabi_memcpy>
100082f4:	60be      	str	r6, [r7, #8]
100082f6:	2300      	movs	r3, #0
100082f8:	81fb      	strh	r3, [r7, #14]
100082fa:	79a3      	ldrb	r3, [r4, #6]
100082fc:	79e1      	ldrb	r1, [r4, #7]
100082fe:	0209      	lsls	r1, r1, #8
10008300:	4319      	orrs	r1, r3
10008302:	1c0b      	adds	r3, r1, #0
10008304:	42a9      	cmp	r1, r5
10008306:	d900      	bls.n	1000830a <tud_control_xfer+0x2e>
10008308:	1c2b      	adds	r3, r5, #0
1000830a:	b299      	uxth	r1, r3
1000830c:	4a0f      	ldr	r2, [pc, #60]	; (1000834c <tud_control_xfer+0x70>)
1000830e:	8193      	strh	r3, [r2, #12]
10008310:	79a2      	ldrb	r2, [r4, #6]
10008312:	79e3      	ldrb	r3, [r4, #7]
10008314:	021b      	lsls	r3, r3, #8
10008316:	4313      	orrs	r3, r2
10008318:	d009      	beq.n	1000832e <tud_control_xfer+0x52>
1000831a:	2900      	cmp	r1, #0
1000831c:	d001      	beq.n	10008322 <tud_control_xfer+0x46>
1000831e:	2e00      	cmp	r6, #0
10008320:	d012      	beq.n	10008348 <tud_control_xfer+0x6c>
10008322:	4640      	mov	r0, r8
10008324:	f7ff ff92 	bl	1000824c <_data_stage_xact>
10008328:	bc80      	pop	{r7}
1000832a:	46b8      	mov	r8, r7
1000832c:	bdf0      	pop	{r4, r5, r6, r7, pc}
1000832e:	2300      	movs	r3, #0
10008330:	56e3      	ldrsb	r3, [r4, r3]
10008332:	2b00      	cmp	r3, #0
10008334:	db06      	blt.n	10008344 <tud_control_xfer+0x68>
10008336:	2180      	movs	r1, #128	; 0x80
10008338:	2300      	movs	r3, #0
1000833a:	2200      	movs	r2, #0
1000833c:	4640      	mov	r0, r8
1000833e:	f7ff fc4b 	bl	10007bd8 <usbd_edpt_xfer>
10008342:	e7f1      	b.n	10008328 <tud_control_xfer+0x4c>
10008344:	2100      	movs	r1, #0
10008346:	e7f7      	b.n	10008338 <tud_control_xfer+0x5c>
10008348:	2000      	movs	r0, #0
1000834a:	e7ed      	b.n	10008328 <tud_control_xfer+0x4c>
1000834c:	20001300 	.word	0x20001300

10008350 <usbd_control_reset>:
10008350:	b510      	push	{r4, lr}
10008352:	2214      	movs	r2, #20
10008354:	2100      	movs	r1, #0
10008356:	4802      	ldr	r0, [pc, #8]	; (10008360 <usbd_control_reset+0x10>)
10008358:	f7fe fb80 	bl	10006a5c <__wrap_memset>
1000835c:	bd10      	pop	{r4, pc}
1000835e:	46c0      	nop			; (mov r8, r8)
10008360:	20001300 	.word	0x20001300

10008364 <usbd_control_set_complete_callback>:
10008364:	4b01      	ldr	r3, [pc, #4]	; (1000836c <usbd_control_set_complete_callback+0x8>)
10008366:	6118      	str	r0, [r3, #16]
10008368:	4770      	bx	lr
1000836a:	46c0      	nop			; (mov r8, r8)
1000836c:	20001300 	.word	0x20001300

10008370 <usbd_control_set_request>:
10008370:	b510      	push	{r4, lr}
10008372:	0001      	movs	r1, r0
10008374:	4c04      	ldr	r4, [pc, #16]	; (10008388 <usbd_control_set_request+0x18>)
10008376:	2208      	movs	r2, #8
10008378:	0020      	movs	r0, r4
1000837a:	f7fe fb75 	bl	10006a68 <__wrap___aeabi_memcpy>
1000837e:	2300      	movs	r3, #0
10008380:	60a3      	str	r3, [r4, #8]
10008382:	81e3      	strh	r3, [r4, #14]
10008384:	81a3      	strh	r3, [r4, #12]
10008386:	bd10      	pop	{r4, pc}
10008388:	20001300 	.word	0x20001300

1000838c <usbd_control_xfer_cb>:
1000838c:	b570      	push	{r4, r5, r6, lr}
1000838e:	0005      	movs	r5, r0
10008390:	001c      	movs	r4, r3
10008392:	09c9      	lsrs	r1, r1, #7
10008394:	4b2d      	ldr	r3, [pc, #180]	; (1000844c <usbd_control_xfer_cb+0xc0>)
10008396:	781b      	ldrb	r3, [r3, #0]
10008398:	09db      	lsrs	r3, r3, #7
1000839a:	428b      	cmp	r3, r1
1000839c:	d011      	beq.n	100083c2 <usbd_control_xfer_cb+0x36>
1000839e:	2c00      	cmp	r4, #0
100083a0:	d150      	bne.n	10008444 <usbd_control_xfer_cb+0xb8>
100083a2:	4b2b      	ldr	r3, [pc, #172]	; (10008450 <usbd_control_xfer_cb+0xc4>)
100083a4:	2b00      	cmp	r3, #0
100083a6:	d002      	beq.n	100083ae <usbd_control_xfer_cb+0x22>
100083a8:	4928      	ldr	r1, [pc, #160]	; (1000844c <usbd_control_xfer_cb+0xc0>)
100083aa:	f7ff f8bd 	bl	10007528 <dcd_edpt0_status_complete>
100083ae:	4b27      	ldr	r3, [pc, #156]	; (1000844c <usbd_control_xfer_cb+0xc0>)
100083b0:	691b      	ldr	r3, [r3, #16]
100083b2:	2b00      	cmp	r3, #0
100083b4:	d003      	beq.n	100083be <usbd_control_xfer_cb+0x32>
100083b6:	4a25      	ldr	r2, [pc, #148]	; (1000844c <usbd_control_xfer_cb+0xc0>)
100083b8:	2103      	movs	r1, #3
100083ba:	0028      	movs	r0, r5
100083bc:	4798      	blx	r3
100083be:	2001      	movs	r0, #1
100083c0:	bd70      	pop	{r4, r5, r6, pc}
100083c2:	4b22      	ldr	r3, [pc, #136]	; (1000844c <usbd_control_xfer_cb+0xc0>)
100083c4:	781b      	ldrb	r3, [r3, #0]
100083c6:	b25b      	sxtb	r3, r3
100083c8:	2b00      	cmp	r3, #0
100083ca:	db07      	blt.n	100083dc <usbd_control_xfer_cb+0x50>
100083cc:	4b1f      	ldr	r3, [pc, #124]	; (1000844c <usbd_control_xfer_cb+0xc0>)
100083ce:	6898      	ldr	r0, [r3, #8]
100083d0:	2800      	cmp	r0, #0
100083d2:	d039      	beq.n	10008448 <usbd_control_xfer_cb+0xbc>
100083d4:	0022      	movs	r2, r4
100083d6:	491f      	ldr	r1, [pc, #124]	; (10008454 <usbd_control_xfer_cb+0xc8>)
100083d8:	f7fe fb46 	bl	10006a68 <__wrap___aeabi_memcpy>
100083dc:	b2a2      	uxth	r2, r4
100083de:	491b      	ldr	r1, [pc, #108]	; (1000844c <usbd_control_xfer_cb+0xc0>)
100083e0:	89cb      	ldrh	r3, [r1, #14]
100083e2:	18d3      	adds	r3, r2, r3
100083e4:	b29b      	uxth	r3, r3
100083e6:	81cb      	strh	r3, [r1, #14]
100083e8:	688a      	ldr	r2, [r1, #8]
100083ea:	1912      	adds	r2, r2, r4
100083ec:	608a      	str	r2, [r1, #8]
100083ee:	88ca      	ldrh	r2, [r1, #6]
100083f0:	4293      	cmp	r3, r2
100083f2:	d001      	beq.n	100083f8 <usbd_control_xfer_cb+0x6c>
100083f4:	2c3f      	cmp	r4, #63	; 0x3f
100083f6:	d821      	bhi.n	1000843c <usbd_control_xfer_cb+0xb0>
100083f8:	4b14      	ldr	r3, [pc, #80]	; (1000844c <usbd_control_xfer_cb+0xc0>)
100083fa:	691b      	ldr	r3, [r3, #16]
100083fc:	2b00      	cmp	r3, #0
100083fe:	d005      	beq.n	1000840c <usbd_control_xfer_cb+0x80>
10008400:	4a12      	ldr	r2, [pc, #72]	; (1000844c <usbd_control_xfer_cb+0xc0>)
10008402:	2102      	movs	r1, #2
10008404:	0028      	movs	r0, r5
10008406:	4798      	blx	r3
10008408:	2800      	cmp	r0, #0
1000840a:	d00d      	beq.n	10008428 <usbd_control_xfer_cb+0x9c>
1000840c:	4b0f      	ldr	r3, [pc, #60]	; (1000844c <usbd_control_xfer_cb+0xc0>)
1000840e:	781b      	ldrb	r3, [r3, #0]
10008410:	b25b      	sxtb	r3, r3
10008412:	2b00      	cmp	r3, #0
10008414:	db06      	blt.n	10008424 <usbd_control_xfer_cb+0x98>
10008416:	2180      	movs	r1, #128	; 0x80
10008418:	2300      	movs	r3, #0
1000841a:	2200      	movs	r2, #0
1000841c:	0028      	movs	r0, r5
1000841e:	f7ff fbdb 	bl	10007bd8 <usbd_edpt_xfer>
10008422:	e7cd      	b.n	100083c0 <usbd_control_xfer_cb+0x34>
10008424:	2100      	movs	r1, #0
10008426:	e7f7      	b.n	10008418 <usbd_control_xfer_cb+0x8c>
10008428:	2100      	movs	r1, #0
1000842a:	0028      	movs	r0, r5
1000842c:	f7ff f8c8 	bl	100075c0 <dcd_edpt_stall>
10008430:	2180      	movs	r1, #128	; 0x80
10008432:	0028      	movs	r0, r5
10008434:	f7ff f8c4 	bl	100075c0 <dcd_edpt_stall>
10008438:	2001      	movs	r0, #1
1000843a:	e7c1      	b.n	100083c0 <usbd_control_xfer_cb+0x34>
1000843c:	0028      	movs	r0, r5
1000843e:	f7ff ff05 	bl	1000824c <_data_stage_xact>
10008442:	e7bd      	b.n	100083c0 <usbd_control_xfer_cb+0x34>
10008444:	2000      	movs	r0, #0
10008446:	e7bb      	b.n	100083c0 <usbd_control_xfer_cb+0x34>
10008448:	2000      	movs	r0, #0
1000844a:	e7b9      	b.n	100083c0 <usbd_control_xfer_cb+0x34>
1000844c:	20001300 	.word	0x20001300
10008450:	10007529 	.word	0x10007529
10008454:	200018a0 	.word	0x200018a0

10008458 <_prep_out_transaction>:
10008458:	b570      	push	{r4, r5, r6, lr}
1000845a:	0004      	movs	r4, r0
1000845c:	0005      	movs	r5, r0
1000845e:	3510      	adds	r5, #16
10008460:	0028      	movs	r0, r5
10008462:	f001 f9ff 	bl	10009864 <tu_fifo_remaining>
10008466:	283f      	cmp	r0, #63	; 0x3f
10008468:	d801      	bhi.n	1000846e <_prep_out_transaction+0x16>
1000846a:	2000      	movs	r0, #0
1000846c:	bd70      	pop	{r4, r5, r6, pc}
1000846e:	78e1      	ldrb	r1, [r4, #3]
10008470:	2000      	movs	r0, #0
10008472:	f7ff fb89 	bl	10007b88 <usbd_edpt_claim>
10008476:	2800      	cmp	r0, #0
10008478:	d0f8      	beq.n	1000846c <_prep_out_transaction+0x14>
1000847a:	0028      	movs	r0, r5
1000847c:	f001 f9f2 	bl	10009864 <tu_fifo_remaining>
10008480:	283f      	cmp	r0, #63	; 0x3f
10008482:	d907      	bls.n	10008494 <_prep_out_transaction+0x3c>
10008484:	0022      	movs	r2, r4
10008486:	32c8      	adds	r2, #200	; 0xc8
10008488:	78e1      	ldrb	r1, [r4, #3]
1000848a:	2340      	movs	r3, #64	; 0x40
1000848c:	2000      	movs	r0, #0
1000848e:	f7ff fba3 	bl	10007bd8 <usbd_edpt_xfer>
10008492:	e7eb      	b.n	1000846c <_prep_out_transaction+0x14>
10008494:	78e1      	ldrb	r1, [r4, #3]
10008496:	2000      	movs	r0, #0
10008498:	f7ff fb8a 	bl	10007bb0 <usbd_edpt_release>
1000849c:	2000      	movs	r0, #0
1000849e:	e7e5      	b.n	1000846c <_prep_out_transaction+0x14>

100084a0 <tud_cdc_n_write_flush>:
100084a0:	b570      	push	{r4, r5, r6, lr}
100084a2:	0005      	movs	r5, r0
100084a4:	f7ff fa88 	bl	100079b8 <tud_mounted>
100084a8:	2800      	cmp	r0, #0
100084aa:	d104      	bne.n	100084b6 <tud_cdc_n_write_flush+0x16>
100084ac:	2300      	movs	r3, #0
100084ae:	2b00      	cmp	r3, #0
100084b0:	d109      	bne.n	100084c6 <tud_cdc_n_write_flush+0x26>
100084b2:	2000      	movs	r0, #0
100084b4:	bd70      	pop	{r4, r5, r6, pc}
100084b6:	f7ff fa87 	bl	100079c8 <tud_suspended>
100084ba:	2800      	cmp	r0, #0
100084bc:	d101      	bne.n	100084c2 <tud_cdc_n_write_flush+0x22>
100084be:	2301      	movs	r3, #1
100084c0:	e7f5      	b.n	100084ae <tud_cdc_n_write_flush+0xe>
100084c2:	2300      	movs	r3, #0
100084c4:	e7f3      	b.n	100084ae <tud_cdc_n_write_flush+0xe>
100084c6:	00ac      	lsls	r4, r5, #2
100084c8:	1964      	adds	r4, r4, r5
100084ca:	00e4      	lsls	r4, r4, #3
100084cc:	1964      	adds	r4, r4, r5
100084ce:	00e4      	lsls	r4, r4, #3
100084d0:	3420      	adds	r4, #32
100084d2:	4b24      	ldr	r3, [pc, #144]	; (10008564 <tud_cdc_n_write_flush+0xc4>)
100084d4:	18e4      	adds	r4, r4, r3
100084d6:	3404      	adds	r4, #4
100084d8:	0020      	movs	r0, r4
100084da:	f001 f992 	bl	10009802 <tu_fifo_count>
100084de:	2800      	cmp	r0, #0
100084e0:	d101      	bne.n	100084e6 <tud_cdc_n_write_flush+0x46>
100084e2:	2000      	movs	r0, #0
100084e4:	e7e6      	b.n	100084b4 <tud_cdc_n_write_flush+0x14>
100084e6:	00ab      	lsls	r3, r5, #2
100084e8:	195b      	adds	r3, r3, r5
100084ea:	00db      	lsls	r3, r3, #3
100084ec:	195b      	adds	r3, r3, r5
100084ee:	00db      	lsls	r3, r3, #3
100084f0:	4a1c      	ldr	r2, [pc, #112]	; (10008564 <tud_cdc_n_write_flush+0xc4>)
100084f2:	18d3      	adds	r3, r2, r3
100084f4:	7899      	ldrb	r1, [r3, #2]
100084f6:	2000      	movs	r0, #0
100084f8:	f7ff fb46 	bl	10007b88 <usbd_edpt_claim>
100084fc:	2800      	cmp	r0, #0
100084fe:	d101      	bne.n	10008504 <tud_cdc_n_write_flush+0x64>
10008500:	2000      	movs	r0, #0
10008502:	e7d7      	b.n	100084b4 <tud_cdc_n_write_flush+0x14>
10008504:	00ae      	lsls	r6, r5, #2
10008506:	1976      	adds	r6, r6, r5
10008508:	00f6      	lsls	r6, r6, #3
1000850a:	1976      	adds	r6, r6, r5
1000850c:	00f6      	lsls	r6, r6, #3
1000850e:	3609      	adds	r6, #9
10008510:	36ff      	adds	r6, #255	; 0xff
10008512:	4b14      	ldr	r3, [pc, #80]	; (10008564 <tud_cdc_n_write_flush+0xc4>)
10008514:	18f6      	adds	r6, r6, r3
10008516:	2240      	movs	r2, #64	; 0x40
10008518:	0031      	movs	r1, r6
1000851a:	0020      	movs	r0, r4
1000851c:	f001 f9d9 	bl	100098d2 <tu_fifo_read_n>
10008520:	1e04      	subs	r4, r0, #0
10008522:	d010      	beq.n	10008546 <tud_cdc_n_write_flush+0xa6>
10008524:	00a8      	lsls	r0, r5, #2
10008526:	1940      	adds	r0, r0, r5
10008528:	00c0      	lsls	r0, r0, #3
1000852a:	1945      	adds	r5, r0, r5
1000852c:	00ed      	lsls	r5, r5, #3
1000852e:	480d      	ldr	r0, [pc, #52]	; (10008564 <tud_cdc_n_write_flush+0xc4>)
10008530:	1945      	adds	r5, r0, r5
10008532:	78a9      	ldrb	r1, [r5, #2]
10008534:	0023      	movs	r3, r4
10008536:	0032      	movs	r2, r6
10008538:	2000      	movs	r0, #0
1000853a:	f7ff fb4d 	bl	10007bd8 <usbd_edpt_xfer>
1000853e:	2800      	cmp	r0, #0
10008540:	d00e      	beq.n	10008560 <tud_cdc_n_write_flush+0xc0>
10008542:	0020      	movs	r0, r4
10008544:	e7b6      	b.n	100084b4 <tud_cdc_n_write_flush+0x14>
10008546:	00a8      	lsls	r0, r5, #2
10008548:	1940      	adds	r0, r0, r5
1000854a:	00c0      	lsls	r0, r0, #3
1000854c:	1945      	adds	r5, r0, r5
1000854e:	00ed      	lsls	r5, r5, #3
10008550:	4b04      	ldr	r3, [pc, #16]	; (10008564 <tud_cdc_n_write_flush+0xc4>)
10008552:	195d      	adds	r5, r3, r5
10008554:	78a9      	ldrb	r1, [r5, #2]
10008556:	2000      	movs	r0, #0
10008558:	f7ff fb2a 	bl	10007bb0 <usbd_edpt_release>
1000855c:	2000      	movs	r0, #0
1000855e:	e7a9      	b.n	100084b4 <tud_cdc_n_write_flush+0x14>
10008560:	2000      	movs	r0, #0
10008562:	e7a7      	b.n	100084b4 <tud_cdc_n_write_flush+0x14>
10008564:	20001070 	.word	0x20001070

10008568 <cdcd_init>:
10008568:	b5f0      	push	{r4, r5, r6, r7, lr}
1000856a:	46ce      	mov	lr, r9
1000856c:	4647      	mov	r7, r8
1000856e:	b580      	push	{r7, lr}
10008570:	b083      	sub	sp, #12
10008572:	22a4      	movs	r2, #164	; 0xa4
10008574:	0092      	lsls	r2, r2, #2
10008576:	2100      	movs	r1, #0
10008578:	4829      	ldr	r0, [pc, #164]	; (10008620 <cdcd_init+0xb8>)
1000857a:	f7fe fa6f 	bl	10006a5c <__wrap_memset>
1000857e:	2400      	movs	r4, #0
10008580:	e046      	b.n	10008610 <cdcd_init+0xa8>
10008582:	4f27      	ldr	r7, [pc, #156]	; (10008620 <cdcd_init+0xb8>)
10008584:	00a5      	lsls	r5, r4, #2
10008586:	192d      	adds	r5, r5, r4
10008588:	00ed      	lsls	r5, r5, #3
1000858a:	192b      	adds	r3, r5, r4
1000858c:	00de      	lsls	r6, r3, #3
1000858e:	19be      	adds	r6, r7, r6
10008590:	23ff      	movs	r3, #255	; 0xff
10008592:	7173      	strb	r3, [r6, #5]
10008594:	2300      	movs	r3, #0
10008596:	4698      	mov	r8, r3
10008598:	4a22      	ldr	r2, [pc, #136]	; (10008624 <cdcd_init+0xbc>)
1000859a:	80f2      	strh	r2, [r6, #6]
1000859c:	2201      	movs	r2, #1
1000859e:	8132      	strh	r2, [r6, #8]
100085a0:	72b3      	strb	r3, [r6, #10]
100085a2:	72f3      	strb	r3, [r6, #11]
100085a4:	2308      	movs	r3, #8
100085a6:	7333      	strb	r3, [r6, #12]
100085a8:	192b      	adds	r3, r5, r4
100085aa:	00d9      	lsls	r1, r3, #3
100085ac:	3138      	adds	r1, #56	; 0x38
100085ae:	19c9      	adds	r1, r1, r7
100085b0:	00d8      	lsls	r0, r3, #3
100085b2:	3010      	adds	r0, #16
100085b4:	19c0      	adds	r0, r0, r7
100085b6:	4643      	mov	r3, r8
100085b8:	9300      	str	r3, [sp, #0]
100085ba:	3301      	adds	r3, #1
100085bc:	323f      	adds	r2, #63	; 0x3f
100085be:	f001 f8e2 	bl	10009786 <tu_fifo_config>
100085c2:	192b      	adds	r3, r5, r4
100085c4:	00d9      	lsls	r1, r3, #3
100085c6:	3178      	adds	r1, #120	; 0x78
100085c8:	19c9      	adds	r1, r1, r7
100085ca:	00d8      	lsls	r0, r3, #3
100085cc:	3020      	adds	r0, #32
100085ce:	19c0      	adds	r0, r0, r7
100085d0:	3004      	adds	r0, #4
100085d2:	2301      	movs	r3, #1
100085d4:	9300      	str	r3, [sp, #0]
100085d6:	2240      	movs	r2, #64	; 0x40
100085d8:	f001 f8d5 	bl	10009786 <tu_fifo_config>
100085dc:	192a      	adds	r2, r5, r4
100085de:	00d3      	lsls	r3, r2, #3
100085e0:	33b8      	adds	r3, #184	; 0xb8
100085e2:	4699      	mov	r9, r3
100085e4:	44b9      	add	r9, r7
100085e6:	4648      	mov	r0, r9
100085e8:	f7fa fd6e 	bl	100030c8 <mutex_init>
100085ec:	4643      	mov	r3, r8
100085ee:	61f3      	str	r3, [r6, #28]
100085f0:	464b      	mov	r3, r9
100085f2:	6233      	str	r3, [r6, #32]
100085f4:	192a      	adds	r2, r5, r4
100085f6:	00d3      	lsls	r3, r2, #3
100085f8:	33c0      	adds	r3, #192	; 0xc0
100085fa:	4699      	mov	r9, r3
100085fc:	44b9      	add	r9, r7
100085fe:	4648      	mov	r0, r9
10008600:	f7fa fd62 	bl	100030c8 <mutex_init>
10008604:	464b      	mov	r3, r9
10008606:	6333      	str	r3, [r6, #48]	; 0x30
10008608:	4643      	mov	r3, r8
1000860a:	6373      	str	r3, [r6, #52]	; 0x34
1000860c:	3401      	adds	r4, #1
1000860e:	b2e4      	uxtb	r4, r4
10008610:	2c01      	cmp	r4, #1
10008612:	d9b6      	bls.n	10008582 <cdcd_init+0x1a>
10008614:	b003      	add	sp, #12
10008616:	bcc0      	pop	{r6, r7}
10008618:	46b9      	mov	r9, r7
1000861a:	46b0      	mov	r8, r6
1000861c:	bdf0      	pop	{r4, r5, r6, r7, pc}
1000861e:	46c0      	nop			; (mov r8, r8)
10008620:	20001070 	.word	0x20001070
10008624:	ffffc200 	.word	0xffffc200

10008628 <cdcd_reset>:
10008628:	b570      	push	{r4, r5, r6, lr}
1000862a:	2400      	movs	r4, #0
1000862c:	e01e      	b.n	1000866c <cdcd_reset+0x44>
1000862e:	00a5      	lsls	r5, r4, #2
10008630:	192d      	adds	r5, r5, r4
10008632:	00ed      	lsls	r5, r5, #3
10008634:	192b      	adds	r3, r5, r4
10008636:	00d8      	lsls	r0, r3, #3
10008638:	4e0e      	ldr	r6, [pc, #56]	; (10008674 <cdcd_reset+0x4c>)
1000863a:	1980      	adds	r0, r0, r6
1000863c:	2205      	movs	r2, #5
1000863e:	2100      	movs	r1, #0
10008640:	f7fe fa0c 	bl	10006a5c <__wrap_memset>
10008644:	192b      	adds	r3, r5, r4
10008646:	00d8      	lsls	r0, r3, #3
10008648:	3010      	adds	r0, #16
1000864a:	1980      	adds	r0, r0, r6
1000864c:	f001 f97d 	bl	1000994a <tu_fifo_clear>
10008650:	192d      	adds	r5, r5, r4
10008652:	00eb      	lsls	r3, r5, #3
10008654:	3320      	adds	r3, #32
10008656:	199b      	adds	r3, r3, r6
10008658:	1d1d      	adds	r5, r3, #4
1000865a:	0028      	movs	r0, r5
1000865c:	f001 f975 	bl	1000994a <tu_fifo_clear>
10008660:	2101      	movs	r1, #1
10008662:	0028      	movs	r0, r5
10008664:	f001 f990 	bl	10009988 <tu_fifo_set_overwritable>
10008668:	3401      	adds	r4, #1
1000866a:	b2e4      	uxtb	r4, r4
1000866c:	2c01      	cmp	r4, #1
1000866e:	d9de      	bls.n	1000862e <cdcd_reset+0x6>
10008670:	bd70      	pop	{r4, r5, r6, pc}
10008672:	46c0      	nop			; (mov r8, r8)
10008674:	20001070 	.word	0x20001070

10008678 <cdcd_open>:
10008678:	b5f0      	push	{r4, r5, r6, r7, lr}
1000867a:	b083      	sub	sp, #12
1000867c:	0006      	movs	r6, r0
1000867e:	794b      	ldrb	r3, [r1, #5]
10008680:	2b02      	cmp	r3, #2
10008682:	d156      	bne.n	10008732 <cdcd_open+0xba>
10008684:	798b      	ldrb	r3, [r1, #6]
10008686:	2b02      	cmp	r3, #2
10008688:	d157      	bne.n	1000873a <cdcd_open+0xc2>
1000868a:	2400      	movs	r4, #0
1000868c:	2c01      	cmp	r4, #1
1000868e:	d813      	bhi.n	100086b8 <cdcd_open+0x40>
10008690:	00a3      	lsls	r3, r4, #2
10008692:	191b      	adds	r3, r3, r4
10008694:	00db      	lsls	r3, r3, #3
10008696:	191b      	adds	r3, r3, r4
10008698:	00db      	lsls	r3, r3, #3
1000869a:	4d2c      	ldr	r5, [pc, #176]	; (1000874c <cdcd_open+0xd4>)
1000869c:	18eb      	adds	r3, r5, r3
1000869e:	789b      	ldrb	r3, [r3, #2]
100086a0:	2b00      	cmp	r3, #0
100086a2:	d002      	beq.n	100086aa <cdcd_open+0x32>
100086a4:	3401      	adds	r4, #1
100086a6:	b2e4      	uxtb	r4, r4
100086a8:	e7f0      	b.n	1000868c <cdcd_open+0x14>
100086aa:	00a7      	lsls	r7, r4, #2
100086ac:	193f      	adds	r7, r7, r4
100086ae:	00ff      	lsls	r7, r7, #3
100086b0:	193f      	adds	r7, r7, r4
100086b2:	00ff      	lsls	r7, r7, #3
100086b4:	197f      	adds	r7, r7, r5
100086b6:	e000      	b.n	100086ba <cdcd_open+0x42>
100086b8:	2700      	movs	r7, #0
100086ba:	2f00      	cmp	r7, #0
100086bc:	d03f      	beq.n	1000873e <cdcd_open+0xc6>
100086be:	788b      	ldrb	r3, [r1, #2]
100086c0:	703b      	strb	r3, [r7, #0]
100086c2:	780c      	ldrb	r4, [r1, #0]
100086c4:	190c      	adds	r4, r1, r4
100086c6:	2509      	movs	r5, #9
100086c8:	e003      	b.n	100086d2 <cdcd_open+0x5a>
100086ca:	7821      	ldrb	r1, [r4, #0]
100086cc:	194d      	adds	r5, r1, r5
100086ce:	b2ad      	uxth	r5, r5
100086d0:	1864      	adds	r4, r4, r1
100086d2:	7863      	ldrb	r3, [r4, #1]
100086d4:	2b24      	cmp	r3, #36	; 0x24
100086d6:	d101      	bne.n	100086dc <cdcd_open+0x64>
100086d8:	4295      	cmp	r5, r2
100086da:	d9f6      	bls.n	100086ca <cdcd_open+0x52>
100086dc:	2b05      	cmp	r3, #5
100086de:	d009      	beq.n	100086f4 <cdcd_open+0x7c>
100086e0:	7863      	ldrb	r3, [r4, #1]
100086e2:	2b04      	cmp	r3, #4
100086e4:	d102      	bne.n	100086ec <cdcd_open+0x74>
100086e6:	7963      	ldrb	r3, [r4, #5]
100086e8:	2b0a      	cmp	r3, #10
100086ea:	d010      	beq.n	1000870e <cdcd_open+0x96>
100086ec:	0038      	movs	r0, r7
100086ee:	f7ff feb3 	bl	10008458 <_prep_out_transaction>
100086f2:	e01f      	b.n	10008734 <cdcd_open+0xbc>
100086f4:	0021      	movs	r1, r4
100086f6:	0030      	movs	r0, r6
100086f8:	f7ff f9fa 	bl	10007af0 <usbd_edpt_open>
100086fc:	2800      	cmp	r0, #0
100086fe:	d020      	beq.n	10008742 <cdcd_open+0xca>
10008700:	78a3      	ldrb	r3, [r4, #2]
10008702:	707b      	strb	r3, [r7, #1]
10008704:	7822      	ldrb	r2, [r4, #0]
10008706:	1955      	adds	r5, r2, r5
10008708:	b2ad      	uxth	r5, r5
1000870a:	18a4      	adds	r4, r4, r2
1000870c:	e7e8      	b.n	100086e0 <cdcd_open+0x68>
1000870e:	7821      	ldrb	r1, [r4, #0]
10008710:	194d      	adds	r5, r1, r5
10008712:	b2ad      	uxth	r5, r5
10008714:	1861      	adds	r1, r4, r1
10008716:	1cbb      	adds	r3, r7, #2
10008718:	9301      	str	r3, [sp, #4]
1000871a:	1cfb      	adds	r3, r7, #3
1000871c:	9300      	str	r3, [sp, #0]
1000871e:	2302      	movs	r3, #2
10008720:	2202      	movs	r2, #2
10008722:	0030      	movs	r0, r6
10008724:	f7ff f9fe 	bl	10007b24 <usbd_open_edpt_pair>
10008728:	2800      	cmp	r0, #0
1000872a:	d00c      	beq.n	10008746 <cdcd_open+0xce>
1000872c:	350e      	adds	r5, #14
1000872e:	b2ad      	uxth	r5, r5
10008730:	e7dc      	b.n	100086ec <cdcd_open+0x74>
10008732:	2500      	movs	r5, #0
10008734:	0028      	movs	r0, r5
10008736:	b003      	add	sp, #12
10008738:	bdf0      	pop	{r4, r5, r6, r7, pc}
1000873a:	2500      	movs	r5, #0
1000873c:	e7fa      	b.n	10008734 <cdcd_open+0xbc>
1000873e:	2500      	movs	r5, #0
10008740:	e7f8      	b.n	10008734 <cdcd_open+0xbc>
10008742:	2500      	movs	r5, #0
10008744:	e7f6      	b.n	10008734 <cdcd_open+0xbc>
10008746:	2500      	movs	r5, #0
10008748:	e7f4      	b.n	10008734 <cdcd_open+0xbc>
1000874a:	46c0      	nop			; (mov r8, r8)
1000874c:	20001070 	.word	0x20001070

10008750 <cdcd_control_xfer_cb>:
10008750:	b5f8      	push	{r3, r4, r5, r6, r7, lr}
10008752:	0014      	movs	r4, r2
10008754:	7812      	ldrb	r2, [r2, #0]
10008756:	2360      	movs	r3, #96	; 0x60
10008758:	4013      	ands	r3, r2
1000875a:	2b20      	cmp	r3, #32
1000875c:	d001      	beq.n	10008762 <cdcd_control_xfer_cb+0x12>
1000875e:	2000      	movs	r0, #0
10008760:	bdf8      	pop	{r3, r4, r5, r6, r7, pc}
10008762:	4a43      	ldr	r2, [pc, #268]	; (10008870 <cdcd_control_xfer_cb+0x120>)
10008764:	2500      	movs	r5, #0
10008766:	2d01      	cmp	r5, #1
10008768:	d879      	bhi.n	1000885e <cdcd_control_xfer_cb+0x10e>
1000876a:	7816      	ldrb	r6, [r2, #0]
1000876c:	7927      	ldrb	r7, [r4, #4]
1000876e:	7963      	ldrb	r3, [r4, #5]
10008770:	021b      	lsls	r3, r3, #8
10008772:	433b      	orrs	r3, r7
10008774:	429e      	cmp	r6, r3
10008776:	d004      	beq.n	10008782 <cdcd_control_xfer_cb+0x32>
10008778:	3501      	adds	r5, #1
1000877a:	b2ed      	uxtb	r5, r5
1000877c:	3249      	adds	r2, #73	; 0x49
1000877e:	32ff      	adds	r2, #255	; 0xff
10008780:	e7f1      	b.n	10008766 <cdcd_control_xfer_cb+0x16>
10008782:	7863      	ldrb	r3, [r4, #1]
10008784:	2b22      	cmp	r3, #34	; 0x22
10008786:	d031      	beq.n	100087ec <cdcd_control_xfer_cb+0x9c>
10008788:	d809      	bhi.n	1000879e <cdcd_control_xfer_cb+0x4e>
1000878a:	2b20      	cmp	r3, #32
1000878c:	d011      	beq.n	100087b2 <cdcd_control_xfer_cb+0x62>
1000878e:	2b21      	cmp	r3, #33	; 0x21
10008790:	d103      	bne.n	1000879a <cdcd_control_xfer_cb+0x4a>
10008792:	2901      	cmp	r1, #1
10008794:	d023      	beq.n	100087de <cdcd_control_xfer_cb+0x8e>
10008796:	2001      	movs	r0, #1
10008798:	e7e2      	b.n	10008760 <cdcd_control_xfer_cb+0x10>
1000879a:	2000      	movs	r0, #0
1000879c:	e7e0      	b.n	10008760 <cdcd_control_xfer_cb+0x10>
1000879e:	2b23      	cmp	r3, #35	; 0x23
100087a0:	d105      	bne.n	100087ae <cdcd_control_xfer_cb+0x5e>
100087a2:	2901      	cmp	r1, #1
100087a4:	d04a      	beq.n	1000883c <cdcd_control_xfer_cb+0xec>
100087a6:	2903      	cmp	r1, #3
100087a8:	d04d      	beq.n	10008846 <cdcd_control_xfer_cb+0xf6>
100087aa:	2001      	movs	r0, #1
100087ac:	e7d8      	b.n	10008760 <cdcd_control_xfer_cb+0x10>
100087ae:	2000      	movs	r0, #0
100087b0:	e7d6      	b.n	10008760 <cdcd_control_xfer_cb+0x10>
100087b2:	2901      	cmp	r1, #1
100087b4:	d003      	beq.n	100087be <cdcd_control_xfer_cb+0x6e>
100087b6:	2903      	cmp	r1, #3
100087b8:	d008      	beq.n	100087cc <cdcd_control_xfer_cb+0x7c>
100087ba:	2001      	movs	r0, #1
100087bc:	e7d0      	b.n	10008760 <cdcd_control_xfer_cb+0x10>
100087be:	3206      	adds	r2, #6
100087c0:	2307      	movs	r3, #7
100087c2:	0021      	movs	r1, r4
100087c4:	f7ff fd8a 	bl	100082dc <tud_control_xfer>
100087c8:	2001      	movs	r0, #1
100087ca:	e7c9      	b.n	10008760 <cdcd_control_xfer_cb+0x10>
100087cc:	4b29      	ldr	r3, [pc, #164]	; (10008874 <cdcd_control_xfer_cb+0x124>)
100087ce:	2b00      	cmp	r3, #0
100087d0:	d047      	beq.n	10008862 <cdcd_control_xfer_cb+0x112>
100087d2:	1d91      	adds	r1, r2, #6
100087d4:	0028      	movs	r0, r5
100087d6:	e000      	b.n	100087da <cdcd_control_xfer_cb+0x8a>
100087d8:	bf00      	nop
100087da:	2001      	movs	r0, #1
100087dc:	e7c0      	b.n	10008760 <cdcd_control_xfer_cb+0x10>
100087de:	3206      	adds	r2, #6
100087e0:	2307      	movs	r3, #7
100087e2:	0021      	movs	r1, r4
100087e4:	f7ff fd7a 	bl	100082dc <tud_control_xfer>
100087e8:	2001      	movs	r0, #1
100087ea:	e7b9      	b.n	10008760 <cdcd_control_xfer_cb+0x10>
100087ec:	2901      	cmp	r1, #1
100087ee:	d003      	beq.n	100087f8 <cdcd_control_xfer_cb+0xa8>
100087f0:	2903      	cmp	r1, #3
100087f2:	d006      	beq.n	10008802 <cdcd_control_xfer_cb+0xb2>
100087f4:	2001      	movs	r0, #1
100087f6:	e7b3      	b.n	10008760 <cdcd_control_xfer_cb+0x10>
100087f8:	0021      	movs	r1, r4
100087fa:	f7ff fd53 	bl	100082a4 <tud_control_status>
100087fe:	2001      	movs	r0, #1
10008800:	e7ae      	b.n	10008760 <cdcd_control_xfer_cb+0x10>
10008802:	78a1      	ldrb	r1, [r4, #2]
10008804:	78e3      	ldrb	r3, [r4, #3]
10008806:	021b      	lsls	r3, r3, #8
10008808:	430b      	orrs	r3, r1
1000880a:	2401      	movs	r4, #1
1000880c:	0021      	movs	r1, r4
1000880e:	4019      	ands	r1, r3
10008810:	000c      	movs	r4, r1
10008812:	0858      	lsrs	r0, r3, #1
10008814:	2601      	movs	r6, #1
10008816:	4006      	ands	r6, r0
10008818:	7113      	strb	r3, [r2, #4]
1000881a:	424b      	negs	r3, r1
1000881c:	4159      	adcs	r1, r3
1000881e:	b2c9      	uxtb	r1, r1
10008820:	3224      	adds	r2, #36	; 0x24
10008822:	0010      	movs	r0, r2
10008824:	f001 f8b0 	bl	10009988 <tu_fifo_set_overwritable>
10008828:	4b13      	ldr	r3, [pc, #76]	; (10008878 <cdcd_control_xfer_cb+0x128>)
1000882a:	2b00      	cmp	r3, #0
1000882c:	d01b      	beq.n	10008866 <cdcd_control_xfer_cb+0x116>
1000882e:	0032      	movs	r2, r6
10008830:	0021      	movs	r1, r4
10008832:	0028      	movs	r0, r5
10008834:	e000      	b.n	10008838 <cdcd_control_xfer_cb+0xe8>
10008836:	bf00      	nop
10008838:	2001      	movs	r0, #1
1000883a:	e791      	b.n	10008760 <cdcd_control_xfer_cb+0x10>
1000883c:	0021      	movs	r1, r4
1000883e:	f7ff fd31 	bl	100082a4 <tud_control_status>
10008842:	2001      	movs	r0, #1
10008844:	e78c      	b.n	10008760 <cdcd_control_xfer_cb+0x10>
10008846:	4b0d      	ldr	r3, [pc, #52]	; (1000887c <cdcd_control_xfer_cb+0x12c>)
10008848:	2b00      	cmp	r3, #0
1000884a:	d00e      	beq.n	1000886a <cdcd_control_xfer_cb+0x11a>
1000884c:	78a3      	ldrb	r3, [r4, #2]
1000884e:	78e1      	ldrb	r1, [r4, #3]
10008850:	0209      	lsls	r1, r1, #8
10008852:	4319      	orrs	r1, r3
10008854:	0028      	movs	r0, r5
10008856:	e000      	b.n	1000885a <cdcd_control_xfer_cb+0x10a>
10008858:	bf00      	nop
1000885a:	2001      	movs	r0, #1
1000885c:	e780      	b.n	10008760 <cdcd_control_xfer_cb+0x10>
1000885e:	2000      	movs	r0, #0
10008860:	e77e      	b.n	10008760 <cdcd_control_xfer_cb+0x10>
10008862:	2001      	movs	r0, #1
10008864:	e77c      	b.n	10008760 <cdcd_control_xfer_cb+0x10>
10008866:	2001      	movs	r0, #1
10008868:	e77a      	b.n	10008760 <cdcd_control_xfer_cb+0x10>
1000886a:	2001      	movs	r0, #1
1000886c:	e778      	b.n	10008760 <cdcd_control_xfer_cb+0x10>
1000886e:	46c0      	nop			; (mov r8, r8)
10008870:	20001070 	.word	0x20001070
	...

10008880 <cdcd_xfer_cb>:
10008880:	b5f0      	push	{r4, r5, r6, r7, lr}
10008882:	46d6      	mov	lr, sl
10008884:	b500      	push	{lr}
10008886:	b082      	sub	sp, #8
10008888:	9001      	str	r0, [sp, #4]
1000888a:	000e      	movs	r6, r1
1000888c:	9300      	str	r3, [sp, #0]
1000888e:	2700      	movs	r7, #0
10008890:	2f01      	cmp	r7, #1
10008892:	d80f      	bhi.n	100088b4 <cdcd_xfer_cb+0x34>
10008894:	00bc      	lsls	r4, r7, #2
10008896:	19e4      	adds	r4, r4, r7
10008898:	00e4      	lsls	r4, r4, #3
1000889a:	19e4      	adds	r4, r4, r7
1000889c:	00e4      	lsls	r4, r4, #3
1000889e:	4b3f      	ldr	r3, [pc, #252]	; (1000899c <cdcd_xfer_cb+0x11c>)
100088a0:	18e4      	adds	r4, r4, r3
100088a2:	78e3      	ldrb	r3, [r4, #3]
100088a4:	42b3      	cmp	r3, r6
100088a6:	d005      	beq.n	100088b4 <cdcd_xfer_cb+0x34>
100088a8:	78a3      	ldrb	r3, [r4, #2]
100088aa:	42b3      	cmp	r3, r6
100088ac:	d002      	beq.n	100088b4 <cdcd_xfer_cb+0x34>
100088ae:	3701      	adds	r7, #1
100088b0:	b2ff      	uxtb	r7, r7
100088b2:	e7ed      	b.n	10008890 <cdcd_xfer_cb+0x10>
100088b4:	2f01      	cmp	r7, #1
100088b6:	d866      	bhi.n	10008986 <cdcd_xfer_cb+0x106>
100088b8:	78e3      	ldrb	r3, [r4, #3]
100088ba:	42b3      	cmp	r3, r6
100088bc:	d004      	beq.n	100088c8 <cdcd_xfer_cb+0x48>
100088be:	78a3      	ldrb	r3, [r4, #2]
100088c0:	42b3      	cmp	r3, r6
100088c2:	d037      	beq.n	10008934 <cdcd_xfer_cb+0xb4>
100088c4:	2501      	movs	r5, #1
100088c6:	e05f      	b.n	10008988 <cdcd_xfer_cb+0x108>
100088c8:	2310      	movs	r3, #16
100088ca:	469a      	mov	sl, r3
100088cc:	44a2      	add	sl, r4
100088ce:	0021      	movs	r1, r4
100088d0:	31c8      	adds	r1, #200	; 0xc8
100088d2:	466b      	mov	r3, sp
100088d4:	881a      	ldrh	r2, [r3, #0]
100088d6:	4650      	mov	r0, sl
100088d8:	f001 f832 	bl	10009940 <tu_fifo_write_n>
100088dc:	4b30      	ldr	r3, [pc, #192]	; (100089a0 <cdcd_xfer_cb+0x120>)
100088de:	2b00      	cmp	r3, #0
100088e0:	d018      	beq.n	10008914 <cdcd_xfer_cb+0x94>
100088e2:	7963      	ldrb	r3, [r4, #5]
100088e4:	2bff      	cmp	r3, #255	; 0xff
100088e6:	d015      	beq.n	10008914 <cdcd_xfer_cb+0x94>
100088e8:	2500      	movs	r5, #0
100088ea:	e000      	b.n	100088ee <cdcd_xfer_cb+0x6e>
100088ec:	3501      	adds	r5, #1
100088ee:	9b00      	ldr	r3, [sp, #0]
100088f0:	429d      	cmp	r5, r3
100088f2:	d20f      	bcs.n	10008914 <cdcd_xfer_cb+0x94>
100088f4:	7962      	ldrb	r2, [r4, #5]
100088f6:	1963      	adds	r3, r4, r5
100088f8:	33c8      	adds	r3, #200	; 0xc8
100088fa:	781b      	ldrb	r3, [r3, #0]
100088fc:	429a      	cmp	r2, r3
100088fe:	d1f5      	bne.n	100088ec <cdcd_xfer_cb+0x6c>
10008900:	4650      	mov	r0, sl
10008902:	f000 ff93 	bl	1000982c <tu_fifo_empty>
10008906:	2800      	cmp	r0, #0
10008908:	d1f0      	bne.n	100088ec <cdcd_xfer_cb+0x6c>
1000890a:	7961      	ldrb	r1, [r4, #5]
1000890c:	0038      	movs	r0, r7
1000890e:	e000      	b.n	10008912 <cdcd_xfer_cb+0x92>
10008910:	bf00      	nop
10008912:	e7eb      	b.n	100088ec <cdcd_xfer_cb+0x6c>
10008914:	4b23      	ldr	r3, [pc, #140]	; (100089a4 <cdcd_xfer_cb+0x124>)
10008916:	2b00      	cmp	r3, #0
10008918:	d004      	beq.n	10008924 <cdcd_xfer_cb+0xa4>
1000891a:	4650      	mov	r0, sl
1000891c:	f000 ff86 	bl	1000982c <tu_fifo_empty>
10008920:	2800      	cmp	r0, #0
10008922:	d003      	beq.n	1000892c <cdcd_xfer_cb+0xac>
10008924:	0020      	movs	r0, r4
10008926:	f7ff fd97 	bl	10008458 <_prep_out_transaction>
1000892a:	e7c8      	b.n	100088be <cdcd_xfer_cb+0x3e>
1000892c:	0038      	movs	r0, r7
1000892e:	e000      	b.n	10008932 <cdcd_xfer_cb+0xb2>
10008930:	bf00      	nop
10008932:	e7f7      	b.n	10008924 <cdcd_xfer_cb+0xa4>
10008934:	4b1c      	ldr	r3, [pc, #112]	; (100089a8 <cdcd_xfer_cb+0x128>)
10008936:	2b00      	cmp	r3, #0
10008938:	d002      	beq.n	10008940 <cdcd_xfer_cb+0xc0>
1000893a:	0038      	movs	r0, r7
1000893c:	e000      	b.n	10008940 <cdcd_xfer_cb+0xc0>
1000893e:	bf00      	nop
10008940:	0038      	movs	r0, r7
10008942:	f7ff fdad 	bl	100084a0 <tud_cdc_n_write_flush>
10008946:	2800      	cmp	r0, #0
10008948:	d001      	beq.n	1000894e <cdcd_xfer_cb+0xce>
1000894a:	2501      	movs	r5, #1
1000894c:	e01c      	b.n	10008988 <cdcd_xfer_cb+0x108>
1000894e:	0020      	movs	r0, r4
10008950:	3024      	adds	r0, #36	; 0x24
10008952:	f000 ff56 	bl	10009802 <tu_fifo_count>
10008956:	2800      	cmp	r0, #0
10008958:	d11b      	bne.n	10008992 <cdcd_xfer_cb+0x112>
1000895a:	9b00      	ldr	r3, [sp, #0]
1000895c:	2b00      	cmp	r3, #0
1000895e:	d01a      	beq.n	10008996 <cdcd_xfer_cb+0x116>
10008960:	069b      	lsls	r3, r3, #26
10008962:	d001      	beq.n	10008968 <cdcd_xfer_cb+0xe8>
10008964:	2501      	movs	r5, #1
10008966:	e00f      	b.n	10008988 <cdcd_xfer_cb+0x108>
10008968:	78a1      	ldrb	r1, [r4, #2]
1000896a:	9801      	ldr	r0, [sp, #4]
1000896c:	f7ff f90c 	bl	10007b88 <usbd_edpt_claim>
10008970:	1e05      	subs	r5, r0, #0
10008972:	d101      	bne.n	10008978 <cdcd_xfer_cb+0xf8>
10008974:	2501      	movs	r5, #1
10008976:	e007      	b.n	10008988 <cdcd_xfer_cb+0x108>
10008978:	78a1      	ldrb	r1, [r4, #2]
1000897a:	2300      	movs	r3, #0
1000897c:	2200      	movs	r2, #0
1000897e:	9801      	ldr	r0, [sp, #4]
10008980:	f7ff f92a 	bl	10007bd8 <usbd_edpt_xfer>
10008984:	e000      	b.n	10008988 <cdcd_xfer_cb+0x108>
10008986:	2500      	movs	r5, #0
10008988:	0028      	movs	r0, r5
1000898a:	b002      	add	sp, #8
1000898c:	bc80      	pop	{r7}
1000898e:	46ba      	mov	sl, r7
10008990:	bdf0      	pop	{r4, r5, r6, r7, pc}
10008992:	2501      	movs	r5, #1
10008994:	e7f8      	b.n	10008988 <cdcd_xfer_cb+0x108>
10008996:	2501      	movs	r5, #1
10008998:	e7f6      	b.n	10008988 <cdcd_xfer_cb+0x108>
1000899a:	46c0      	nop			; (mov r8, r8)
1000899c:	20001070 	.word	0x20001070
	...

100089ac <tud_hid_n_ready>:
100089ac:	b510      	push	{r4, lr}
100089ae:	238c      	movs	r3, #140	; 0x8c
100089b0:	4343      	muls	r3, r0
100089b2:	4811      	ldr	r0, [pc, #68]	; (100089f8 <tud_hid_n_ready+0x4c>)
100089b4:	18c0      	adds	r0, r0, r3
100089b6:	7844      	ldrb	r4, [r0, #1]
100089b8:	f7fe fffe 	bl	100079b8 <tud_mounted>
100089bc:	2800      	cmp	r0, #0
100089be:	d106      	bne.n	100089ce <tud_hid_n_ready+0x22>
100089c0:	2300      	movs	r3, #0
100089c2:	2b00      	cmp	r3, #0
100089c4:	d013      	beq.n	100089ee <tud_hid_n_ready+0x42>
100089c6:	2c00      	cmp	r4, #0
100089c8:	d109      	bne.n	100089de <tud_hid_n_ready+0x32>
100089ca:	2000      	movs	r0, #0
100089cc:	e010      	b.n	100089f0 <tud_hid_n_ready+0x44>
100089ce:	f7fe fffb 	bl	100079c8 <tud_suspended>
100089d2:	2800      	cmp	r0, #0
100089d4:	d101      	bne.n	100089da <tud_hid_n_ready+0x2e>
100089d6:	2301      	movs	r3, #1
100089d8:	e7f3      	b.n	100089c2 <tud_hid_n_ready+0x16>
100089da:	2300      	movs	r3, #0
100089dc:	e7f1      	b.n	100089c2 <tud_hid_n_ready+0x16>
100089de:	0021      	movs	r1, r4
100089e0:	2000      	movs	r0, #0
100089e2:	f7ff f935 	bl	10007c50 <usbd_edpt_busy>
100089e6:	2800      	cmp	r0, #0
100089e8:	d103      	bne.n	100089f2 <tud_hid_n_ready+0x46>
100089ea:	3001      	adds	r0, #1
100089ec:	e000      	b.n	100089f0 <tud_hid_n_ready+0x44>
100089ee:	2000      	movs	r0, #0
100089f0:	bd10      	pop	{r4, pc}
100089f2:	2000      	movs	r0, #0
100089f4:	e7fc      	b.n	100089f0 <tud_hid_n_ready+0x44>
100089f6:	46c0      	nop			; (mov r8, r8)
100089f8:	200013d0 	.word	0x200013d0

100089fc <tud_hid_n_report>:
100089fc:	b5f8      	push	{r3, r4, r5, r6, r7, lr}
100089fe:	0006      	movs	r6, r0
10008a00:	000f      	movs	r7, r1
10008a02:	0015      	movs	r5, r2
10008a04:	001c      	movs	r4, r3
10008a06:	228c      	movs	r2, #140	; 0x8c
10008a08:	4342      	muls	r2, r0
10008a0a:	4b1c      	ldr	r3, [pc, #112]	; (10008a7c <tud_hid_n_report+0x80>)
10008a0c:	189b      	adds	r3, r3, r2
10008a0e:	7859      	ldrb	r1, [r3, #1]
10008a10:	2000      	movs	r0, #0
10008a12:	f7ff f8b9 	bl	10007b88 <usbd_edpt_claim>
10008a16:	2800      	cmp	r0, #0
10008a18:	d020      	beq.n	10008a5c <tud_hid_n_report+0x60>
10008a1a:	2f00      	cmp	r7, #0
10008a1c:	d01f      	beq.n	10008a5e <tud_hid_n_report+0x62>
10008a1e:	1c23      	adds	r3, r4, #0
10008a20:	2c3f      	cmp	r4, #63	; 0x3f
10008a22:	d900      	bls.n	10008a26 <tud_hid_n_report+0x2a>
10008a24:	233f      	movs	r3, #63	; 0x3f
10008a26:	b29c      	uxth	r4, r3
10008a28:	4b14      	ldr	r3, [pc, #80]	; (10008a7c <tud_hid_n_report+0x80>)
10008a2a:	208c      	movs	r0, #140	; 0x8c
10008a2c:	4370      	muls	r0, r6
10008a2e:	181a      	adds	r2, r3, r0
10008a30:	7217      	strb	r7, [r2, #8]
10008a32:	3008      	adds	r0, #8
10008a34:	18c0      	adds	r0, r0, r3
10008a36:	3001      	adds	r0, #1
10008a38:	0022      	movs	r2, r4
10008a3a:	0029      	movs	r1, r5
10008a3c:	f7fe f814 	bl	10006a68 <__wrap___aeabi_memcpy>
10008a40:	3401      	adds	r4, #1
10008a42:	b2a4      	uxth	r4, r4
10008a44:	238c      	movs	r3, #140	; 0x8c
10008a46:	435e      	muls	r6, r3
10008a48:	0032      	movs	r2, r6
10008a4a:	3208      	adds	r2, #8
10008a4c:	4b0b      	ldr	r3, [pc, #44]	; (10008a7c <tud_hid_n_report+0x80>)
10008a4e:	18d2      	adds	r2, r2, r3
10008a50:	199b      	adds	r3, r3, r6
10008a52:	7859      	ldrb	r1, [r3, #1]
10008a54:	0023      	movs	r3, r4
10008a56:	2000      	movs	r0, #0
10008a58:	f7ff f8be 	bl	10007bd8 <usbd_edpt_xfer>
10008a5c:	bdf8      	pop	{r3, r4, r5, r6, r7, pc}
10008a5e:	1c23      	adds	r3, r4, #0
10008a60:	2c40      	cmp	r4, #64	; 0x40
10008a62:	d900      	bls.n	10008a66 <tud_hid_n_report+0x6a>
10008a64:	2340      	movs	r3, #64	; 0x40
10008a66:	b29c      	uxth	r4, r3
10008a68:	208c      	movs	r0, #140	; 0x8c
10008a6a:	4370      	muls	r0, r6
10008a6c:	3008      	adds	r0, #8
10008a6e:	4b03      	ldr	r3, [pc, #12]	; (10008a7c <tud_hid_n_report+0x80>)
10008a70:	18c0      	adds	r0, r0, r3
10008a72:	0022      	movs	r2, r4
10008a74:	0029      	movs	r1, r5
10008a76:	f7fd fff7 	bl	10006a68 <__wrap___aeabi_memcpy>
10008a7a:	e7e3      	b.n	10008a44 <tud_hid_n_report+0x48>
10008a7c:	200013d0 	.word	0x200013d0

10008a80 <hidd_reset>:
10008a80:	b510      	push	{r4, lr}
10008a82:	228c      	movs	r2, #140	; 0x8c
10008a84:	0092      	lsls	r2, r2, #2
10008a86:	2100      	movs	r1, #0
10008a88:	4801      	ldr	r0, [pc, #4]	; (10008a90 <hidd_reset+0x10>)
10008a8a:	f7fd ffe7 	bl	10006a5c <__wrap_memset>
10008a8e:	bd10      	pop	{r4, pc}
10008a90:	200013d0 	.word	0x200013d0

10008a94 <hidd_init>:
10008a94:	b510      	push	{r4, lr}
10008a96:	2000      	movs	r0, #0
10008a98:	f7ff fff2 	bl	10008a80 <hidd_reset>
10008a9c:	bd10      	pop	{r4, pc}
	...

10008aa0 <hidd_open>:
10008aa0:	b5f0      	push	{r4, r5, r6, r7, lr}
10008aa2:	b083      	sub	sp, #12
10008aa4:	0005      	movs	r5, r0
10008aa6:	000e      	movs	r6, r1
10008aa8:	794b      	ldrb	r3, [r1, #5]
10008aaa:	2b03      	cmp	r3, #3
10008aac:	d14b      	bne.n	10008b46 <hidd_open+0xa6>
10008aae:	790b      	ldrb	r3, [r1, #4]
10008ab0:	00dc      	lsls	r4, r3, #3
10008ab2:	1ae4      	subs	r4, r4, r3
10008ab4:	b2a4      	uxth	r4, r4
10008ab6:	3412      	adds	r4, #18
10008ab8:	b2a4      	uxth	r4, r4
10008aba:	4294      	cmp	r4, r2
10008abc:	d847      	bhi.n	10008b4e <hidd_open+0xae>
10008abe:	2300      	movs	r3, #0
10008ac0:	2b03      	cmp	r3, #3
10008ac2:	d80c      	bhi.n	10008ade <hidd_open+0x3e>
10008ac4:	218c      	movs	r1, #140	; 0x8c
10008ac6:	4359      	muls	r1, r3
10008ac8:	4a24      	ldr	r2, [pc, #144]	; (10008b5c <hidd_open+0xbc>)
10008aca:	1852      	adds	r2, r2, r1
10008acc:	7852      	ldrb	r2, [r2, #1]
10008ace:	2a00      	cmp	r2, #0
10008ad0:	d002      	beq.n	10008ad8 <hidd_open+0x38>
10008ad2:	3301      	adds	r3, #1
10008ad4:	b2db      	uxtb	r3, r3
10008ad6:	e7f3      	b.n	10008ac0 <hidd_open+0x20>
10008ad8:	4f20      	ldr	r7, [pc, #128]	; (10008b5c <hidd_open+0xbc>)
10008ada:	19cf      	adds	r7, r1, r7
10008adc:	e000      	b.n	10008ae0 <hidd_open+0x40>
10008ade:	2700      	movs	r7, #0
10008ae0:	2f00      	cmp	r7, #0
10008ae2:	d036      	beq.n	10008b52 <hidd_open+0xb2>
10008ae4:	7831      	ldrb	r1, [r6, #0]
10008ae6:	1871      	adds	r1, r6, r1
10008ae8:	784b      	ldrb	r3, [r1, #1]
10008aea:	2b21      	cmp	r3, #33	; 0x21
10008aec:	d001      	beq.n	10008af2 <hidd_open+0x52>
10008aee:	2400      	movs	r4, #0
10008af0:	e02a      	b.n	10008b48 <hidd_open+0xa8>
10008af2:	3367      	adds	r3, #103	; 0x67
10008af4:	50f9      	str	r1, [r7, r3]
10008af6:	780b      	ldrb	r3, [r1, #0]
10008af8:	18c9      	adds	r1, r1, r3
10008afa:	7932      	ldrb	r2, [r6, #4]
10008afc:	1c7b      	adds	r3, r7, #1
10008afe:	9301      	str	r3, [sp, #4]
10008b00:	1cbb      	adds	r3, r7, #2
10008b02:	9300      	str	r3, [sp, #0]
10008b04:	2303      	movs	r3, #3
10008b06:	0028      	movs	r0, r5
10008b08:	f7ff f80c 	bl	10007b24 <usbd_open_edpt_pair>
10008b0c:	2800      	cmp	r0, #0
10008b0e:	d022      	beq.n	10008b56 <hidd_open+0xb6>
10008b10:	79b3      	ldrb	r3, [r6, #6]
10008b12:	2b01      	cmp	r3, #1
10008b14:	d014      	beq.n	10008b40 <hidd_open+0xa0>
10008b16:	2301      	movs	r3, #1
10008b18:	713b      	strb	r3, [r7, #4]
10008b1a:	78b3      	ldrb	r3, [r6, #2]
10008b1c:	703b      	strb	r3, [r7, #0]
10008b1e:	2388      	movs	r3, #136	; 0x88
10008b20:	58fa      	ldr	r2, [r7, r3]
10008b22:	79d1      	ldrb	r1, [r2, #7]
10008b24:	7a13      	ldrb	r3, [r2, #8]
10008b26:	021b      	lsls	r3, r3, #8
10008b28:	430b      	orrs	r3, r1
10008b2a:	80fb      	strh	r3, [r7, #6]
10008b2c:	78b9      	ldrb	r1, [r7, #2]
10008b2e:	2900      	cmp	r1, #0
10008b30:	d00a      	beq.n	10008b48 <hidd_open+0xa8>
10008b32:	003a      	movs	r2, r7
10008b34:	3248      	adds	r2, #72	; 0x48
10008b36:	2340      	movs	r3, #64	; 0x40
10008b38:	0028      	movs	r0, r5
10008b3a:	f7ff f84d 	bl	10007bd8 <usbd_edpt_xfer>
10008b3e:	e003      	b.n	10008b48 <hidd_open+0xa8>
10008b40:	79f3      	ldrb	r3, [r6, #7]
10008b42:	70fb      	strb	r3, [r7, #3]
10008b44:	e7e7      	b.n	10008b16 <hidd_open+0x76>
10008b46:	2400      	movs	r4, #0
10008b48:	0020      	movs	r0, r4
10008b4a:	b003      	add	sp, #12
10008b4c:	bdf0      	pop	{r4, r5, r6, r7, pc}
10008b4e:	2400      	movs	r4, #0
10008b50:	e7fa      	b.n	10008b48 <hidd_open+0xa8>
10008b52:	2400      	movs	r4, #0
10008b54:	e7f8      	b.n	10008b48 <hidd_open+0xa8>
10008b56:	2400      	movs	r4, #0
10008b58:	e7f6      	b.n	10008b48 <hidd_open+0xa8>
10008b5a:	46c0      	nop			; (mov r8, r8)
10008b5c:	200013d0 	.word	0x200013d0

10008b60 <hidd_control_xfer_cb>:
10008b60:	b5f0      	push	{r4, r5, r6, r7, lr}
10008b62:	46c6      	mov	lr, r8
10008b64:	b500      	push	{lr}
10008b66:	b082      	sub	sp, #8
10008b68:	0005      	movs	r5, r0
10008b6a:	0016      	movs	r6, r2
10008b6c:	7810      	ldrb	r0, [r2, #0]
10008b6e:	231f      	movs	r3, #31
10008b70:	4003      	ands	r3, r0
10008b72:	2b01      	cmp	r3, #1
10008b74:	d000      	beq.n	10008b78 <hidd_control_xfer_cb+0x18>
10008b76:	e116      	b.n	10008da6 <hidd_control_xfer_cb+0x246>
10008b78:	7917      	ldrb	r7, [r2, #4]
10008b7a:	2400      	movs	r4, #0
10008b7c:	2c03      	cmp	r4, #3
10008b7e:	d808      	bhi.n	10008b92 <hidd_control_xfer_cb+0x32>
10008b80:	238c      	movs	r3, #140	; 0x8c
10008b82:	4363      	muls	r3, r4
10008b84:	4a90      	ldr	r2, [pc, #576]	; (10008dc8 <hidd_control_xfer_cb+0x268>)
10008b86:	5c9b      	ldrb	r3, [r3, r2]
10008b88:	429f      	cmp	r7, r3
10008b8a:	d003      	beq.n	10008b94 <hidd_control_xfer_cb+0x34>
10008b8c:	3401      	adds	r4, #1
10008b8e:	b2e4      	uxtb	r4, r4
10008b90:	e7f4      	b.n	10008b7c <hidd_control_xfer_cb+0x1c>
10008b92:	24ff      	movs	r4, #255	; 0xff
10008b94:	2c03      	cmp	r4, #3
10008b96:	d900      	bls.n	10008b9a <hidd_control_xfer_cb+0x3a>
10008b98:	e10a      	b.n	10008db0 <hidd_control_xfer_cb+0x250>
10008b9a:	0027      	movs	r7, r4
10008b9c:	2360      	movs	r3, #96	; 0x60
10008b9e:	001a      	movs	r2, r3
10008ba0:	4002      	ands	r2, r0
10008ba2:	4203      	tst	r3, r0
10008ba4:	d12e      	bne.n	10008c04 <hidd_control_xfer_cb+0xa4>
10008ba6:	2901      	cmp	r1, #1
10008ba8:	d001      	beq.n	10008bae <hidd_control_xfer_cb+0x4e>
10008baa:	2001      	movs	r0, #1
10008bac:	e0fc      	b.n	10008da8 <hidd_control_xfer_cb+0x248>
10008bae:	78f2      	ldrb	r2, [r6, #3]
10008bb0:	7873      	ldrb	r3, [r6, #1]
10008bb2:	2b06      	cmp	r3, #6
10008bb4:	d006      	beq.n	10008bc4 <hidd_control_xfer_cb+0x64>
10008bb6:	2b06      	cmp	r3, #6
10008bb8:	d000      	beq.n	10008bbc <hidd_control_xfer_cb+0x5c>
10008bba:	e0fd      	b.n	10008db8 <hidd_control_xfer_cb+0x258>
10008bbc:	2a22      	cmp	r2, #34	; 0x22
10008bbe:	d012      	beq.n	10008be6 <hidd_control_xfer_cb+0x86>
10008bc0:	2000      	movs	r0, #0
10008bc2:	e0f1      	b.n	10008da8 <hidd_control_xfer_cb+0x248>
10008bc4:	2a21      	cmp	r2, #33	; 0x21
10008bc6:	d1f6      	bne.n	10008bb6 <hidd_control_xfer_cb+0x56>
10008bc8:	3386      	adds	r3, #134	; 0x86
10008bca:	435f      	muls	r7, r3
10008bcc:	4b7e      	ldr	r3, [pc, #504]	; (10008dc8 <hidd_control_xfer_cb+0x268>)
10008bce:	19db      	adds	r3, r3, r7
10008bd0:	3388      	adds	r3, #136	; 0x88
10008bd2:	681a      	ldr	r2, [r3, #0]
10008bd4:	2a00      	cmp	r2, #0
10008bd6:	d100      	bne.n	10008bda <hidd_control_xfer_cb+0x7a>
10008bd8:	e0ec      	b.n	10008db4 <hidd_control_xfer_cb+0x254>
10008bda:	7813      	ldrb	r3, [r2, #0]
10008bdc:	0031      	movs	r1, r6
10008bde:	0028      	movs	r0, r5
10008be0:	f7ff fb7c 	bl	100082dc <tud_control_xfer>
10008be4:	e0e0      	b.n	10008da8 <hidd_control_xfer_cb+0x248>
10008be6:	0020      	movs	r0, r4
10008be8:	f7f8 f940 	bl	10000e6c <tud_hid_descriptor_report_cb>
10008bec:	0002      	movs	r2, r0
10008bee:	238c      	movs	r3, #140	; 0x8c
10008bf0:	437b      	muls	r3, r7
10008bf2:	4f75      	ldr	r7, [pc, #468]	; (10008dc8 <hidd_control_xfer_cb+0x268>)
10008bf4:	18ff      	adds	r7, r7, r3
10008bf6:	88fb      	ldrh	r3, [r7, #6]
10008bf8:	0031      	movs	r1, r6
10008bfa:	0028      	movs	r0, r5
10008bfc:	f7ff fb6e 	bl	100082dc <tud_control_xfer>
10008c00:	2001      	movs	r0, #1
10008c02:	e0d1      	b.n	10008da8 <hidd_control_xfer_cb+0x248>
10008c04:	2a20      	cmp	r2, #32
10008c06:	d000      	beq.n	10008c0a <hidd_control_xfer_cb+0xaa>
10008c08:	e0d8      	b.n	10008dbc <hidd_control_xfer_cb+0x25c>
10008c0a:	7873      	ldrb	r3, [r6, #1]
10008c0c:	2b0b      	cmp	r3, #11
10008c0e:	d900      	bls.n	10008c12 <hidd_control_xfer_cb+0xb2>
10008c10:	e0d6      	b.n	10008dc0 <hidd_control_xfer_cb+0x260>
10008c12:	009b      	lsls	r3, r3, #2
10008c14:	4a6d      	ldr	r2, [pc, #436]	; (10008dcc <hidd_control_xfer_cb+0x26c>)
10008c16:	58d3      	ldr	r3, [r2, r3]
10008c18:	469f      	mov	pc, r3
10008c1a:	2901      	cmp	r1, #1
10008c1c:	d001      	beq.n	10008c22 <hidd_control_xfer_cb+0xc2>
10008c1e:	2001      	movs	r0, #1
10008c20:	e0c2      	b.n	10008da8 <hidd_control_xfer_cb+0x248>
10008c22:	78f3      	ldrb	r3, [r6, #3]
10008c24:	469c      	mov	ip, r3
10008c26:	78b1      	ldrb	r1, [r6, #2]
10008c28:	238c      	movs	r3, #140	; 0x8c
10008c2a:	435f      	muls	r7, r3
10008c2c:	3708      	adds	r7, #8
10008c2e:	4b66      	ldr	r3, [pc, #408]	; (10008dc8 <hidd_control_xfer_cb+0x268>)
10008c30:	18ff      	adds	r7, r7, r3
10008c32:	79b0      	ldrb	r0, [r6, #6]
10008c34:	79f3      	ldrb	r3, [r6, #7]
10008c36:	021b      	lsls	r3, r3, #8
10008c38:	4303      	orrs	r3, r0
10008c3a:	1c18      	adds	r0, r3, #0
10008c3c:	2b40      	cmp	r3, #64	; 0x40
10008c3e:	d900      	bls.n	10008c42 <hidd_control_xfer_cb+0xe2>
10008c40:	2040      	movs	r0, #64	; 0x40
10008c42:	b280      	uxth	r0, r0
10008c44:	2900      	cmp	r1, #0
10008c46:	d008      	beq.n	10008c5a <hidd_control_xfer_cb+0xfa>
10008c48:	2b01      	cmp	r3, #1
10008c4a:	d915      	bls.n	10008c78 <hidd_control_xfer_cb+0x118>
10008c4c:	1c7b      	adds	r3, r7, #1
10008c4e:	7039      	strb	r1, [r7, #0]
10008c50:	3801      	subs	r0, #1
10008c52:	b280      	uxth	r0, r0
10008c54:	2201      	movs	r2, #1
10008c56:	4690      	mov	r8, r2
10008c58:	e002      	b.n	10008c60 <hidd_control_xfer_cb+0x100>
10008c5a:	003b      	movs	r3, r7
10008c5c:	2200      	movs	r2, #0
10008c5e:	4690      	mov	r8, r2
10008c60:	9000      	str	r0, [sp, #0]
10008c62:	4662      	mov	r2, ip
10008c64:	0020      	movs	r0, r4
10008c66:	f7f8 f86d 	bl	10000d44 <tud_hid_get_report_cb>
10008c6a:	0003      	movs	r3, r0
10008c6c:	4443      	add	r3, r8
10008c6e:	b29b      	uxth	r3, r3
10008c70:	2b00      	cmp	r3, #0
10008c72:	d105      	bne.n	10008c80 <hidd_control_xfer_cb+0x120>
10008c74:	2000      	movs	r0, #0
10008c76:	e097      	b.n	10008da8 <hidd_control_xfer_cb+0x248>
10008c78:	003b      	movs	r3, r7
10008c7a:	2200      	movs	r2, #0
10008c7c:	4690      	mov	r8, r2
10008c7e:	e7ef      	b.n	10008c60 <hidd_control_xfer_cb+0x100>
10008c80:	003a      	movs	r2, r7
10008c82:	0031      	movs	r1, r6
10008c84:	0028      	movs	r0, r5
10008c86:	f7ff fb29 	bl	100082dc <tud_control_xfer>
10008c8a:	2001      	movs	r0, #1
10008c8c:	e08c      	b.n	10008da8 <hidd_control_xfer_cb+0x248>
10008c8e:	2901      	cmp	r1, #1
10008c90:	d003      	beq.n	10008c9a <hidd_control_xfer_cb+0x13a>
10008c92:	2903      	cmp	r1, #3
10008c94:	d014      	beq.n	10008cc0 <hidd_control_xfer_cb+0x160>
10008c96:	2001      	movs	r0, #1
10008c98:	e086      	b.n	10008da8 <hidd_control_xfer_cb+0x248>
10008c9a:	79b2      	ldrb	r2, [r6, #6]
10008c9c:	79f3      	ldrb	r3, [r6, #7]
10008c9e:	021b      	lsls	r3, r3, #8
10008ca0:	4313      	orrs	r3, r2
10008ca2:	2b40      	cmp	r3, #64	; 0x40
10008ca4:	d901      	bls.n	10008caa <hidd_control_xfer_cb+0x14a>
10008ca6:	2000      	movs	r0, #0
10008ca8:	e07e      	b.n	10008da8 <hidd_control_xfer_cb+0x248>
10008caa:	228c      	movs	r2, #140	; 0x8c
10008cac:	4362      	muls	r2, r4
10008cae:	3248      	adds	r2, #72	; 0x48
10008cb0:	4945      	ldr	r1, [pc, #276]	; (10008dc8 <hidd_control_xfer_cb+0x268>)
10008cb2:	1852      	adds	r2, r2, r1
10008cb4:	0031      	movs	r1, r6
10008cb6:	0028      	movs	r0, r5
10008cb8:	f7ff fb10 	bl	100082dc <tud_control_xfer>
10008cbc:	2001      	movs	r0, #1
10008cbe:	e073      	b.n	10008da8 <hidd_control_xfer_cb+0x248>
10008cc0:	78f2      	ldrb	r2, [r6, #3]
10008cc2:	78b1      	ldrb	r1, [r6, #2]
10008cc4:	238c      	movs	r3, #140	; 0x8c
10008cc6:	4363      	muls	r3, r4
10008cc8:	3348      	adds	r3, #72	; 0x48
10008cca:	483f      	ldr	r0, [pc, #252]	; (10008dc8 <hidd_control_xfer_cb+0x268>)
10008ccc:	181b      	adds	r3, r3, r0
10008cce:	79b0      	ldrb	r0, [r6, #6]
10008cd0:	79f5      	ldrb	r5, [r6, #7]
10008cd2:	022d      	lsls	r5, r5, #8
10008cd4:	4305      	orrs	r5, r0
10008cd6:	1c28      	adds	r0, r5, #0
10008cd8:	2d40      	cmp	r5, #64	; 0x40
10008cda:	d900      	bls.n	10008cde <hidd_control_xfer_cb+0x17e>
10008cdc:	2040      	movs	r0, #64	; 0x40
10008cde:	b280      	uxth	r0, r0
10008ce0:	2900      	cmp	r1, #0
10008ce2:	d004      	beq.n	10008cee <hidd_control_xfer_cb+0x18e>
10008ce4:	2d01      	cmp	r5, #1
10008ce6:	d902      	bls.n	10008cee <hidd_control_xfer_cb+0x18e>
10008ce8:	781d      	ldrb	r5, [r3, #0]
10008cea:	428d      	cmp	r5, r1
10008cec:	d005      	beq.n	10008cfa <hidd_control_xfer_cb+0x19a>
10008cee:	9000      	str	r0, [sp, #0]
10008cf0:	0020      	movs	r0, r4
10008cf2:	f7f8 f855 	bl	10000da0 <tud_hid_set_report_cb>
10008cf6:	2001      	movs	r0, #1
10008cf8:	e056      	b.n	10008da8 <hidd_control_xfer_cb+0x248>
10008cfa:	3301      	adds	r3, #1
10008cfc:	3801      	subs	r0, #1
10008cfe:	b280      	uxth	r0, r0
10008d00:	e7f5      	b.n	10008cee <hidd_control_xfer_cb+0x18e>
10008d02:	2901      	cmp	r1, #1
10008d04:	d001      	beq.n	10008d0a <hidd_control_xfer_cb+0x1aa>
10008d06:	2001      	movs	r0, #1
10008d08:	e04e      	b.n	10008da8 <hidd_control_xfer_cb+0x248>
10008d0a:	78f1      	ldrb	r1, [r6, #3]
10008d0c:	238c      	movs	r3, #140	; 0x8c
10008d0e:	4363      	muls	r3, r4
10008d10:	4f2d      	ldr	r7, [pc, #180]	; (10008dc8 <hidd_control_xfer_cb+0x268>)
10008d12:	18ff      	adds	r7, r7, r3
10008d14:	7179      	strb	r1, [r7, #5]
10008d16:	4b2e      	ldr	r3, [pc, #184]	; (10008dd0 <hidd_control_xfer_cb+0x270>)
10008d18:	2b00      	cmp	r3, #0
10008d1a:	d004      	beq.n	10008d26 <hidd_control_xfer_cb+0x1c6>
10008d1c:	0020      	movs	r0, r4
10008d1e:	e000      	b.n	10008d22 <hidd_control_xfer_cb+0x1c2>
10008d20:	bf00      	nop
10008d22:	2800      	cmp	r0, #0
10008d24:	d040      	beq.n	10008da8 <hidd_control_xfer_cb+0x248>
10008d26:	0031      	movs	r1, r6
10008d28:	0028      	movs	r0, r5
10008d2a:	f7ff fabb 	bl	100082a4 <tud_control_status>
10008d2e:	2001      	movs	r0, #1
10008d30:	e03a      	b.n	10008da8 <hidd_control_xfer_cb+0x248>
10008d32:	2901      	cmp	r1, #1
10008d34:	d001      	beq.n	10008d3a <hidd_control_xfer_cb+0x1da>
10008d36:	2001      	movs	r0, #1
10008d38:	e036      	b.n	10008da8 <hidd_control_xfer_cb+0x248>
10008d3a:	228c      	movs	r2, #140	; 0x8c
10008d3c:	4362      	muls	r2, r4
10008d3e:	4f22      	ldr	r7, [pc, #136]	; (10008dc8 <hidd_control_xfer_cb+0x268>)
10008d40:	19d2      	adds	r2, r2, r7
10008d42:	3205      	adds	r2, #5
10008d44:	2301      	movs	r3, #1
10008d46:	0031      	movs	r1, r6
10008d48:	0028      	movs	r0, r5
10008d4a:	f7ff fac7 	bl	100082dc <tud_control_xfer>
10008d4e:	2001      	movs	r0, #1
10008d50:	e02a      	b.n	10008da8 <hidd_control_xfer_cb+0x248>
10008d52:	2901      	cmp	r1, #1
10008d54:	d001      	beq.n	10008d5a <hidd_control_xfer_cb+0x1fa>
10008d56:	2001      	movs	r0, #1
10008d58:	e026      	b.n	10008da8 <hidd_control_xfer_cb+0x248>
10008d5a:	228c      	movs	r2, #140	; 0x8c
10008d5c:	4362      	muls	r2, r4
10008d5e:	4f1a      	ldr	r7, [pc, #104]	; (10008dc8 <hidd_control_xfer_cb+0x268>)
10008d60:	19d2      	adds	r2, r2, r7
10008d62:	3204      	adds	r2, #4
10008d64:	2301      	movs	r3, #1
10008d66:	0031      	movs	r1, r6
10008d68:	0028      	movs	r0, r5
10008d6a:	f7ff fab7 	bl	100082dc <tud_control_xfer>
10008d6e:	2001      	movs	r0, #1
10008d70:	e01a      	b.n	10008da8 <hidd_control_xfer_cb+0x248>
10008d72:	2901      	cmp	r1, #1
10008d74:	d003      	beq.n	10008d7e <hidd_control_xfer_cb+0x21e>
10008d76:	2903      	cmp	r1, #3
10008d78:	d007      	beq.n	10008d8a <hidd_control_xfer_cb+0x22a>
10008d7a:	2001      	movs	r0, #1
10008d7c:	e014      	b.n	10008da8 <hidd_control_xfer_cb+0x248>
10008d7e:	0031      	movs	r1, r6
10008d80:	0028      	movs	r0, r5
10008d82:	f7ff fa8f 	bl	100082a4 <tud_control_status>
10008d86:	2001      	movs	r0, #1
10008d88:	e00e      	b.n	10008da8 <hidd_control_xfer_cb+0x248>
10008d8a:	78b1      	ldrb	r1, [r6, #2]
10008d8c:	238c      	movs	r3, #140	; 0x8c
10008d8e:	4363      	muls	r3, r4
10008d90:	4f0d      	ldr	r7, [pc, #52]	; (10008dc8 <hidd_control_xfer_cb+0x268>)
10008d92:	18ff      	adds	r7, r7, r3
10008d94:	7139      	strb	r1, [r7, #4]
10008d96:	4b0f      	ldr	r3, [pc, #60]	; (10008dd4 <hidd_control_xfer_cb+0x274>)
10008d98:	2b00      	cmp	r3, #0
10008d9a:	d013      	beq.n	10008dc4 <hidd_control_xfer_cb+0x264>
10008d9c:	0020      	movs	r0, r4
10008d9e:	e000      	b.n	10008da2 <hidd_control_xfer_cb+0x242>
10008da0:	bf00      	nop
10008da2:	2001      	movs	r0, #1
10008da4:	e000      	b.n	10008da8 <hidd_control_xfer_cb+0x248>
10008da6:	2000      	movs	r0, #0
10008da8:	b002      	add	sp, #8
10008daa:	bc80      	pop	{r7}
10008dac:	46b8      	mov	r8, r7
10008dae:	bdf0      	pop	{r4, r5, r6, r7, pc}
10008db0:	2000      	movs	r0, #0
10008db2:	e7f9      	b.n	10008da8 <hidd_control_xfer_cb+0x248>
10008db4:	2000      	movs	r0, #0
10008db6:	e7f7      	b.n	10008da8 <hidd_control_xfer_cb+0x248>
10008db8:	2000      	movs	r0, #0
10008dba:	e7f5      	b.n	10008da8 <hidd_control_xfer_cb+0x248>
10008dbc:	2000      	movs	r0, #0
10008dbe:	e7f3      	b.n	10008da8 <hidd_control_xfer_cb+0x248>
10008dc0:	2000      	movs	r0, #0
10008dc2:	e7f1      	b.n	10008da8 <hidd_control_xfer_cb+0x248>
10008dc4:	2001      	movs	r0, #1
10008dc6:	e7ef      	b.n	10008da8 <hidd_control_xfer_cb+0x248>
10008dc8:	200013d0 	.word	0x200013d0
10008dcc:	1000bd04 	.word	0x1000bd04
	...

10008dd8 <hidd_xfer_cb>:
10008dd8:	b570      	push	{r4, r5, r6, lr}
10008dda:	b082      	sub	sp, #8
10008ddc:	0005      	movs	r5, r0
10008dde:	4c1d      	ldr	r4, [pc, #116]	; (10008e54 <hidd_xfer_cb+0x7c>)
10008de0:	2000      	movs	r0, #0
10008de2:	2803      	cmp	r0, #3
10008de4:	d80c      	bhi.n	10008e00 <hidd_xfer_cb+0x28>
10008de6:	248c      	movs	r4, #140	; 0x8c
10008de8:	4344      	muls	r4, r0
10008dea:	4a1a      	ldr	r2, [pc, #104]	; (10008e54 <hidd_xfer_cb+0x7c>)
10008dec:	18a4      	adds	r4, r4, r2
10008dee:	78a2      	ldrb	r2, [r4, #2]
10008df0:	428a      	cmp	r2, r1
10008df2:	d005      	beq.n	10008e00 <hidd_xfer_cb+0x28>
10008df4:	7862      	ldrb	r2, [r4, #1]
10008df6:	428a      	cmp	r2, r1
10008df8:	d002      	beq.n	10008e00 <hidd_xfer_cb+0x28>
10008dfa:	3001      	adds	r0, #1
10008dfc:	b2c0      	uxtb	r0, r0
10008dfe:	e7f0      	b.n	10008de2 <hidd_xfer_cb+0xa>
10008e00:	2803      	cmp	r0, #3
10008e02:	d822      	bhi.n	10008e4a <hidd_xfer_cb+0x72>
10008e04:	7862      	ldrb	r2, [r4, #1]
10008e06:	428a      	cmp	r2, r1
10008e08:	d005      	beq.n	10008e16 <hidd_xfer_cb+0x3e>
10008e0a:	78a2      	ldrb	r2, [r4, #2]
10008e0c:	428a      	cmp	r2, r1
10008e0e:	d00c      	beq.n	10008e2a <hidd_xfer_cb+0x52>
10008e10:	2001      	movs	r0, #1
10008e12:	b002      	add	sp, #8
10008e14:	bd70      	pop	{r4, r5, r6, pc}
10008e16:	4a10      	ldr	r2, [pc, #64]	; (10008e58 <hidd_xfer_cb+0x80>)
10008e18:	2a00      	cmp	r2, #0
10008e1a:	d018      	beq.n	10008e4e <hidd_xfer_cb+0x76>
10008e1c:	0021      	movs	r1, r4
10008e1e:	3108      	adds	r1, #8
10008e20:	b29a      	uxth	r2, r3
10008e22:	f7f7 ff91 	bl	10000d48 <tud_hid_report_complete_cb>
10008e26:	2001      	movs	r0, #1
10008e28:	e7f3      	b.n	10008e12 <hidd_xfer_cb+0x3a>
10008e2a:	0026      	movs	r6, r4
10008e2c:	3648      	adds	r6, #72	; 0x48
10008e2e:	b29b      	uxth	r3, r3
10008e30:	9300      	str	r3, [sp, #0]
10008e32:	0033      	movs	r3, r6
10008e34:	2200      	movs	r2, #0
10008e36:	2100      	movs	r1, #0
10008e38:	f7f7 ffb2 	bl	10000da0 <tud_hid_set_report_cb>
10008e3c:	78a1      	ldrb	r1, [r4, #2]
10008e3e:	2340      	movs	r3, #64	; 0x40
10008e40:	0032      	movs	r2, r6
10008e42:	0028      	movs	r0, r5
10008e44:	f7fe fec8 	bl	10007bd8 <usbd_edpt_xfer>
10008e48:	e7e3      	b.n	10008e12 <hidd_xfer_cb+0x3a>
10008e4a:	2000      	movs	r0, #0
10008e4c:	e7e1      	b.n	10008e12 <hidd_xfer_cb+0x3a>
10008e4e:	2001      	movs	r0, #1
10008e50:	e7df      	b.n	10008e12 <hidd_xfer_cb+0x3a>
10008e52:	46c0      	nop			; (mov r8, r8)
10008e54:	200013d0 	.word	0x200013d0
10008e58:	10000d49 	.word	0x10000d49

10008e5c <_prep_out_transaction>:
10008e5c:	b510      	push	{r4, lr}
10008e5e:	0004      	movs	r4, r0
10008e60:	7881      	ldrb	r1, [r0, #2]
10008e62:	2000      	movs	r0, #0
10008e64:	f7fe fef4 	bl	10007c50 <usbd_edpt_busy>
10008e68:	2800      	cmp	r0, #0
10008e6a:	d000      	beq.n	10008e6e <_prep_out_transaction+0x12>
10008e6c:	bd10      	pop	{r4, pc}
10008e6e:	1d20      	adds	r0, r4, #4
10008e70:	f000 fcf8 	bl	10009864 <tu_fifo_remaining>
10008e74:	283f      	cmp	r0, #63	; 0x3f
10008e76:	d9f9      	bls.n	10008e6c <_prep_out_transaction+0x10>
10008e78:	0022      	movs	r2, r4
10008e7a:	32bc      	adds	r2, #188	; 0xbc
10008e7c:	78a1      	ldrb	r1, [r4, #2]
10008e7e:	2340      	movs	r3, #64	; 0x40
10008e80:	2000      	movs	r0, #0
10008e82:	f7fe fea9 	bl	10007bd8 <usbd_edpt_xfer>
10008e86:	e7f1      	b.n	10008e6c <_prep_out_transaction+0x10>

10008e88 <maybe_transmit>:
10008e88:	b570      	push	{r4, r5, r6, lr}
10008e8a:	0004      	movs	r4, r0
10008e8c:	7841      	ldrb	r1, [r0, #1]
10008e8e:	2000      	movs	r0, #0
10008e90:	f7fe fede 	bl	10007c50 <usbd_edpt_busy>
10008e94:	2800      	cmp	r0, #0
10008e96:	d002      	beq.n	10008e9e <maybe_transmit+0x16>
10008e98:	2500      	movs	r5, #0
10008e9a:	0028      	movs	r0, r5
10008e9c:	bd70      	pop	{r4, r5, r6, pc}
10008e9e:	0026      	movs	r6, r4
10008ea0:	36fc      	adds	r6, #252	; 0xfc
10008ea2:	0020      	movs	r0, r4
10008ea4:	3018      	adds	r0, #24
10008ea6:	2240      	movs	r2, #64	; 0x40
10008ea8:	0031      	movs	r1, r6
10008eaa:	f000 fd12 	bl	100098d2 <tu_fifo_read_n>
10008eae:	1e05      	subs	r5, r0, #0
10008eb0:	d0f3      	beq.n	10008e9a <maybe_transmit+0x12>
10008eb2:	7861      	ldrb	r1, [r4, #1]
10008eb4:	0003      	movs	r3, r0
10008eb6:	0032      	movs	r2, r6
10008eb8:	2000      	movs	r0, #0
10008eba:	f7fe fe8d 	bl	10007bd8 <usbd_edpt_xfer>
10008ebe:	2800      	cmp	r0, #0
10008ec0:	d1eb      	bne.n	10008e9a <maybe_transmit+0x12>
10008ec2:	2500      	movs	r5, #0
10008ec4:	e7e9      	b.n	10008e9a <maybe_transmit+0x12>
	...

10008ec8 <tud_vendor_n_read>:
10008ec8:	b570      	push	{r4, r5, r6, lr}
10008eca:	0083      	lsls	r3, r0, #2
10008ecc:	181b      	adds	r3, r3, r0
10008ece:	011b      	lsls	r3, r3, #4
10008ed0:	1a1d      	subs	r5, r3, r0
10008ed2:	00ad      	lsls	r5, r5, #2
10008ed4:	4e06      	ldr	r6, [pc, #24]	; (10008ef0 <tud_vendor_n_read+0x28>)
10008ed6:	19ad      	adds	r5, r5, r6
10008ed8:	b292      	uxth	r2, r2
10008eda:	0028      	movs	r0, r5
10008edc:	3004      	adds	r0, #4
10008ede:	f000 fcf8 	bl	100098d2 <tu_fifo_read_n>
10008ee2:	0004      	movs	r4, r0
10008ee4:	0028      	movs	r0, r5
10008ee6:	f7ff ffb9 	bl	10008e5c <_prep_out_transaction>
10008eea:	0020      	movs	r0, r4
10008eec:	bd70      	pop	{r4, r5, r6, pc}
10008eee:	46c0      	nop			; (mov r8, r8)
10008ef0:	200019fc 	.word	0x200019fc

10008ef4 <tud_vendor_n_write>:
10008ef4:	b570      	push	{r4, r5, r6, lr}
10008ef6:	0083      	lsls	r3, r0, #2
10008ef8:	181b      	adds	r3, r3, r0
10008efa:	011b      	lsls	r3, r3, #4
10008efc:	1a1d      	subs	r5, r3, r0
10008efe:	00ad      	lsls	r5, r5, #2
10008f00:	4e0a      	ldr	r6, [pc, #40]	; (10008f2c <tud_vendor_n_write+0x38>)
10008f02:	19ad      	adds	r5, r5, r6
10008f04:	1a1b      	subs	r3, r3, r0
10008f06:	009b      	lsls	r3, r3, #2
10008f08:	3318      	adds	r3, #24
10008f0a:	199c      	adds	r4, r3, r6
10008f0c:	b292      	uxth	r2, r2
10008f0e:	0020      	movs	r0, r4
10008f10:	f000 fd16 	bl	10009940 <tu_fifo_write_n>
10008f14:	0006      	movs	r6, r0
10008f16:	0020      	movs	r0, r4
10008f18:	f000 fc73 	bl	10009802 <tu_fifo_count>
10008f1c:	283f      	cmp	r0, #63	; 0x3f
10008f1e:	d801      	bhi.n	10008f24 <tud_vendor_n_write+0x30>
10008f20:	0030      	movs	r0, r6
10008f22:	bd70      	pop	{r4, r5, r6, pc}
10008f24:	0028      	movs	r0, r5
10008f26:	f7ff ffaf 	bl	10008e88 <maybe_transmit>
10008f2a:	e7f9      	b.n	10008f20 <tud_vendor_n_write+0x2c>
10008f2c:	200019fc 	.word	0x200019fc

10008f30 <tud_vendor_n_flush>:
10008f30:	b510      	push	{r4, lr}
10008f32:	0083      	lsls	r3, r0, #2
10008f34:	181b      	adds	r3, r3, r0
10008f36:	011b      	lsls	r3, r3, #4
10008f38:	1a18      	subs	r0, r3, r0
10008f3a:	0080      	lsls	r0, r0, #2
10008f3c:	4b02      	ldr	r3, [pc, #8]	; (10008f48 <tud_vendor_n_flush+0x18>)
10008f3e:	18c0      	adds	r0, r0, r3
10008f40:	f7ff ffa2 	bl	10008e88 <maybe_transmit>
10008f44:	bd10      	pop	{r4, pc}
10008f46:	46c0      	nop			; (mov r8, r8)
10008f48:	200019fc 	.word	0x200019fc

10008f4c <vendord_init>:
10008f4c:	b5f0      	push	{r4, r5, r6, r7, lr}
10008f4e:	46ce      	mov	lr, r9
10008f50:	4647      	mov	r7, r8
10008f52:	b580      	push	{r7, lr}
10008f54:	b083      	sub	sp, #12
10008f56:	229e      	movs	r2, #158	; 0x9e
10008f58:	0092      	lsls	r2, r2, #2
10008f5a:	2100      	movs	r1, #0
10008f5c:	4824      	ldr	r0, [pc, #144]	; (10008ff0 <vendord_init+0xa4>)
10008f5e:	f7fd fd7d 	bl	10006a5c <__wrap_memset>
10008f62:	2400      	movs	r4, #0
10008f64:	e03d      	b.n	10008fe2 <vendord_init+0x96>
10008f66:	00a5      	lsls	r5, r4, #2
10008f68:	192d      	adds	r5, r5, r4
10008f6a:	012d      	lsls	r5, r5, #4
10008f6c:	1b2b      	subs	r3, r5, r4
10008f6e:	0099      	lsls	r1, r3, #2
10008f70:	3128      	adds	r1, #40	; 0x28
10008f72:	4e1f      	ldr	r6, [pc, #124]	; (10008ff0 <vendord_init+0xa4>)
10008f74:	1989      	adds	r1, r1, r6
10008f76:	3104      	adds	r1, #4
10008f78:	009b      	lsls	r3, r3, #2
10008f7a:	4699      	mov	r9, r3
10008f7c:	44b1      	add	r9, r6
10008f7e:	464b      	mov	r3, r9
10008f80:	1d18      	adds	r0, r3, #4
10008f82:	2300      	movs	r3, #0
10008f84:	4698      	mov	r8, r3
10008f86:	9300      	str	r3, [sp, #0]
10008f88:	3301      	adds	r3, #1
10008f8a:	2240      	movs	r2, #64	; 0x40
10008f8c:	f000 fbfb 	bl	10009786 <tu_fifo_config>
10008f90:	1b2b      	subs	r3, r5, r4
10008f92:	0099      	lsls	r1, r3, #2
10008f94:	3168      	adds	r1, #104	; 0x68
10008f96:	1989      	adds	r1, r1, r6
10008f98:	3104      	adds	r1, #4
10008f9a:	0098      	lsls	r0, r3, #2
10008f9c:	3018      	adds	r0, #24
10008f9e:	1980      	adds	r0, r0, r6
10008fa0:	4643      	mov	r3, r8
10008fa2:	9300      	str	r3, [sp, #0]
10008fa4:	3301      	adds	r3, #1
10008fa6:	2240      	movs	r2, #64	; 0x40
10008fa8:	f000 fbed 	bl	10009786 <tu_fifo_config>
10008fac:	1b2b      	subs	r3, r5, r4
10008fae:	009f      	lsls	r7, r3, #2
10008fb0:	37a8      	adds	r7, #168	; 0xa8
10008fb2:	19bf      	adds	r7, r7, r6
10008fb4:	3704      	adds	r7, #4
10008fb6:	0038      	movs	r0, r7
10008fb8:	f7fa f886 	bl	100030c8 <mutex_init>
10008fbc:	464b      	mov	r3, r9
10008fbe:	4642      	mov	r2, r8
10008fc0:	611a      	str	r2, [r3, #16]
10008fc2:	615f      	str	r7, [r3, #20]
10008fc4:	1b2b      	subs	r3, r5, r4
10008fc6:	009f      	lsls	r7, r3, #2
10008fc8:	37b0      	adds	r7, #176	; 0xb0
10008fca:	19bf      	adds	r7, r7, r6
10008fcc:	3704      	adds	r7, #4
10008fce:	0038      	movs	r0, r7
10008fd0:	f7fa f87a 	bl	100030c8 <mutex_init>
10008fd4:	464b      	mov	r3, r9
10008fd6:	625f      	str	r7, [r3, #36]	; 0x24
10008fd8:	464e      	mov	r6, r9
10008fda:	4643      	mov	r3, r8
10008fdc:	62b3      	str	r3, [r6, #40]	; 0x28
10008fde:	3401      	adds	r4, #1
10008fe0:	b2e4      	uxtb	r4, r4
10008fe2:	2c01      	cmp	r4, #1
10008fe4:	d9bf      	bls.n	10008f66 <vendord_init+0x1a>
10008fe6:	b003      	add	sp, #12
10008fe8:	bcc0      	pop	{r6, r7}
10008fea:	46b9      	mov	r9, r7
10008fec:	46b0      	mov	r8, r6
10008fee:	bdf0      	pop	{r4, r5, r6, r7, pc}
10008ff0:	200019fc 	.word	0x200019fc

10008ff4 <vendord_reset>:
10008ff4:	b5f8      	push	{r3, r4, r5, r6, r7, lr}
10008ff6:	2400      	movs	r4, #0
10008ff8:	e016      	b.n	10009028 <vendord_reset+0x34>
10008ffa:	00a5      	lsls	r5, r4, #2
10008ffc:	192d      	adds	r5, r5, r4
10008ffe:	012d      	lsls	r5, r5, #4
10009000:	1b2b      	subs	r3, r5, r4
10009002:	009e      	lsls	r6, r3, #2
10009004:	4f0a      	ldr	r7, [pc, #40]	; (10009030 <vendord_reset+0x3c>)
10009006:	19f6      	adds	r6, r6, r7
10009008:	2204      	movs	r2, #4
1000900a:	2100      	movs	r1, #0
1000900c:	0030      	movs	r0, r6
1000900e:	f7fd fd25 	bl	10006a5c <__wrap_memset>
10009012:	1d30      	adds	r0, r6, #4
10009014:	f000 fc99 	bl	1000994a <tu_fifo_clear>
10009018:	1b2d      	subs	r5, r5, r4
1000901a:	00a8      	lsls	r0, r5, #2
1000901c:	3018      	adds	r0, #24
1000901e:	19c0      	adds	r0, r0, r7
10009020:	f000 fc93 	bl	1000994a <tu_fifo_clear>
10009024:	3401      	adds	r4, #1
10009026:	b2e4      	uxtb	r4, r4
10009028:	2c01      	cmp	r4, #1
1000902a:	d9e6      	bls.n	10008ffa <vendord_reset+0x6>
1000902c:	bdf8      	pop	{r3, r4, r5, r6, r7, pc}
1000902e:	46c0      	nop			; (mov r8, r8)
10009030:	200019fc 	.word	0x200019fc

10009034 <vendord_open>:
10009034:	b5f0      	push	{r4, r5, r6, r7, lr}
10009036:	b083      	sub	sp, #12
10009038:	0005      	movs	r5, r0
1000903a:	000e      	movs	r6, r1
1000903c:	794b      	ldrb	r3, [r1, #5]
1000903e:	2bff      	cmp	r3, #255	; 0xff
10009040:	d158      	bne.n	100090f4 <vendord_open+0xc0>
10009042:	780c      	ldrb	r4, [r1, #0]
10009044:	190c      	adds	r4, r1, r4
10009046:	18a0      	adds	r0, r4, r2
10009048:	2300      	movs	r3, #0
1000904a:	e001      	b.n	10009050 <vendord_open+0x1c>
1000904c:	3301      	adds	r3, #1
1000904e:	b2db      	uxtb	r3, r3
10009050:	2b01      	cmp	r3, #1
10009052:	d81a      	bhi.n	1000908a <vendord_open+0x56>
10009054:	009a      	lsls	r2, r3, #2
10009056:	18d2      	adds	r2, r2, r3
10009058:	0112      	lsls	r2, r2, #4
1000905a:	1ad2      	subs	r2, r2, r3
1000905c:	0092      	lsls	r2, r2, #2
1000905e:	4f29      	ldr	r7, [pc, #164]	; (10009104 <vendord_open+0xd0>)
10009060:	18ba      	adds	r2, r7, r2
10009062:	7852      	ldrb	r2, [r2, #1]
10009064:	2a00      	cmp	r2, #0
10009066:	d1f1      	bne.n	1000904c <vendord_open+0x18>
10009068:	009a      	lsls	r2, r3, #2
1000906a:	18d2      	adds	r2, r2, r3
1000906c:	0112      	lsls	r2, r2, #4
1000906e:	1ad2      	subs	r2, r2, r3
10009070:	0092      	lsls	r2, r2, #2
10009072:	18ba      	adds	r2, r7, r2
10009074:	7892      	ldrb	r2, [r2, #2]
10009076:	2a00      	cmp	r2, #0
10009078:	d1e8      	bne.n	1000904c <vendord_open+0x18>
1000907a:	009f      	lsls	r7, r3, #2
1000907c:	18ff      	adds	r7, r7, r3
1000907e:	013f      	lsls	r7, r7, #4
10009080:	1aff      	subs	r7, r7, r3
10009082:	00bf      	lsls	r7, r7, #2
10009084:	491f      	ldr	r1, [pc, #124]	; (10009104 <vendord_open+0xd0>)
10009086:	187f      	adds	r7, r7, r1
10009088:	e000      	b.n	1000908c <vendord_open+0x58>
1000908a:	2700      	movs	r7, #0
1000908c:	2f00      	cmp	r7, #0
1000908e:	d034      	beq.n	100090fa <vendord_open+0xc6>
10009090:	78b3      	ldrb	r3, [r6, #2]
10009092:	703b      	strb	r3, [r7, #0]
10009094:	7932      	ldrb	r2, [r6, #4]
10009096:	2a00      	cmp	r2, #0
10009098:	d104      	bne.n	100090a4 <vendord_open+0x70>
1000909a:	1ba0      	subs	r0, r4, r6
1000909c:	b280      	uxth	r0, r0
1000909e:	e02a      	b.n	100090f6 <vendord_open+0xc2>
100090a0:	7823      	ldrb	r3, [r4, #0]
100090a2:	18e4      	adds	r4, r4, r3
100090a4:	7863      	ldrb	r3, [r4, #1]
100090a6:	2b05      	cmp	r3, #5
100090a8:	d001      	beq.n	100090ae <vendord_open+0x7a>
100090aa:	4284      	cmp	r4, r0
100090ac:	d3f8      	bcc.n	100090a0 <vendord_open+0x6c>
100090ae:	1c7b      	adds	r3, r7, #1
100090b0:	9301      	str	r3, [sp, #4]
100090b2:	1cbb      	adds	r3, r7, #2
100090b4:	9300      	str	r3, [sp, #0]
100090b6:	2302      	movs	r3, #2
100090b8:	0021      	movs	r1, r4
100090ba:	0028      	movs	r0, r5
100090bc:	f7fe fd32 	bl	10007b24 <usbd_open_edpt_pair>
100090c0:	2800      	cmp	r0, #0
100090c2:	d01c      	beq.n	100090fe <vendord_open+0xca>
100090c4:	7932      	ldrb	r2, [r6, #4]
100090c6:	00d3      	lsls	r3, r2, #3
100090c8:	1a9b      	subs	r3, r3, r2
100090ca:	18e4      	adds	r4, r4, r3
100090cc:	78b9      	ldrb	r1, [r7, #2]
100090ce:	2900      	cmp	r1, #0
100090d0:	d106      	bne.n	100090e0 <vendord_open+0xac>
100090d2:	787b      	ldrb	r3, [r7, #1]
100090d4:	2b00      	cmp	r3, #0
100090d6:	d0e0      	beq.n	1000909a <vendord_open+0x66>
100090d8:	0038      	movs	r0, r7
100090da:	f7ff fed5 	bl	10008e88 <maybe_transmit>
100090de:	e7dc      	b.n	1000909a <vendord_open+0x66>
100090e0:	003a      	movs	r2, r7
100090e2:	32bc      	adds	r2, #188	; 0xbc
100090e4:	2340      	movs	r3, #64	; 0x40
100090e6:	0028      	movs	r0, r5
100090e8:	f7fe fd76 	bl	10007bd8 <usbd_edpt_xfer>
100090ec:	2800      	cmp	r0, #0
100090ee:	d1f0      	bne.n	100090d2 <vendord_open+0x9e>
100090f0:	2000      	movs	r0, #0
100090f2:	e000      	b.n	100090f6 <vendord_open+0xc2>
100090f4:	2000      	movs	r0, #0
100090f6:	b003      	add	sp, #12
100090f8:	bdf0      	pop	{r4, r5, r6, r7, pc}
100090fa:	2000      	movs	r0, #0
100090fc:	e7fb      	b.n	100090f6 <vendord_open+0xc2>
100090fe:	2000      	movs	r0, #0
10009100:	e7f9      	b.n	100090f6 <vendord_open+0xc2>
10009102:	46c0      	nop			; (mov r8, r8)
10009104:	200019fc 	.word	0x200019fc

10009108 <vendord_xfer_cb>:
10009108:	b570      	push	{r4, r5, r6, lr}
1000910a:	4d1b      	ldr	r5, [pc, #108]	; (10009178 <vendord_xfer_cb+0x70>)
1000910c:	2400      	movs	r4, #0
1000910e:	2c01      	cmp	r4, #1
10009110:	d82f      	bhi.n	10009172 <vendord_xfer_cb+0x6a>
10009112:	78a8      	ldrb	r0, [r5, #2]
10009114:	4288      	cmp	r0, r1
10009116:	d007      	beq.n	10009128 <vendord_xfer_cb+0x20>
10009118:	786a      	ldrb	r2, [r5, #1]
1000911a:	428a      	cmp	r2, r1
1000911c:	d004      	beq.n	10009128 <vendord_xfer_cb+0x20>
1000911e:	3401      	adds	r4, #1
10009120:	b2e4      	uxtb	r4, r4
10009122:	353d      	adds	r5, #61	; 0x3d
10009124:	35ff      	adds	r5, #255	; 0xff
10009126:	e7f2      	b.n	1000910e <vendord_xfer_cb+0x6>
10009128:	4288      	cmp	r0, r1
1000912a:	d004      	beq.n	10009136 <vendord_xfer_cb+0x2e>
1000912c:	786a      	ldrb	r2, [r5, #1]
1000912e:	428a      	cmp	r2, r1
10009130:	d012      	beq.n	10009158 <vendord_xfer_cb+0x50>
10009132:	2001      	movs	r0, #1
10009134:	e01e      	b.n	10009174 <vendord_xfer_cb+0x6c>
10009136:	0029      	movs	r1, r5
10009138:	31bc      	adds	r1, #188	; 0xbc
1000913a:	b29a      	uxth	r2, r3
1000913c:	1d28      	adds	r0, r5, #4
1000913e:	f000 fbff 	bl	10009940 <tu_fifo_write_n>
10009142:	4b0e      	ldr	r3, [pc, #56]	; (1000917c <vendord_xfer_cb+0x74>)
10009144:	2b00      	cmp	r3, #0
10009146:	d002      	beq.n	1000914e <vendord_xfer_cb+0x46>
10009148:	0020      	movs	r0, r4
1000914a:	f7f7 ff01 	bl	10000f50 <tud_vendor_rx_cb>
1000914e:	0028      	movs	r0, r5
10009150:	f7ff fe84 	bl	10008e5c <_prep_out_transaction>
10009154:	2001      	movs	r0, #1
10009156:	e00d      	b.n	10009174 <vendord_xfer_cb+0x6c>
10009158:	4a09      	ldr	r2, [pc, #36]	; (10009180 <vendord_xfer_cb+0x78>)
1000915a:	2a00      	cmp	r2, #0
1000915c:	d004      	beq.n	10009168 <vendord_xfer_cb+0x60>
1000915e:	041b      	lsls	r3, r3, #16
10009160:	0c19      	lsrs	r1, r3, #16
10009162:	0020      	movs	r0, r4
10009164:	e000      	b.n	10009168 <vendord_xfer_cb+0x60>
10009166:	bf00      	nop
10009168:	0028      	movs	r0, r5
1000916a:	f7ff fe8d 	bl	10008e88 <maybe_transmit>
1000916e:	2001      	movs	r0, #1
10009170:	e000      	b.n	10009174 <vendord_xfer_cb+0x6c>
10009172:	2000      	movs	r0, #0
10009174:	bd70      	pop	{r4, r5, r6, pc}
10009176:	46c0      	nop			; (mov r8, r8)
10009178:	200019fc 	.word	0x200019fc
1000917c:	10000f51 	.word	0x10000f51
10009180:	00000000 	.word	0x00000000

10009184 <tusb_init>:
10009184:	b510      	push	{r4, lr}
10009186:	2000      	movs	r0, #0
10009188:	f7fe fc4a 	bl	10007a20 <tud_init>
1000918c:	bd10      	pop	{r4, pc}

1000918e <tusb_inited>:
1000918e:	b510      	push	{r4, lr}
10009190:	f7fe fc3c 	bl	10007a0c <tud_inited>
10009194:	2800      	cmp	r0, #0
10009196:	d000      	beq.n	1000919a <tusb_inited+0xc>
10009198:	2001      	movs	r0, #1
1000919a:	bd10      	pop	{r4, pc}

1000919c <tu_edpt_claim>:
1000919c:	b570      	push	{r4, r5, r6, lr}
1000919e:	0004      	movs	r4, r0
100091a0:	000d      	movs	r5, r1
100091a2:	7803      	ldrb	r3, [r0, #0]
100091a4:	07db      	lsls	r3, r3, #31
100091a6:	0fde      	lsrs	r6, r3, #31
100091a8:	2b00      	cmp	r3, #0
100091aa:	d11c      	bne.n	100091e6 <tu_edpt_claim+0x4a>
100091ac:	7803      	ldrb	r3, [r0, #0]
100091ae:	075b      	lsls	r3, r3, #29
100091b0:	d41a      	bmi.n	100091e8 <tu_edpt_claim+0x4c>
100091b2:	2101      	movs	r1, #1
100091b4:	4249      	negs	r1, r1
100091b6:	0028      	movs	r0, r5
100091b8:	f000 fc72 	bl	10009aa0 <__mutex_enter_timeout_ms_veneer>
100091bc:	7823      	ldrb	r3, [r4, #0]
100091be:	07db      	lsls	r3, r3, #31
100091c0:	d404      	bmi.n	100091cc <tu_edpt_claim+0x30>
100091c2:	7823      	ldrb	r3, [r4, #0]
100091c4:	075b      	lsls	r3, r3, #29
100091c6:	d50c      	bpl.n	100091e2 <tu_edpt_claim+0x46>
100091c8:	2600      	movs	r6, #0
100091ca:	e000      	b.n	100091ce <tu_edpt_claim+0x32>
100091cc:	2600      	movs	r6, #0
100091ce:	2e00      	cmp	r6, #0
100091d0:	d003      	beq.n	100091da <tu_edpt_claim+0x3e>
100091d2:	7823      	ldrb	r3, [r4, #0]
100091d4:	2204      	movs	r2, #4
100091d6:	4313      	orrs	r3, r2
100091d8:	7023      	strb	r3, [r4, #0]
100091da:	0028      	movs	r0, r5
100091dc:	f000 fc30 	bl	10009a40 <__mutex_exit_veneer>
100091e0:	e002      	b.n	100091e8 <tu_edpt_claim+0x4c>
100091e2:	2601      	movs	r6, #1
100091e4:	e7f3      	b.n	100091ce <tu_edpt_claim+0x32>
100091e6:	2600      	movs	r6, #0
100091e8:	0030      	movs	r0, r6
100091ea:	bd70      	pop	{r4, r5, r6, pc}

100091ec <tu_edpt_release>:
100091ec:	b570      	push	{r4, r5, r6, lr}
100091ee:	0004      	movs	r4, r0
100091f0:	000e      	movs	r6, r1
100091f2:	2101      	movs	r1, #1
100091f4:	4249      	negs	r1, r1
100091f6:	0030      	movs	r0, r6
100091f8:	f000 fc52 	bl	10009aa0 <__mutex_enter_timeout_ms_veneer>
100091fc:	7823      	ldrb	r3, [r4, #0]
100091fe:	075b      	lsls	r3, r3, #29
10009200:	d40b      	bmi.n	1000921a <tu_edpt_release+0x2e>
10009202:	2500      	movs	r5, #0
10009204:	2d00      	cmp	r5, #0
10009206:	d003      	beq.n	10009210 <tu_edpt_release+0x24>
10009208:	7823      	ldrb	r3, [r4, #0]
1000920a:	2204      	movs	r2, #4
1000920c:	4393      	bics	r3, r2
1000920e:	7023      	strb	r3, [r4, #0]
10009210:	0030      	movs	r0, r6
10009212:	f000 fc15 	bl	10009a40 <__mutex_exit_veneer>
10009216:	0028      	movs	r0, r5
10009218:	bd70      	pop	{r4, r5, r6, pc}
1000921a:	7823      	ldrb	r3, [r4, #0]
1000921c:	07db      	lsls	r3, r3, #31
1000921e:	d501      	bpl.n	10009224 <tu_edpt_release+0x38>
10009220:	2500      	movs	r5, #0
10009222:	e7ef      	b.n	10009204 <tu_edpt_release+0x18>
10009224:	2501      	movs	r5, #1
10009226:	e7ed      	b.n	10009204 <tu_edpt_release+0x18>

10009228 <tu_edpt_validate>:
10009228:	b510      	push	{r4, lr}
1000922a:	7904      	ldrb	r4, [r0, #4]
1000922c:	7943      	ldrb	r3, [r0, #5]
1000922e:	021b      	lsls	r3, r3, #8
10009230:	4323      	orrs	r3, r4
10009232:	055b      	lsls	r3, r3, #21
10009234:	0d5b      	lsrs	r3, r3, #21
10009236:	78c2      	ldrb	r2, [r0, #3]
10009238:	0792      	lsls	r2, r2, #30
1000923a:	0f92      	lsrs	r2, r2, #30
1000923c:	2a02      	cmp	r2, #2
1000923e:	d00f      	beq.n	10009260 <tu_edpt_validate+0x38>
10009240:	2a03      	cmp	r2, #3
10009242:	d019      	beq.n	10009278 <tu_edpt_validate+0x50>
10009244:	2a01      	cmp	r2, #1
10009246:	d001      	beq.n	1000924c <tu_edpt_validate+0x24>
10009248:	2000      	movs	r0, #0
1000924a:	bd10      	pop	{r4, pc}
1000924c:	2902      	cmp	r1, #2
1000924e:	d004      	beq.n	1000925a <tu_edpt_validate+0x32>
10009250:	4a12      	ldr	r2, [pc, #72]	; (1000929c <tu_edpt_validate+0x74>)
10009252:	429a      	cmp	r2, r3
10009254:	d31a      	bcc.n	1000928c <tu_edpt_validate+0x64>
10009256:	2001      	movs	r0, #1
10009258:	e7f7      	b.n	1000924a <tu_edpt_validate+0x22>
1000925a:	2280      	movs	r2, #128	; 0x80
1000925c:	00d2      	lsls	r2, r2, #3
1000925e:	e7f8      	b.n	10009252 <tu_edpt_validate+0x2a>
10009260:	2902      	cmp	r1, #2
10009262:	d003      	beq.n	1000926c <tu_edpt_validate+0x44>
10009264:	2b40      	cmp	r3, #64	; 0x40
10009266:	d815      	bhi.n	10009294 <tu_edpt_validate+0x6c>
10009268:	2001      	movs	r0, #1
1000926a:	e7ee      	b.n	1000924a <tu_edpt_validate+0x22>
1000926c:	2280      	movs	r2, #128	; 0x80
1000926e:	0092      	lsls	r2, r2, #2
10009270:	4293      	cmp	r3, r2
10009272:	d10d      	bne.n	10009290 <tu_edpt_validate+0x68>
10009274:	2001      	movs	r0, #1
10009276:	e7e8      	b.n	1000924a <tu_edpt_validate+0x22>
10009278:	2902      	cmp	r1, #2
1000927a:	d004      	beq.n	10009286 <tu_edpt_validate+0x5e>
1000927c:	2240      	movs	r2, #64	; 0x40
1000927e:	429a      	cmp	r2, r3
10009280:	d30a      	bcc.n	10009298 <tu_edpt_validate+0x70>
10009282:	2001      	movs	r0, #1
10009284:	e7e1      	b.n	1000924a <tu_edpt_validate+0x22>
10009286:	2280      	movs	r2, #128	; 0x80
10009288:	00d2      	lsls	r2, r2, #3
1000928a:	e7f8      	b.n	1000927e <tu_edpt_validate+0x56>
1000928c:	2000      	movs	r0, #0
1000928e:	e7dc      	b.n	1000924a <tu_edpt_validate+0x22>
10009290:	2000      	movs	r0, #0
10009292:	e7da      	b.n	1000924a <tu_edpt_validate+0x22>
10009294:	2000      	movs	r0, #0
10009296:	e7d8      	b.n	1000924a <tu_edpt_validate+0x22>
10009298:	2000      	movs	r0, #0
1000929a:	e7d6      	b.n	1000924a <tu_edpt_validate+0x22>
1000929c:	000003ff 	.word	0x000003ff

100092a0 <tu_edpt_bind_driver>:
100092a0:	b530      	push	{r4, r5, lr}
100092a2:	188a      	adds	r2, r1, r2
100092a4:	e001      	b.n	100092aa <tu_edpt_bind_driver+0xa>
100092a6:	780c      	ldrb	r4, [r1, #0]
100092a8:	1909      	adds	r1, r1, r4
100092aa:	4291      	cmp	r1, r2
100092ac:	d20a      	bcs.n	100092c4 <tu_edpt_bind_driver+0x24>
100092ae:	784c      	ldrb	r4, [r1, #1]
100092b0:	2c05      	cmp	r4, #5
100092b2:	d1f8      	bne.n	100092a6 <tu_edpt_bind_driver+0x6>
100092b4:	788d      	ldrb	r5, [r1, #2]
100092b6:	347a      	adds	r4, #122	; 0x7a
100092b8:	402c      	ands	r4, r5
100092ba:	0064      	lsls	r4, r4, #1
100092bc:	1904      	adds	r4, r0, r4
100092be:	09ed      	lsrs	r5, r5, #7
100092c0:	5563      	strb	r3, [r4, r5]
100092c2:	e7f0      	b.n	100092a6 <tu_edpt_bind_driver+0x6>
100092c4:	bd30      	pop	{r4, r5, pc}

100092c6 <advance_index>:
100092c6:	0003      	movs	r3, r0
100092c8:	188a      	adds	r2, r1, r2
100092ca:	b290      	uxth	r0, r2
100092cc:	4281      	cmp	r1, r0
100092ce:	d802      	bhi.n	100092d6 <advance_index+0x10>
100092d0:	005a      	lsls	r2, r3, #1
100092d2:	4290      	cmp	r0, r2
100092d4:	db03      	blt.n	100092de <advance_index+0x18>
100092d6:	005b      	lsls	r3, r3, #1
100092d8:	b29b      	uxth	r3, r3
100092da:	1ac0      	subs	r0, r0, r3
100092dc:	b280      	uxth	r0, r0
100092de:	4770      	bx	lr

100092e0 <_tu_fifo_peek>:
100092e0:	b570      	push	{r4, r5, r6, lr}
100092e2:	0005      	movs	r5, r0
100092e4:	0008      	movs	r0, r1
100092e6:	88ac      	ldrh	r4, [r5, #4]
100092e8:	429a      	cmp	r2, r3
100092ea:	d30b      	bcc.n	10009304 <_tu_fifo_peek+0x24>
100092ec:	1ad1      	subs	r1, r2, r3
100092ee:	b289      	uxth	r1, r1
100092f0:	2900      	cmp	r1, #0
100092f2:	d01e      	beq.n	10009332 <_tu_fifo_peek+0x52>
100092f4:	428c      	cmp	r4, r1
100092f6:	d210      	bcs.n	1000931a <_tu_fifo_peek+0x3a>
100092f8:	4294      	cmp	r4, r2
100092fa:	d809      	bhi.n	10009310 <_tu_fifo_peek+0x30>
100092fc:	1b13      	subs	r3, r2, r4
100092fe:	b29b      	uxth	r3, r3
10009300:	816b      	strh	r3, [r5, #10]
10009302:	e00a      	b.n	1000931a <_tu_fifo_peek+0x3a>
10009304:	1ad1      	subs	r1, r2, r3
10009306:	b289      	uxth	r1, r1
10009308:	0066      	lsls	r6, r4, #1
1000930a:	1989      	adds	r1, r1, r6
1000930c:	b289      	uxth	r1, r1
1000930e:	e7ef      	b.n	100092f0 <_tu_fifo_peek+0x10>
10009310:	18a2      	adds	r2, r4, r2
10009312:	b293      	uxth	r3, r2
10009314:	e7f4      	b.n	10009300 <_tu_fifo_peek+0x20>
10009316:	1b1b      	subs	r3, r3, r4
10009318:	b29b      	uxth	r3, r3
1000931a:	429c      	cmp	r4, r3
1000931c:	d9fb      	bls.n	10009316 <_tu_fifo_peek+0x36>
1000931e:	6829      	ldr	r1, [r5, #0]
10009320:	88ea      	ldrh	r2, [r5, #6]
10009322:	0452      	lsls	r2, r2, #17
10009324:	0c52      	lsrs	r2, r2, #17
10009326:	4353      	muls	r3, r2
10009328:	18c9      	adds	r1, r1, r3
1000932a:	f7fd fb9d 	bl	10006a68 <__wrap___aeabi_memcpy>
1000932e:	2001      	movs	r0, #1
10009330:	bd70      	pop	{r4, r5, r6, pc}
10009332:	2000      	movs	r0, #0
10009334:	e7fc      	b.n	10009330 <_tu_fifo_peek+0x50>

10009336 <_ff_pull_const_addr>:
10009336:	b5f0      	push	{r4, r5, r6, r7, lr}
10009338:	b083      	sub	sp, #12
1000933a:	0006      	movs	r6, r0
1000933c:	0893      	lsrs	r3, r2, #2
1000933e:	e00c      	b.n	1000935a <_ff_pull_const_addr+0x24>
10009340:	780b      	ldrb	r3, [r1, #0]
10009342:	784d      	ldrb	r5, [r1, #1]
10009344:	022d      	lsls	r5, r5, #8
10009346:	431d      	orrs	r5, r3
10009348:	788c      	ldrb	r4, [r1, #2]
1000934a:	0424      	lsls	r4, r4, #16
1000934c:	4325      	orrs	r5, r4
1000934e:	78cb      	ldrb	r3, [r1, #3]
10009350:	061b      	lsls	r3, r3, #24
10009352:	432b      	orrs	r3, r5
10009354:	6033      	str	r3, [r6, #0]
10009356:	3104      	adds	r1, #4
10009358:	003b      	movs	r3, r7
1000935a:	1e5f      	subs	r7, r3, #1
1000935c:	b2bf      	uxth	r7, r7
1000935e:	2b00      	cmp	r3, #0
10009360:	d1ee      	bne.n	10009340 <_ff_pull_const_addr+0xa>
10009362:	3303      	adds	r3, #3
10009364:	0010      	movs	r0, r2
10009366:	4018      	ands	r0, r3
10009368:	421a      	tst	r2, r3
1000936a:	d101      	bne.n	10009370 <_ff_pull_const_addr+0x3a>
1000936c:	b003      	add	sp, #12
1000936e:	bdf0      	pop	{r4, r5, r6, r7, pc}
10009370:	2300      	movs	r3, #0
10009372:	9301      	str	r3, [sp, #4]
10009374:	0002      	movs	r2, r0
10009376:	a801      	add	r0, sp, #4
10009378:	f7fd fb76 	bl	10006a68 <__wrap___aeabi_memcpy>
1000937c:	9b01      	ldr	r3, [sp, #4]
1000937e:	6033      	str	r3, [r6, #0]
10009380:	e7f4      	b.n	1000936c <_ff_pull_const_addr+0x36>

10009382 <_ff_pull_n>:
10009382:	b5f0      	push	{r4, r5, r6, r7, lr}
10009384:	46de      	mov	lr, fp
10009386:	4657      	mov	r7, sl
10009388:	464e      	mov	r6, r9
1000938a:	4645      	mov	r5, r8
1000938c:	b5e0      	push	{r5, r6, r7, lr}
1000938e:	b083      	sub	sp, #12
10009390:	0005      	movs	r5, r0
10009392:	468a      	mov	sl, r1
10009394:	a90c      	add	r1, sp, #48	; 0x30
10009396:	7809      	ldrb	r1, [r1, #0]
10009398:	8884      	ldrh	r4, [r0, #4]
1000939a:	1ae0      	subs	r0, r4, r3
1000939c:	b280      	uxth	r0, r0
1000939e:	1b1c      	subs	r4, r3, r4
100093a0:	1914      	adds	r4, r2, r4
100093a2:	b2a4      	uxth	r4, r4
100093a4:	88ef      	ldrh	r7, [r5, #6]
100093a6:	047f      	lsls	r7, r7, #17
100093a8:	0c7e      	lsrs	r6, r7, #17
100093aa:	0007      	movs	r7, r0
100093ac:	4377      	muls	r7, r6
100093ae:	b2bf      	uxth	r7, r7
100093b0:	4374      	muls	r4, r6
100093b2:	b2a4      	uxth	r4, r4
100093b4:	46a3      	mov	fp, r4
100093b6:	4373      	muls	r3, r6
100093b8:	682c      	ldr	r4, [r5, #0]
100093ba:	46a0      	mov	r8, r4
100093bc:	4498      	add	r8, r3
100093be:	2900      	cmp	r1, #0
100093c0:	d008      	beq.n	100093d4 <_ff_pull_n+0x52>
100093c2:	2901      	cmp	r1, #1
100093c4:	d01a      	beq.n	100093fc <_ff_pull_n+0x7a>
100093c6:	b003      	add	sp, #12
100093c8:	bcf0      	pop	{r4, r5, r6, r7}
100093ca:	46bb      	mov	fp, r7
100093cc:	46b2      	mov	sl, r6
100093ce:	46a9      	mov	r9, r5
100093d0:	46a0      	mov	r8, r4
100093d2:	bdf0      	pop	{r4, r5, r6, r7, pc}
100093d4:	4290      	cmp	r0, r2
100093d6:	d305      	bcc.n	100093e4 <_ff_pull_n+0x62>
100093d8:	4372      	muls	r2, r6
100093da:	4641      	mov	r1, r8
100093dc:	4650      	mov	r0, sl
100093de:	f7fd fb43 	bl	10006a68 <__wrap___aeabi_memcpy>
100093e2:	e7f0      	b.n	100093c6 <_ff_pull_n+0x44>
100093e4:	003a      	movs	r2, r7
100093e6:	4641      	mov	r1, r8
100093e8:	4650      	mov	r0, sl
100093ea:	f7fd fb3d 	bl	10006a68 <__wrap___aeabi_memcpy>
100093ee:	6829      	ldr	r1, [r5, #0]
100093f0:	0038      	movs	r0, r7
100093f2:	4450      	add	r0, sl
100093f4:	465a      	mov	r2, fp
100093f6:	f7fd fb37 	bl	10006a68 <__wrap___aeabi_memcpy>
100093fa:	e7e4      	b.n	100093c6 <_ff_pull_n+0x44>
100093fc:	4290      	cmp	r0, r2
100093fe:	d306      	bcc.n	1000940e <_ff_pull_n+0x8c>
10009400:	4372      	muls	r2, r6
10009402:	b292      	uxth	r2, r2
10009404:	4641      	mov	r1, r8
10009406:	4650      	mov	r0, sl
10009408:	f7ff ff95 	bl	10009336 <_ff_pull_const_addr>
1000940c:	e7db      	b.n	100093c6 <_ff_pull_n+0x44>
1000940e:	2303      	movs	r3, #3
10009410:	003a      	movs	r2, r7
10009412:	439a      	bics	r2, r3
10009414:	4691      	mov	r9, r2
10009416:	4641      	mov	r1, r8
10009418:	4650      	mov	r0, sl
1000941a:	f7ff ff8c 	bl	10009336 <_ff_pull_const_addr>
1000941e:	4643      	mov	r3, r8
10009420:	444b      	add	r3, r9
10009422:	2103      	movs	r1, #3
10009424:	003a      	movs	r2, r7
10009426:	400a      	ands	r2, r1
10009428:	420f      	tst	r7, r1
1000942a:	d030      	beq.n	1000948e <_ff_pull_n+0x10c>
1000942c:	2104      	movs	r1, #4
1000942e:	1a89      	subs	r1, r1, r2
10009430:	b289      	uxth	r1, r1
10009432:	1c08      	adds	r0, r1, #0
10009434:	4559      	cmp	r1, fp
10009436:	d900      	bls.n	1000943a <_ff_pull_n+0xb8>
10009438:	4658      	mov	r0, fp
1000943a:	b2c7      	uxtb	r7, r0
1000943c:	21ff      	movs	r1, #255	; 0xff
1000943e:	4001      	ands	r1, r0
10009440:	4658      	mov	r0, fp
10009442:	1a44      	subs	r4, r0, r1
10009444:	b2a1      	uxth	r1, r4
10009446:	468b      	mov	fp, r1
10009448:	2100      	movs	r1, #0
1000944a:	9101      	str	r1, [sp, #4]
1000944c:	a801      	add	r0, sp, #4
1000944e:	e004      	b.n	1000945a <_ff_pull_n+0xd8>
10009450:	781a      	ldrb	r2, [r3, #0]
10009452:	7002      	strb	r2, [r0, #0]
10009454:	3001      	adds	r0, #1
10009456:	000a      	movs	r2, r1
10009458:	3301      	adds	r3, #1
1000945a:	1e51      	subs	r1, r2, #1
1000945c:	b2c9      	uxtb	r1, r1
1000945e:	2a00      	cmp	r2, #0
10009460:	d1f6      	bne.n	10009450 <_ff_pull_n+0xce>
10009462:	6829      	ldr	r1, [r5, #0]
10009464:	e004      	b.n	10009470 <_ff_pull_n+0xee>
10009466:	780a      	ldrb	r2, [r1, #0]
10009468:	7002      	strb	r2, [r0, #0]
1000946a:	3001      	adds	r0, #1
1000946c:	001f      	movs	r7, r3
1000946e:	3101      	adds	r1, #1
10009470:	1e7b      	subs	r3, r7, #1
10009472:	b2db      	uxtb	r3, r3
10009474:	2f00      	cmp	r7, #0
10009476:	d1f6      	bne.n	10009466 <_ff_pull_n+0xe4>
10009478:	4653      	mov	r3, sl
1000947a:	9a01      	ldr	r2, [sp, #4]
1000947c:	601a      	str	r2, [r3, #0]
1000947e:	465b      	mov	r3, fp
10009480:	2b00      	cmp	r3, #0
10009482:	d0a0      	beq.n	100093c6 <_ff_pull_n+0x44>
10009484:	465a      	mov	r2, fp
10009486:	4650      	mov	r0, sl
10009488:	f7ff ff55 	bl	10009336 <_ff_pull_const_addr>
1000948c:	e79b      	b.n	100093c6 <_ff_pull_n+0x44>
1000948e:	6829      	ldr	r1, [r5, #0]
10009490:	e7f5      	b.n	1000947e <_ff_pull_n+0xfc>

10009492 <_tu_fifo_peek_n>:
10009492:	b5f0      	push	{r4, r5, r6, r7, lr}
10009494:	46c6      	mov	lr, r8
10009496:	b500      	push	{lr}
10009498:	b082      	sub	sp, #8
1000949a:	001e      	movs	r6, r3
1000949c:	ab08      	add	r3, sp, #32
1000949e:	881b      	ldrh	r3, [r3, #0]
100094a0:	ac09      	add	r4, sp, #36	; 0x24
100094a2:	7827      	ldrb	r7, [r4, #0]
100094a4:	8884      	ldrh	r4, [r0, #4]
100094a6:	429e      	cmp	r6, r3
100094a8:	d30f      	bcc.n	100094ca <_tu_fifo_peek_n+0x38>
100094aa:	1af5      	subs	r5, r6, r3
100094ac:	b2ad      	uxth	r5, r5
100094ae:	2d00      	cmp	r5, #0
100094b0:	d01f      	beq.n	100094f2 <_tu_fifo_peek_n+0x60>
100094b2:	42ac      	cmp	r4, r5
100094b4:	d205      	bcs.n	100094c2 <_tu_fifo_peek_n+0x30>
100094b6:	42b4      	cmp	r4, r6
100094b8:	d810      	bhi.n	100094dc <_tu_fifo_peek_n+0x4a>
100094ba:	1b33      	subs	r3, r6, r4
100094bc:	b29b      	uxth	r3, r3
100094be:	8143      	strh	r3, [r0, #10]
100094c0:	0025      	movs	r5, r4
100094c2:	4295      	cmp	r5, r2
100094c4:	d30f      	bcc.n	100094e6 <_tu_fifo_peek_n+0x54>
100094c6:	0015      	movs	r5, r2
100094c8:	e00d      	b.n	100094e6 <_tu_fifo_peek_n+0x54>
100094ca:	1af5      	subs	r5, r6, r3
100094cc:	b2ad      	uxth	r5, r5
100094ce:	46a8      	mov	r8, r5
100094d0:	0065      	lsls	r5, r4, #1
100094d2:	46ac      	mov	ip, r5
100094d4:	4645      	mov	r5, r8
100094d6:	4465      	add	r5, ip
100094d8:	b2ad      	uxth	r5, r5
100094da:	e7e8      	b.n	100094ae <_tu_fifo_peek_n+0x1c>
100094dc:	19a6      	adds	r6, r4, r6
100094de:	b2b3      	uxth	r3, r6
100094e0:	e7ed      	b.n	100094be <_tu_fifo_peek_n+0x2c>
100094e2:	1b1b      	subs	r3, r3, r4
100094e4:	b29b      	uxth	r3, r3
100094e6:	429c      	cmp	r4, r3
100094e8:	d9fb      	bls.n	100094e2 <_tu_fifo_peek_n+0x50>
100094ea:	9700      	str	r7, [sp, #0]
100094ec:	002a      	movs	r2, r5
100094ee:	f7ff ff48 	bl	10009382 <_ff_pull_n>
100094f2:	0028      	movs	r0, r5
100094f4:	b002      	add	sp, #8
100094f6:	bc80      	pop	{r7}
100094f8:	46b8      	mov	r8, r7
100094fa:	bdf0      	pop	{r4, r5, r6, r7, pc}

100094fc <_tu_fifo_read_n>:
100094fc:	b5f0      	push	{r4, r5, r6, r7, lr}
100094fe:	b083      	sub	sp, #12
10009500:	0004      	movs	r4, r0
10009502:	000d      	movs	r5, r1
10009504:	0016      	movs	r6, r2
10009506:	001f      	movs	r7, r3
10009508:	6900      	ldr	r0, [r0, #16]
1000950a:	2800      	cmp	r0, #0
1000950c:	d003      	beq.n	10009516 <_tu_fifo_read_n+0x1a>
1000950e:	2101      	movs	r1, #1
10009510:	4249      	negs	r1, r1
10009512:	f000 fac5 	bl	10009aa0 <__mutex_enter_timeout_ms_veneer>
10009516:	8923      	ldrh	r3, [r4, #8]
10009518:	b29b      	uxth	r3, r3
1000951a:	8962      	ldrh	r2, [r4, #10]
1000951c:	9701      	str	r7, [sp, #4]
1000951e:	9200      	str	r2, [sp, #0]
10009520:	0032      	movs	r2, r6
10009522:	0029      	movs	r1, r5
10009524:	0020      	movs	r0, r4
10009526:	f7ff ffb4 	bl	10009492 <_tu_fifo_peek_n>
1000952a:	0005      	movs	r5, r0
1000952c:	8961      	ldrh	r1, [r4, #10]
1000952e:	b289      	uxth	r1, r1
10009530:	88a0      	ldrh	r0, [r4, #4]
10009532:	002a      	movs	r2, r5
10009534:	f7ff fec7 	bl	100092c6 <advance_index>
10009538:	8160      	strh	r0, [r4, #10]
1000953a:	6920      	ldr	r0, [r4, #16]
1000953c:	2800      	cmp	r0, #0
1000953e:	d001      	beq.n	10009544 <_tu_fifo_read_n+0x48>
10009540:	f000 fa7e 	bl	10009a40 <__mutex_exit_veneer>
10009544:	0028      	movs	r0, r5
10009546:	b003      	add	sp, #12
10009548:	bdf0      	pop	{r4, r5, r6, r7, pc}

1000954a <_ff_push_const_addr>:
1000954a:	b570      	push	{r4, r5, r6, lr}
1000954c:	b082      	sub	sp, #8
1000954e:	0016      	movs	r6, r2
10009550:	0895      	lsrs	r5, r2, #2
10009552:	e009      	b.n	10009568 <_ff_push_const_addr+0x1e>
10009554:	680b      	ldr	r3, [r1, #0]
10009556:	7003      	strb	r3, [r0, #0]
10009558:	0a1d      	lsrs	r5, r3, #8
1000955a:	7045      	strb	r5, [r0, #1]
1000955c:	0c1d      	lsrs	r5, r3, #16
1000955e:	7085      	strb	r5, [r0, #2]
10009560:	0e1b      	lsrs	r3, r3, #24
10009562:	70c3      	strb	r3, [r0, #3]
10009564:	3004      	adds	r0, #4
10009566:	0025      	movs	r5, r4
10009568:	1e6c      	subs	r4, r5, #1
1000956a:	b2a4      	uxth	r4, r4
1000956c:	2d00      	cmp	r5, #0
1000956e:	d1f1      	bne.n	10009554 <_ff_push_const_addr+0xa>
10009570:	2303      	movs	r3, #3
10009572:	0032      	movs	r2, r6
10009574:	401a      	ands	r2, r3
10009576:	421e      	tst	r6, r3
10009578:	d101      	bne.n	1000957e <_ff_push_const_addr+0x34>
1000957a:	b002      	add	sp, #8
1000957c:	bd70      	pop	{r4, r5, r6, pc}
1000957e:	680b      	ldr	r3, [r1, #0]
10009580:	9301      	str	r3, [sp, #4]
10009582:	a901      	add	r1, sp, #4
10009584:	f7fd fa70 	bl	10006a68 <__wrap___aeabi_memcpy>
10009588:	e7f7      	b.n	1000957a <_ff_push_const_addr+0x30>

1000958a <_ff_push_n>:
1000958a:	b5f0      	push	{r4, r5, r6, r7, lr}
1000958c:	46de      	mov	lr, fp
1000958e:	4657      	mov	r7, sl
10009590:	464e      	mov	r6, r9
10009592:	4645      	mov	r5, r8
10009594:	b5e0      	push	{r5, r6, r7, lr}
10009596:	b083      	sub	sp, #12
10009598:	0005      	movs	r5, r0
1000959a:	468a      	mov	sl, r1
1000959c:	a90c      	add	r1, sp, #48	; 0x30
1000959e:	7808      	ldrb	r0, [r1, #0]
100095a0:	88ac      	ldrh	r4, [r5, #4]
100095a2:	1ae1      	subs	r1, r4, r3
100095a4:	b289      	uxth	r1, r1
100095a6:	1b1c      	subs	r4, r3, r4
100095a8:	1914      	adds	r4, r2, r4
100095aa:	b2a4      	uxth	r4, r4
100095ac:	88ef      	ldrh	r7, [r5, #6]
100095ae:	047f      	lsls	r7, r7, #17
100095b0:	0c7e      	lsrs	r6, r7, #17
100095b2:	000f      	movs	r7, r1
100095b4:	4377      	muls	r7, r6
100095b6:	b2bf      	uxth	r7, r7
100095b8:	4374      	muls	r4, r6
100095ba:	b2a4      	uxth	r4, r4
100095bc:	46a3      	mov	fp, r4
100095be:	4373      	muls	r3, r6
100095c0:	682c      	ldr	r4, [r5, #0]
100095c2:	46a0      	mov	r8, r4
100095c4:	4498      	add	r8, r3
100095c6:	2800      	cmp	r0, #0
100095c8:	d008      	beq.n	100095dc <_ff_push_n+0x52>
100095ca:	2801      	cmp	r0, #1
100095cc:	d01a      	beq.n	10009604 <_ff_push_n+0x7a>
100095ce:	b003      	add	sp, #12
100095d0:	bcf0      	pop	{r4, r5, r6, r7}
100095d2:	46bb      	mov	fp, r7
100095d4:	46b2      	mov	sl, r6
100095d6:	46a9      	mov	r9, r5
100095d8:	46a0      	mov	r8, r4
100095da:	bdf0      	pop	{r4, r5, r6, r7, pc}
100095dc:	4291      	cmp	r1, r2
100095de:	d305      	bcc.n	100095ec <_ff_push_n+0x62>
100095e0:	4372      	muls	r2, r6
100095e2:	4651      	mov	r1, sl
100095e4:	4640      	mov	r0, r8
100095e6:	f7fd fa3f 	bl	10006a68 <__wrap___aeabi_memcpy>
100095ea:	e7f0      	b.n	100095ce <_ff_push_n+0x44>
100095ec:	003a      	movs	r2, r7
100095ee:	4651      	mov	r1, sl
100095f0:	4640      	mov	r0, r8
100095f2:	f7fd fa39 	bl	10006a68 <__wrap___aeabi_memcpy>
100095f6:	6828      	ldr	r0, [r5, #0]
100095f8:	0039      	movs	r1, r7
100095fa:	4451      	add	r1, sl
100095fc:	465a      	mov	r2, fp
100095fe:	f7fd fa33 	bl	10006a68 <__wrap___aeabi_memcpy>
10009602:	e7e4      	b.n	100095ce <_ff_push_n+0x44>
10009604:	4291      	cmp	r1, r2
10009606:	d306      	bcc.n	10009616 <_ff_push_n+0x8c>
10009608:	4372      	muls	r2, r6
1000960a:	b292      	uxth	r2, r2
1000960c:	4651      	mov	r1, sl
1000960e:	4640      	mov	r0, r8
10009610:	f7ff ff9b 	bl	1000954a <_ff_push_const_addr>
10009614:	e7db      	b.n	100095ce <_ff_push_n+0x44>
10009616:	2303      	movs	r3, #3
10009618:	003a      	movs	r2, r7
1000961a:	439a      	bics	r2, r3
1000961c:	4691      	mov	r9, r2
1000961e:	4651      	mov	r1, sl
10009620:	4640      	mov	r0, r8
10009622:	f7ff ff92 	bl	1000954a <_ff_push_const_addr>
10009626:	4643      	mov	r3, r8
10009628:	444b      	add	r3, r9
1000962a:	2103      	movs	r1, #3
1000962c:	003a      	movs	r2, r7
1000962e:	400a      	ands	r2, r1
10009630:	420f      	tst	r7, r1
10009632:	d02e      	beq.n	10009692 <_ff_push_n+0x108>
10009634:	2104      	movs	r1, #4
10009636:	1a89      	subs	r1, r1, r2
10009638:	b289      	uxth	r1, r1
1000963a:	1c08      	adds	r0, r1, #0
1000963c:	4559      	cmp	r1, fp
1000963e:	d900      	bls.n	10009642 <_ff_push_n+0xb8>
10009640:	4658      	mov	r0, fp
10009642:	b2c7      	uxtb	r7, r0
10009644:	21ff      	movs	r1, #255	; 0xff
10009646:	4001      	ands	r1, r0
10009648:	4658      	mov	r0, fp
1000964a:	1a44      	subs	r4, r0, r1
1000964c:	b2a1      	uxth	r1, r4
1000964e:	468b      	mov	fp, r1
10009650:	4651      	mov	r1, sl
10009652:	6809      	ldr	r1, [r1, #0]
10009654:	9101      	str	r1, [sp, #4]
10009656:	a901      	add	r1, sp, #4
10009658:	e004      	b.n	10009664 <_ff_push_n+0xda>
1000965a:	780a      	ldrb	r2, [r1, #0]
1000965c:	701a      	strb	r2, [r3, #0]
1000965e:	3101      	adds	r1, #1
10009660:	0002      	movs	r2, r0
10009662:	3301      	adds	r3, #1
10009664:	1e50      	subs	r0, r2, #1
10009666:	b2c0      	uxtb	r0, r0
10009668:	2a00      	cmp	r2, #0
1000966a:	d1f6      	bne.n	1000965a <_ff_push_n+0xd0>
1000966c:	6828      	ldr	r0, [r5, #0]
1000966e:	e004      	b.n	1000967a <_ff_push_n+0xf0>
10009670:	780a      	ldrb	r2, [r1, #0]
10009672:	7002      	strb	r2, [r0, #0]
10009674:	3101      	adds	r1, #1
10009676:	001f      	movs	r7, r3
10009678:	3001      	adds	r0, #1
1000967a:	1e7b      	subs	r3, r7, #1
1000967c:	b2db      	uxtb	r3, r3
1000967e:	2f00      	cmp	r7, #0
10009680:	d1f6      	bne.n	10009670 <_ff_push_n+0xe6>
10009682:	465b      	mov	r3, fp
10009684:	2b00      	cmp	r3, #0
10009686:	d0a2      	beq.n	100095ce <_ff_push_n+0x44>
10009688:	465a      	mov	r2, fp
1000968a:	4651      	mov	r1, sl
1000968c:	f7ff ff5d 	bl	1000954a <_ff_push_const_addr>
10009690:	e79d      	b.n	100095ce <_ff_push_n+0x44>
10009692:	6828      	ldr	r0, [r5, #0]
10009694:	e7f5      	b.n	10009682 <_ff_push_n+0xf8>

10009696 <_tu_fifo_write_n>:
10009696:	b5f0      	push	{r4, r5, r6, r7, lr}
10009698:	b085      	sub	sp, #20
1000969a:	0006      	movs	r6, r0
1000969c:	9103      	str	r1, [sp, #12]
1000969e:	1e15      	subs	r5, r2, #0
100096a0:	9302      	str	r3, [sp, #8]
100096a2:	d100      	bne.n	100096a6 <_tu_fifo_write_n+0x10>
100096a4:	e06d      	b.n	10009782 <_tu_fifo_write_n+0xec>
100096a6:	68c0      	ldr	r0, [r0, #12]
100096a8:	2800      	cmp	r0, #0
100096aa:	d003      	beq.n	100096b4 <_tu_fifo_write_n+0x1e>
100096ac:	2101      	movs	r1, #1
100096ae:	4249      	negs	r1, r1
100096b0:	f000 f9f6 	bl	10009aa0 <__mutex_enter_timeout_ms_veneer>
100096b4:	8934      	ldrh	r4, [r6, #8]
100096b6:	b2a4      	uxth	r4, r4
100096b8:	8971      	ldrh	r1, [r6, #10]
100096ba:	b289      	uxth	r1, r1
100096bc:	79f3      	ldrb	r3, [r6, #7]
100096be:	09db      	lsrs	r3, r3, #7
100096c0:	d11a      	bne.n	100096f8 <_tu_fifo_write_n+0x62>
100096c2:	88b3      	ldrh	r3, [r6, #4]
100096c4:	428c      	cmp	r4, r1
100096c6:	d30f      	bcc.n	100096e8 <_tu_fifo_write_n+0x52>
100096c8:	1a61      	subs	r1, r4, r1
100096ca:	b289      	uxth	r1, r1
100096cc:	428b      	cmp	r3, r1
100096ce:	d911      	bls.n	100096f4 <_tu_fifo_write_n+0x5e>
100096d0:	1a5b      	subs	r3, r3, r1
100096d2:	b29b      	uxth	r3, r3
100096d4:	1c2f      	adds	r7, r5, #0
100096d6:	429d      	cmp	r5, r3
100096d8:	d900      	bls.n	100096dc <_tu_fifo_write_n+0x46>
100096da:	1c1f      	adds	r7, r3, #0
100096dc:	b2bf      	uxth	r7, r7
100096de:	2f00      	cmp	r7, #0
100096e0:	d047      	beq.n	10009772 <_tu_fifo_write_n+0xdc>
100096e2:	88b2      	ldrh	r2, [r6, #4]
100096e4:	0023      	movs	r3, r4
100096e6:	e035      	b.n	10009754 <_tu_fifo_write_n+0xbe>
100096e8:	1a61      	subs	r1, r4, r1
100096ea:	b289      	uxth	r1, r1
100096ec:	005a      	lsls	r2, r3, #1
100096ee:	1889      	adds	r1, r1, r2
100096f0:	b289      	uxth	r1, r1
100096f2:	e7eb      	b.n	100096cc <_tu_fifo_write_n+0x36>
100096f4:	2300      	movs	r3, #0
100096f6:	e7ed      	b.n	100096d4 <_tu_fifo_write_n+0x3e>
100096f8:	88b7      	ldrh	r7, [r6, #4]
100096fa:	42af      	cmp	r7, r5
100096fc:	d80e      	bhi.n	1000971c <_tu_fifo_write_n+0x86>
100096fe:	9b02      	ldr	r3, [sp, #8]
10009700:	2b00      	cmp	r3, #0
10009702:	d121      	bne.n	10009748 <_tu_fifo_write_n+0xb2>
10009704:	1bed      	subs	r5, r5, r7
10009706:	88f3      	ldrh	r3, [r6, #6]
10009708:	045b      	lsls	r3, r3, #17
1000970a:	0c5a      	lsrs	r2, r3, #17
1000970c:	436a      	muls	r2, r5
1000970e:	9b03      	ldr	r3, [sp, #12]
10009710:	469c      	mov	ip, r3
10009712:	4494      	add	ip, r2
10009714:	4663      	mov	r3, ip
10009716:	9303      	str	r3, [sp, #12]
10009718:	000c      	movs	r4, r1
1000971a:	e7e0      	b.n	100096de <_tu_fifo_write_n+0x48>
1000971c:	428c      	cmp	r4, r1
1000971e:	d30d      	bcc.n	1000973c <_tu_fifo_write_n+0xa6>
10009720:	1a63      	subs	r3, r4, r1
10009722:	b29b      	uxth	r3, r3
10009724:	195b      	adds	r3, r3, r5
10009726:	007a      	lsls	r2, r7, #1
10009728:	4293      	cmp	r3, r2
1000972a:	db0f      	blt.n	1000974c <_tu_fifo_write_n+0xb6>
1000972c:	1b7a      	subs	r2, r7, r5
1000972e:	b292      	uxth	r2, r2
10009730:	0038      	movs	r0, r7
10009732:	f7ff fdc8 	bl	100092c6 <advance_index>
10009736:	0004      	movs	r4, r0
10009738:	002f      	movs	r7, r5
1000973a:	e7d0      	b.n	100096de <_tu_fifo_write_n+0x48>
1000973c:	1a63      	subs	r3, r4, r1
1000973e:	b29b      	uxth	r3, r3
10009740:	007a      	lsls	r2, r7, #1
10009742:	189b      	adds	r3, r3, r2
10009744:	b29b      	uxth	r3, r3
10009746:	e7ed      	b.n	10009724 <_tu_fifo_write_n+0x8e>
10009748:	000c      	movs	r4, r1
1000974a:	e7c8      	b.n	100096de <_tu_fifo_write_n+0x48>
1000974c:	002f      	movs	r7, r5
1000974e:	e7c6      	b.n	100096de <_tu_fifo_write_n+0x48>
10009750:	1a9b      	subs	r3, r3, r2
10009752:	b29b      	uxth	r3, r3
10009754:	429a      	cmp	r2, r3
10009756:	d9fb      	bls.n	10009750 <_tu_fifo_write_n+0xba>
10009758:	9a02      	ldr	r2, [sp, #8]
1000975a:	9200      	str	r2, [sp, #0]
1000975c:	003a      	movs	r2, r7
1000975e:	9903      	ldr	r1, [sp, #12]
10009760:	0030      	movs	r0, r6
10009762:	f7ff ff12 	bl	1000958a <_ff_push_n>
10009766:	88b0      	ldrh	r0, [r6, #4]
10009768:	003a      	movs	r2, r7
1000976a:	0021      	movs	r1, r4
1000976c:	f7ff fdab 	bl	100092c6 <advance_index>
10009770:	8130      	strh	r0, [r6, #8]
10009772:	68f0      	ldr	r0, [r6, #12]
10009774:	2800      	cmp	r0, #0
10009776:	d001      	beq.n	1000977c <_tu_fifo_write_n+0xe6>
10009778:	f000 f962 	bl	10009a40 <__mutex_exit_veneer>
1000977c:	0038      	movs	r0, r7
1000977e:	b005      	add	sp, #20
10009780:	bdf0      	pop	{r4, r5, r6, r7, pc}
10009782:	0017      	movs	r7, r2
10009784:	e7fa      	b.n	1000977c <_tu_fifo_write_n+0xe6>

10009786 <tu_fifo_config>:
10009786:	b5f0      	push	{r4, r5, r6, r7, lr}
10009788:	b083      	sub	sp, #12
1000978a:	0004      	movs	r4, r0
1000978c:	9101      	str	r1, [sp, #4]
1000978e:	0016      	movs	r6, r2
10009790:	001d      	movs	r5, r3
10009792:	ab08      	add	r3, sp, #32
10009794:	781f      	ldrb	r7, [r3, #0]
10009796:	2380      	movs	r3, #128	; 0x80
10009798:	021b      	lsls	r3, r3, #8
1000979a:	429a      	cmp	r2, r3
1000979c:	d82d      	bhi.n	100097fa <tu_fifo_config+0x74>
1000979e:	68c0      	ldr	r0, [r0, #12]
100097a0:	2800      	cmp	r0, #0
100097a2:	d003      	beq.n	100097ac <tu_fifo_config+0x26>
100097a4:	2101      	movs	r1, #1
100097a6:	4249      	negs	r1, r1
100097a8:	f000 f97a 	bl	10009aa0 <__mutex_enter_timeout_ms_veneer>
100097ac:	6920      	ldr	r0, [r4, #16]
100097ae:	2800      	cmp	r0, #0
100097b0:	d003      	beq.n	100097ba <tu_fifo_config+0x34>
100097b2:	2101      	movs	r1, #1
100097b4:	4249      	negs	r1, r1
100097b6:	f000 f973 	bl	10009aa0 <__mutex_enter_timeout_ms_veneer>
100097ba:	9b01      	ldr	r3, [sp, #4]
100097bc:	6023      	str	r3, [r4, #0]
100097be:	80a6      	strh	r6, [r4, #4]
100097c0:	046d      	lsls	r5, r5, #17
100097c2:	0c6b      	lsrs	r3, r5, #17
100097c4:	88e2      	ldrh	r2, [r4, #6]
100097c6:	0bd2      	lsrs	r2, r2, #15
100097c8:	03d5      	lsls	r5, r2, #15
100097ca:	431d      	orrs	r5, r3
100097cc:	80e5      	strh	r5, [r4, #6]
100097ce:	01fb      	lsls	r3, r7, #7
100097d0:	79e2      	ldrb	r2, [r4, #7]
100097d2:	277f      	movs	r7, #127	; 0x7f
100097d4:	4017      	ands	r7, r2
100097d6:	431f      	orrs	r7, r3
100097d8:	71e7      	strb	r7, [r4, #7]
100097da:	2300      	movs	r3, #0
100097dc:	8163      	strh	r3, [r4, #10]
100097de:	8123      	strh	r3, [r4, #8]
100097e0:	68e0      	ldr	r0, [r4, #12]
100097e2:	2800      	cmp	r0, #0
100097e4:	d001      	beq.n	100097ea <tu_fifo_config+0x64>
100097e6:	f000 f92b 	bl	10009a40 <__mutex_exit_veneer>
100097ea:	6920      	ldr	r0, [r4, #16]
100097ec:	2800      	cmp	r0, #0
100097ee:	d006      	beq.n	100097fe <tu_fifo_config+0x78>
100097f0:	f000 f926 	bl	10009a40 <__mutex_exit_veneer>
100097f4:	2001      	movs	r0, #1
100097f6:	b003      	add	sp, #12
100097f8:	bdf0      	pop	{r4, r5, r6, r7, pc}
100097fa:	2000      	movs	r0, #0
100097fc:	e7fb      	b.n	100097f6 <tu_fifo_config+0x70>
100097fe:	2001      	movs	r0, #1
10009800:	e7f9      	b.n	100097f6 <tu_fifo_config+0x70>

10009802 <tu_fifo_count>:
10009802:	8881      	ldrh	r1, [r0, #4]
10009804:	8903      	ldrh	r3, [r0, #8]
10009806:	b29b      	uxth	r3, r3
10009808:	8942      	ldrh	r2, [r0, #10]
1000980a:	b292      	uxth	r2, r2
1000980c:	4293      	cmp	r3, r2
1000980e:	d307      	bcc.n	10009820 <tu_fifo_count+0x1e>
10009810:	1a9b      	subs	r3, r3, r2
10009812:	b29b      	uxth	r3, r3
10009814:	1c08      	adds	r0, r1, #0
10009816:	4299      	cmp	r1, r3
10009818:	d900      	bls.n	1000981c <tu_fifo_count+0x1a>
1000981a:	1c18      	adds	r0, r3, #0
1000981c:	b280      	uxth	r0, r0
1000981e:	4770      	bx	lr
10009820:	1a9b      	subs	r3, r3, r2
10009822:	b29b      	uxth	r3, r3
10009824:	004a      	lsls	r2, r1, #1
10009826:	189b      	adds	r3, r3, r2
10009828:	b29b      	uxth	r3, r3
1000982a:	e7f3      	b.n	10009814 <tu_fifo_count+0x12>

1000982c <tu_fifo_empty>:
1000982c:	0003      	movs	r3, r0
1000982e:	8900      	ldrh	r0, [r0, #8]
10009830:	895b      	ldrh	r3, [r3, #10]
10009832:	1ac0      	subs	r0, r0, r3
10009834:	4243      	negs	r3, r0
10009836:	4158      	adcs	r0, r3
10009838:	b2c0      	uxtb	r0, r0
1000983a:	4770      	bx	lr

1000983c <tu_fifo_full>:
1000983c:	8881      	ldrh	r1, [r0, #4]
1000983e:	8903      	ldrh	r3, [r0, #8]
10009840:	b29b      	uxth	r3, r3
10009842:	8942      	ldrh	r2, [r0, #10]
10009844:	b292      	uxth	r2, r2
10009846:	4293      	cmp	r3, r2
10009848:	d306      	bcc.n	10009858 <tu_fifo_full+0x1c>
1000984a:	1a9b      	subs	r3, r3, r2
1000984c:	b29b      	uxth	r3, r3
1000984e:	2000      	movs	r0, #0
10009850:	428b      	cmp	r3, r1
10009852:	4140      	adcs	r0, r0
10009854:	b2c0      	uxtb	r0, r0
10009856:	4770      	bx	lr
10009858:	1a9b      	subs	r3, r3, r2
1000985a:	b29b      	uxth	r3, r3
1000985c:	004a      	lsls	r2, r1, #1
1000985e:	189b      	adds	r3, r3, r2
10009860:	b29b      	uxth	r3, r3
10009862:	e7f4      	b.n	1000984e <tu_fifo_full+0x12>

10009864 <tu_fifo_remaining>:
10009864:	8882      	ldrh	r2, [r0, #4]
10009866:	8903      	ldrh	r3, [r0, #8]
10009868:	b29b      	uxth	r3, r3
1000986a:	8940      	ldrh	r0, [r0, #10]
1000986c:	b280      	uxth	r0, r0
1000986e:	4283      	cmp	r3, r0
10009870:	d306      	bcc.n	10009880 <tu_fifo_remaining+0x1c>
10009872:	1a1b      	subs	r3, r3, r0
10009874:	b29b      	uxth	r3, r3
10009876:	429a      	cmp	r2, r3
10009878:	d908      	bls.n	1000988c <tu_fifo_remaining+0x28>
1000987a:	1ad3      	subs	r3, r2, r3
1000987c:	b298      	uxth	r0, r3
1000987e:	4770      	bx	lr
10009880:	1a1b      	subs	r3, r3, r0
10009882:	b29b      	uxth	r3, r3
10009884:	0050      	lsls	r0, r2, #1
10009886:	181b      	adds	r3, r3, r0
10009888:	b29b      	uxth	r3, r3
1000988a:	e7f4      	b.n	10009876 <tu_fifo_remaining+0x12>
1000988c:	2000      	movs	r0, #0
1000988e:	e7f6      	b.n	1000987e <tu_fifo_remaining+0x1a>

10009890 <tu_fifo_read>:
10009890:	b570      	push	{r4, r5, r6, lr}
10009892:	0004      	movs	r4, r0
10009894:	000d      	movs	r5, r1
10009896:	6900      	ldr	r0, [r0, #16]
10009898:	2800      	cmp	r0, #0
1000989a:	d003      	beq.n	100098a4 <tu_fifo_read+0x14>
1000989c:	2101      	movs	r1, #1
1000989e:	4249      	negs	r1, r1
100098a0:	f000 f8fe 	bl	10009aa0 <__mutex_enter_timeout_ms_veneer>
100098a4:	8922      	ldrh	r2, [r4, #8]
100098a6:	b292      	uxth	r2, r2
100098a8:	8963      	ldrh	r3, [r4, #10]
100098aa:	b29b      	uxth	r3, r3
100098ac:	0029      	movs	r1, r5
100098ae:	0020      	movs	r0, r4
100098b0:	f7ff fd16 	bl	100092e0 <_tu_fifo_peek>
100098b4:	0005      	movs	r5, r0
100098b6:	8961      	ldrh	r1, [r4, #10]
100098b8:	b289      	uxth	r1, r1
100098ba:	b282      	uxth	r2, r0
100098bc:	88a0      	ldrh	r0, [r4, #4]
100098be:	f7ff fd02 	bl	100092c6 <advance_index>
100098c2:	8160      	strh	r0, [r4, #10]
100098c4:	6920      	ldr	r0, [r4, #16]
100098c6:	2800      	cmp	r0, #0
100098c8:	d001      	beq.n	100098ce <tu_fifo_read+0x3e>
100098ca:	f000 f8b9 	bl	10009a40 <__mutex_exit_veneer>
100098ce:	0028      	movs	r0, r5
100098d0:	bd70      	pop	{r4, r5, r6, pc}

100098d2 <tu_fifo_read_n>:
100098d2:	b510      	push	{r4, lr}
100098d4:	2300      	movs	r3, #0
100098d6:	f7ff fe11 	bl	100094fc <_tu_fifo_read_n>
100098da:	bd10      	pop	{r4, pc}

100098dc <tu_fifo_write>:
100098dc:	b5f8      	push	{r3, r4, r5, r6, r7, lr}
100098de:	0004      	movs	r4, r0
100098e0:	000e      	movs	r6, r1
100098e2:	68c0      	ldr	r0, [r0, #12]
100098e4:	2800      	cmp	r0, #0
100098e6:	d003      	beq.n	100098f0 <tu_fifo_write+0x14>
100098e8:	2101      	movs	r1, #1
100098ea:	4249      	negs	r1, r1
100098ec:	f000 f8d8 	bl	10009aa0 <__mutex_enter_timeout_ms_veneer>
100098f0:	8925      	ldrh	r5, [r4, #8]
100098f2:	b2ad      	uxth	r5, r5
100098f4:	0020      	movs	r0, r4
100098f6:	f7ff ffa1 	bl	1000983c <tu_fifo_full>
100098fa:	2800      	cmp	r0, #0
100098fc:	d002      	beq.n	10009904 <tu_fifo_write+0x28>
100098fe:	79e7      	ldrb	r7, [r4, #7]
10009900:	09ff      	lsrs	r7, r7, #7
10009902:	d016      	beq.n	10009932 <tu_fifo_write+0x56>
10009904:	88a2      	ldrh	r2, [r4, #4]
10009906:	002b      	movs	r3, r5
10009908:	e001      	b.n	1000990e <tu_fifo_write+0x32>
1000990a:	1a9b      	subs	r3, r3, r2
1000990c:	b29b      	uxth	r3, r3
1000990e:	429a      	cmp	r2, r3
10009910:	d9fb      	bls.n	1000990a <tu_fifo_write+0x2e>
10009912:	88e2      	ldrh	r2, [r4, #6]
10009914:	0452      	lsls	r2, r2, #17
10009916:	0c52      	lsrs	r2, r2, #17
10009918:	4353      	muls	r3, r2
1000991a:	6821      	ldr	r1, [r4, #0]
1000991c:	18c8      	adds	r0, r1, r3
1000991e:	0031      	movs	r1, r6
10009920:	f7fd f8a2 	bl	10006a68 <__wrap___aeabi_memcpy>
10009924:	88a0      	ldrh	r0, [r4, #4]
10009926:	2201      	movs	r2, #1
10009928:	0029      	movs	r1, r5
1000992a:	f7ff fccc 	bl	100092c6 <advance_index>
1000992e:	8120      	strh	r0, [r4, #8]
10009930:	2701      	movs	r7, #1
10009932:	68e0      	ldr	r0, [r4, #12]
10009934:	2800      	cmp	r0, #0
10009936:	d001      	beq.n	1000993c <tu_fifo_write+0x60>
10009938:	f000 f882 	bl	10009a40 <__mutex_exit_veneer>
1000993c:	0038      	movs	r0, r7
1000993e:	bdf8      	pop	{r3, r4, r5, r6, r7, pc}

10009940 <tu_fifo_write_n>:
10009940:	b510      	push	{r4, lr}
10009942:	2300      	movs	r3, #0
10009944:	f7ff fea7 	bl	10009696 <_tu_fifo_write_n>
10009948:	bd10      	pop	{r4, pc}

1000994a <tu_fifo_clear>:
1000994a:	b510      	push	{r4, lr}
1000994c:	0004      	movs	r4, r0
1000994e:	68c0      	ldr	r0, [r0, #12]
10009950:	2800      	cmp	r0, #0
10009952:	d003      	beq.n	1000995c <tu_fifo_clear+0x12>
10009954:	2101      	movs	r1, #1
10009956:	4249      	negs	r1, r1
10009958:	f000 f8a2 	bl	10009aa0 <__mutex_enter_timeout_ms_veneer>
1000995c:	6920      	ldr	r0, [r4, #16]
1000995e:	2800      	cmp	r0, #0
10009960:	d003      	beq.n	1000996a <tu_fifo_clear+0x20>
10009962:	2101      	movs	r1, #1
10009964:	4249      	negs	r1, r1
10009966:	f000 f89b 	bl	10009aa0 <__mutex_enter_timeout_ms_veneer>
1000996a:	2300      	movs	r3, #0
1000996c:	8163      	strh	r3, [r4, #10]
1000996e:	8123      	strh	r3, [r4, #8]
10009970:	68e0      	ldr	r0, [r4, #12]
10009972:	2800      	cmp	r0, #0
10009974:	d001      	beq.n	1000997a <tu_fifo_clear+0x30>
10009976:	f000 f863 	bl	10009a40 <__mutex_exit_veneer>
1000997a:	6920      	ldr	r0, [r4, #16]
1000997c:	2800      	cmp	r0, #0
1000997e:	d001      	beq.n	10009984 <tu_fifo_clear+0x3a>
10009980:	f000 f85e 	bl	10009a40 <__mutex_exit_veneer>
10009984:	2001      	movs	r0, #1
10009986:	bd10      	pop	{r4, pc}

10009988 <tu_fifo_set_overwritable>:
10009988:	b570      	push	{r4, r5, r6, lr}
1000998a:	0004      	movs	r4, r0
1000998c:	000d      	movs	r5, r1
1000998e:	68c0      	ldr	r0, [r0, #12]
10009990:	2800      	cmp	r0, #0
10009992:	d003      	beq.n	1000999c <tu_fifo_set_overwritable+0x14>
10009994:	2101      	movs	r1, #1
10009996:	4249      	negs	r1, r1
10009998:	f000 f882 	bl	10009aa0 <__mutex_enter_timeout_ms_veneer>
1000999c:	6920      	ldr	r0, [r4, #16]
1000999e:	2800      	cmp	r0, #0
100099a0:	d003      	beq.n	100099aa <tu_fifo_set_overwritable+0x22>
100099a2:	2101      	movs	r1, #1
100099a4:	4249      	negs	r1, r1
100099a6:	f000 f87b 	bl	10009aa0 <__mutex_enter_timeout_ms_veneer>
100099aa:	01ed      	lsls	r5, r5, #7
100099ac:	79e3      	ldrb	r3, [r4, #7]
100099ae:	217f      	movs	r1, #127	; 0x7f
100099b0:	4019      	ands	r1, r3
100099b2:	4329      	orrs	r1, r5
100099b4:	71e1      	strb	r1, [r4, #7]
100099b6:	68e0      	ldr	r0, [r4, #12]
100099b8:	2800      	cmp	r0, #0
100099ba:	d001      	beq.n	100099c0 <tu_fifo_set_overwritable+0x38>
100099bc:	f000 f840 	bl	10009a40 <__mutex_exit_veneer>
100099c0:	6920      	ldr	r0, [r4, #16]
100099c2:	2800      	cmp	r0, #0
100099c4:	d001      	beq.n	100099ca <tu_fifo_set_overwritable+0x42>
100099c6:	f000 f83b 	bl	10009a40 <__mutex_exit_veneer>
100099ca:	2001      	movs	r0, #1
100099cc:	bd70      	pop	{r4, r5, r6, pc}
	...

100099d0 <strlen>:
100099d0:	b510      	push	{r4, lr}
100099d2:	0783      	lsls	r3, r0, #30
100099d4:	d00a      	beq.n	100099ec <strlen+0x1c>
100099d6:	0003      	movs	r3, r0
100099d8:	2103      	movs	r1, #3
100099da:	e002      	b.n	100099e2 <strlen+0x12>
100099dc:	3301      	adds	r3, #1
100099de:	420b      	tst	r3, r1
100099e0:	d005      	beq.n	100099ee <strlen+0x1e>
100099e2:	781a      	ldrb	r2, [r3, #0]
100099e4:	2a00      	cmp	r2, #0
100099e6:	d1f9      	bne.n	100099dc <strlen+0xc>
100099e8:	1a18      	subs	r0, r3, r0
100099ea:	bd10      	pop	{r4, pc}
100099ec:	0003      	movs	r3, r0
100099ee:	6819      	ldr	r1, [r3, #0]
100099f0:	4a0c      	ldr	r2, [pc, #48]	; (10009a24 <strlen+0x54>)
100099f2:	4c0d      	ldr	r4, [pc, #52]	; (10009a28 <strlen+0x58>)
100099f4:	188a      	adds	r2, r1, r2
100099f6:	438a      	bics	r2, r1
100099f8:	4222      	tst	r2, r4
100099fa:	d10f      	bne.n	10009a1c <strlen+0x4c>
100099fc:	6859      	ldr	r1, [r3, #4]
100099fe:	4a09      	ldr	r2, [pc, #36]	; (10009a24 <strlen+0x54>)
10009a00:	3304      	adds	r3, #4
10009a02:	188a      	adds	r2, r1, r2
10009a04:	438a      	bics	r2, r1
10009a06:	4222      	tst	r2, r4
10009a08:	d108      	bne.n	10009a1c <strlen+0x4c>
10009a0a:	6859      	ldr	r1, [r3, #4]
10009a0c:	4a05      	ldr	r2, [pc, #20]	; (10009a24 <strlen+0x54>)
10009a0e:	3304      	adds	r3, #4
10009a10:	188a      	adds	r2, r1, r2
10009a12:	438a      	bics	r2, r1
10009a14:	4222      	tst	r2, r4
10009a16:	d0f1      	beq.n	100099fc <strlen+0x2c>
10009a18:	e000      	b.n	10009a1c <strlen+0x4c>
10009a1a:	3301      	adds	r3, #1
10009a1c:	781a      	ldrb	r2, [r3, #0]
10009a1e:	2a00      	cmp	r2, #0
10009a20:	d1fb      	bne.n	10009a1a <strlen+0x4a>
10009a22:	e7e1      	b.n	100099e8 <strlen+0x18>
10009a24:	fefefeff 	.word	0xfefefeff
10009a28:	80808080 	.word	0x80808080

10009a2c <_fini>:
10009a2c:	b5f8      	push	{r3, r4, r5, r6, r7, lr}
10009a2e:	46c0      	nop			; (mov r8, r8)

10009a30 <__flash_do_cmd_veneer>:
10009a30:	b401      	push	{r0}
10009a32:	4802      	ldr	r0, [pc, #8]	; (10009a3c <__flash_do_cmd_veneer+0xc>)
10009a34:	4684      	mov	ip, r0
10009a36:	bc01      	pop	{r0}
10009a38:	4760      	bx	ip
10009a3a:	bf00      	nop
10009a3c:	20000455 	.word	0x20000455

10009a40 <__mutex_exit_veneer>:
10009a40:	b401      	push	{r0}
10009a42:	4802      	ldr	r0, [pc, #8]	; (10009a4c <__mutex_exit_veneer+0xc>)
10009a44:	4684      	mov	ip, r0
10009a46:	bc01      	pop	{r0}
10009a48:	4760      	bx	ip
10009a4a:	bf00      	nop
10009a4c:	20000231 	.word	0x20000231

10009a50 <____aeabi_ldiv0_veneer>:
10009a50:	b401      	push	{r0}
10009a52:	4802      	ldr	r0, [pc, #8]	; (10009a5c <____aeabi_ldiv0_veneer+0xc>)
10009a54:	4684      	mov	ip, r0
10009a56:	bc01      	pop	{r0}
10009a58:	4760      	bx	ip
10009a5a:	bf00      	nop
10009a5c:	20000c91 	.word	0x20000c91

10009a60 <__e15_is_critical_frame_period_veneer>:
10009a60:	b401      	push	{r0}
10009a62:	4802      	ldr	r0, [pc, #8]	; (10009a6c <__e15_is_critical_frame_period_veneer+0xc>)
10009a64:	4684      	mov	ip, r0
10009a66:	bc01      	pop	{r0}
10009a68:	4760      	bx	ip
10009a6a:	bf00      	nop
10009a6c:	20000809 	.word	0x20000809

10009a70 <__flash_range_program_veneer>:
10009a70:	b401      	push	{r0}
10009a72:	4802      	ldr	r0, [pc, #8]	; (10009a7c <__flash_range_program_veneer+0xc>)
10009a74:	4684      	mov	ip, r0
10009a76:	bc01      	pop	{r0}
10009a78:	4760      	bx	ip
10009a7a:	bf00      	nop
10009a7c:	2000039d 	.word	0x2000039d

10009a80 <____aeabi_idiv0_veneer>:
10009a80:	b401      	push	{r0}
10009a82:	4802      	ldr	r0, [pc, #8]	; (10009a8c <____aeabi_idiv0_veneer+0xc>)
10009a84:	4684      	mov	ip, r0
10009a86:	bc01      	pop	{r0}
10009a88:	4760      	bx	ip
10009a8a:	bf00      	nop
10009a8c:	20000c91 	.word	0x20000c91

10009a90 <__flash_range_erase_veneer>:
10009a90:	b401      	push	{r0}
10009a92:	4802      	ldr	r0, [pc, #8]	; (10009a9c <__flash_range_erase_veneer+0xc>)
10009a94:	4684      	mov	ip, r0
10009a96:	bc01      	pop	{r0}
10009a98:	4760      	bx	ip
10009a9a:	bf00      	nop
10009a9c:	200002e5 	.word	0x200002e5

10009aa0 <__mutex_enter_timeout_ms_veneer>:
10009aa0:	b401      	push	{r0}
10009aa2:	4802      	ldr	r0, [pc, #8]	; (10009aac <__mutex_enter_timeout_ms_veneer+0xc>)
10009aa4:	4684      	mov	ip, r0
10009aa6:	bc01      	pop	{r0}
10009aa8:	4760      	bx	ip
10009aaa:	bf00      	nop
10009aac:	200001c9 	.word	0x200001c9

10009ab0 <__mutex_try_enter_block_until_veneer>:
10009ab0:	b401      	push	{r0}
10009ab2:	4802      	ldr	r0, [pc, #8]	; (10009abc <__mutex_try_enter_block_until_veneer+0xc>)
10009ab4:	4684      	mov	ip, r0
10009ab6:	bc01      	pop	{r0}
10009ab8:	4760      	bx	ip
10009aba:	bf00      	nop
10009abc:	20000195 	.word	0x20000195

10009ac0 <__hw_endpoint_start_next_buffer_veneer>:
10009ac0:	b401      	push	{r0}
10009ac2:	4802      	ldr	r0, [pc, #8]	; (10009acc <__hw_endpoint_start_next_buffer_veneer+0xc>)
10009ac4:	4684      	mov	ip, r0
10009ac6:	bc01      	pop	{r0}
10009ac8:	4760      	bx	ip
10009aca:	bf00      	nop
10009acc:	200009b5 	.word	0x200009b5

10009ad0 <__e15_is_bulkin_ep_veneer>:
10009ad0:	b401      	push	{r0}
10009ad2:	4802      	ldr	r0, [pc, #8]	; (10009adc <__e15_is_bulkin_ep_veneer+0xc>)
10009ad4:	4684      	mov	ip, r0
10009ad6:	bc01      	pop	{r0}
10009ad8:	4760      	bx	ip
10009ada:	bf00      	nop
10009adc:	200007dd 	.word	0x200007dd

10009ae0 <__hw_endpoint_reset_transfer_veneer>:
10009ae0:	b401      	push	{r0}
10009ae2:	4802      	ldr	r0, [pc, #8]	; (10009aec <__hw_endpoint_reset_transfer_veneer+0xc>)
10009ae4:	4684      	mov	ip, r0
10009ae6:	bc01      	pop	{r0}
10009ae8:	4760      	bx	ip
10009aea:	bf00      	nop
10009aec:	20000951 	.word	0x20000951

10009af0 <__reset_non_control_endpoints_veneer>:
10009af0:	b401      	push	{r0}
10009af2:	4802      	ldr	r0, [pc, #8]	; (10009afc <__reset_non_control_endpoints_veneer+0xc>)
10009af4:	4684      	mov	ip, r0
10009af6:	bc01      	pop	{r0}
10009af8:	4760      	bx	ip
10009afa:	bf00      	nop
10009afc:	2000052d 	.word	0x2000052d

10009b00 <___hw_endpoint_buffer_control_update32_veneer>:
10009b00:	b401      	push	{r0}
10009b02:	4802      	ldr	r0, [pc, #8]	; (10009b0c <___hw_endpoint_buffer_control_update32_veneer+0xc>)
10009b04:	4684      	mov	ip, r0
10009b06:	bc01      	pop	{r0}
10009b08:	4760      	bx	ip
10009b0a:	bf00      	nop
10009b0c:	2000095d 	.word	0x2000095d

Disassembly of section .data:

200000c0 <mutex_try_enter>:
200000c0:	0003      	movs	r3, r0
200000c2:	6800      	ldr	r0, [r0, #0]
200000c4:	f3ef 8c10 	mrs	ip, PRIMASK
200000c8:	b672      	cpsid	i
200000ca:	6802      	ldr	r2, [r0, #0]
200000cc:	2a00      	cmp	r2, #0
200000ce:	d0fc      	beq.n	200000ca <mutex_try_enter+0xa>
200000d0:	f3bf 8f5f 	dmb	sy
200000d4:	2204      	movs	r2, #4
200000d6:	569a      	ldrsb	r2, [r3, r2]
200000d8:	2a00      	cmp	r2, #0
200000da:	db0b      	blt.n	200000f4 <mutex_try_enter+0x34>
200000dc:	2900      	cmp	r1, #0
200000de:	d010      	beq.n	20000102 <mutex_try_enter+0x42>
200000e0:	600a      	str	r2, [r1, #0]
200000e2:	2000      	movs	r0, #0
200000e4:	681b      	ldr	r3, [r3, #0]
200000e6:	f3bf 8f5f 	dmb	sy
200000ea:	2200      	movs	r2, #0
200000ec:	601a      	str	r2, [r3, #0]
200000ee:	f38c 8810 	msr	PRIMASK, ip
200000f2:	4770      	bx	lr
200000f4:	22d0      	movs	r2, #208	; 0xd0
200000f6:	0612      	lsls	r2, r2, #24
200000f8:	7812      	ldrb	r2, [r2, #0]
200000fa:	b252      	sxtb	r2, r2
200000fc:	711a      	strb	r2, [r3, #4]
200000fe:	2001      	movs	r0, #1
20000100:	e7f0      	b.n	200000e4 <mutex_try_enter+0x24>
20000102:	2000      	movs	r0, #0
20000104:	e7ee      	b.n	200000e4 <mutex_try_enter+0x24>
	...

20000108 <mutex_enter_block_until>:
20000108:	b5f8      	push	{r3, r4, r5, r6, r7, lr}
2000010a:	46ce      	mov	lr, r9
2000010c:	4647      	mov	r7, r8
2000010e:	b580      	push	{r7, lr}
20000110:	0004      	movs	r4, r0
20000112:	0017      	movs	r7, r2
20000114:	4698      	mov	r8, r3
20000116:	6803      	ldr	r3, [r0, #0]
20000118:	2b00      	cmp	r3, #0
2000011a:	d020      	beq.n	2000015e <mutex_enter_block_until+0x56>
2000011c:	23d0      	movs	r3, #208	; 0xd0
2000011e:	061b      	lsls	r3, r3, #24
20000120:	781b      	ldrb	r3, [r3, #0]
20000122:	b25b      	sxtb	r3, r3
20000124:	4699      	mov	r9, r3
20000126:	6826      	ldr	r6, [r4, #0]
20000128:	f3ef 8c10 	mrs	ip, PRIMASK
2000012c:	b672      	cpsid	i
2000012e:	6835      	ldr	r5, [r6, #0]
20000130:	2d00      	cmp	r5, #0
20000132:	d0fc      	beq.n	2000012e <mutex_enter_block_until+0x26>
20000134:	f3bf 8f5f 	dmb	sy
20000138:	2504      	movs	r5, #4
2000013a:	5765      	ldrsb	r5, [r4, r5]
2000013c:	2d00      	cmp	r5, #0
2000013e:	db14      	blt.n	2000016a <mutex_enter_block_until+0x62>
20000140:	6823      	ldr	r3, [r4, #0]
20000142:	f3bf 8f5f 	dmb	sy
20000146:	2200      	movs	r2, #0
20000148:	601a      	str	r2, [r3, #0]
2000014a:	f38c 8810 	msr	PRIMASK, ip
2000014e:	0038      	movs	r0, r7
20000150:	4641      	mov	r1, r8
20000152:	f000 fde1 	bl	20000d18 <__best_effort_wfe_or_timeout_veneer>
20000156:	2800      	cmp	r0, #0
20000158:	d0e5      	beq.n	20000126 <mutex_enter_block_until+0x1e>
2000015a:	2000      	movs	r0, #0
2000015c:	e00f      	b.n	2000017e <mutex_enter_block_until+0x76>
2000015e:	4b0a      	ldr	r3, [pc, #40]	; (20000188 <mutex_enter_block_until+0x80>)
20000160:	4a0a      	ldr	r2, [pc, #40]	; (2000018c <mutex_enter_block_until+0x84>)
20000162:	2185      	movs	r1, #133	; 0x85
20000164:	480a      	ldr	r0, [pc, #40]	; (20000190 <mutex_enter_block_until+0x88>)
20000166:	f000 fd97 	bl	20000c98 <____assert_func_veneer>
2000016a:	464b      	mov	r3, r9
2000016c:	7123      	strb	r3, [r4, #4]
2000016e:	6823      	ldr	r3, [r4, #0]
20000170:	f3bf 8f5f 	dmb	sy
20000174:	2200      	movs	r2, #0
20000176:	601a      	str	r2, [r3, #0]
20000178:	f38c 8810 	msr	PRIMASK, ip
2000017c:	2001      	movs	r0, #1
2000017e:	bcc0      	pop	{r6, r7}
20000180:	46b9      	mov	r9, r7
20000182:	46b0      	mov	r8, r6
20000184:	bdf8      	pop	{r3, r4, r5, r6, r7, pc}
20000186:	46c0      	nop			; (mov r8, r8)
20000188:	1000a934 	.word	0x1000a934
2000018c:	1000aa0c 	.word	0x1000aa0c
20000190:	1000a8e0 	.word	0x1000a8e0

20000194 <mutex_try_enter_block_until>:
20000194:	b570      	push	{r4, r5, r6, lr}
20000196:	b082      	sub	sp, #8
20000198:	0006      	movs	r6, r0
2000019a:	0015      	movs	r5, r2
2000019c:	001c      	movs	r4, r3
2000019e:	a901      	add	r1, sp, #4
200001a0:	f7ff ff8e 	bl	200000c0 <mutex_try_enter>
200001a4:	2800      	cmp	r0, #0
200001a6:	d107      	bne.n	200001b8 <mutex_try_enter_block_until+0x24>
200001a8:	9b01      	ldr	r3, [sp, #4]
200001aa:	b25b      	sxtb	r3, r3
200001ac:	22d0      	movs	r2, #208	; 0xd0
200001ae:	0612      	lsls	r2, r2, #24
200001b0:	7812      	ldrb	r2, [r2, #0]
200001b2:	b252      	sxtb	r2, r2
200001b4:	4293      	cmp	r3, r2
200001b6:	d101      	bne.n	200001bc <mutex_try_enter_block_until+0x28>
200001b8:	b002      	add	sp, #8
200001ba:	bd70      	pop	{r4, r5, r6, pc}
200001bc:	002a      	movs	r2, r5
200001be:	0023      	movs	r3, r4
200001c0:	0030      	movs	r0, r6
200001c2:	f7ff ffa1 	bl	20000108 <mutex_enter_block_until>
200001c6:	e7f7      	b.n	200001b8 <mutex_try_enter_block_until+0x24>

200001c8 <mutex_enter_timeout_ms>:
200001c8:	b5f8      	push	{r3, r4, r5, r6, r7, lr}
200001ca:	0006      	movs	r6, r0
200001cc:	000f      	movs	r7, r1
200001ce:	f000 fd9b 	bl	20000d08 <__time_us_64_veneer>
200001d2:	0004      	movs	r4, r0
200001d4:	1e0d      	subs	r5, r1, #0
200001d6:	db12      	blt.n	200001fe <mutex_enter_timeout_ms+0x36>
200001d8:	22fa      	movs	r2, #250	; 0xfa
200001da:	0092      	lsls	r2, r2, #2
200001dc:	2300      	movs	r3, #0
200001de:	0038      	movs	r0, r7
200001e0:	2100      	movs	r1, #0
200001e2:	f000 fd61 	bl	20000ca8 <____wrap___aeabi_lmul_veneer>
200001e6:	0022      	movs	r2, r4
200001e8:	002b      	movs	r3, r5
200001ea:	1812      	adds	r2, r2, r0
200001ec:	414b      	adcs	r3, r1
200001ee:	2b00      	cmp	r3, #0
200001f0:	db0b      	blt.n	2000020a <mutex_enter_timeout_ms+0x42>
200001f2:	2b00      	cmp	r3, #0
200001f4:	db0d      	blt.n	20000212 <mutex_enter_timeout_ms+0x4a>
200001f6:	0030      	movs	r0, r6
200001f8:	f7ff ff86 	bl	20000108 <mutex_enter_block_until>
200001fc:	bdf8      	pop	{r3, r4, r5, r6, r7, pc}
200001fe:	4b08      	ldr	r3, [pc, #32]	; (20000220 <mutex_enter_timeout_ms+0x58>)
20000200:	4a08      	ldr	r2, [pc, #32]	; (20000224 <mutex_enter_timeout_ms+0x5c>)
20000202:	213f      	movs	r1, #63	; 0x3f
20000204:	4808      	ldr	r0, [pc, #32]	; (20000228 <mutex_enter_timeout_ms+0x60>)
20000206:	f000 fd47 	bl	20000c98 <____assert_func_veneer>
2000020a:	2201      	movs	r2, #1
2000020c:	4252      	negs	r2, r2
2000020e:	4b07      	ldr	r3, [pc, #28]	; (2000022c <mutex_enter_timeout_ms+0x64>)
20000210:	e7ef      	b.n	200001f2 <mutex_enter_timeout_ms+0x2a>
20000212:	4b03      	ldr	r3, [pc, #12]	; (20000220 <mutex_enter_timeout_ms+0x58>)
20000214:	4a03      	ldr	r2, [pc, #12]	; (20000224 <mutex_enter_timeout_ms+0x5c>)
20000216:	213f      	movs	r1, #63	; 0x3f
20000218:	4803      	ldr	r0, [pc, #12]	; (20000228 <mutex_enter_timeout_ms+0x60>)
2000021a:	f000 fd3d 	bl	20000c98 <____assert_func_veneer>
2000021e:	46c0      	nop			; (mov r8, r8)
20000220:	1000a948 	.word	0x1000a948
20000224:	1000aa24 	.word	0x1000aa24
20000228:	1000a964 	.word	0x1000a964
2000022c:	7fffffff 	.word	0x7fffffff

20000230 <mutex_exit>:
20000230:	b510      	push	{r4, lr}
20000232:	6802      	ldr	r2, [r0, #0]
20000234:	f3ef 8110 	mrs	r1, PRIMASK
20000238:	b672      	cpsid	i
2000023a:	6813      	ldr	r3, [r2, #0]
2000023c:	2b00      	cmp	r3, #0
2000023e:	d0fc      	beq.n	2000023a <mutex_exit+0xa>
20000240:	f3bf 8f5f 	dmb	sy
20000244:	2304      	movs	r3, #4
20000246:	56c3      	ldrsb	r3, [r0, r3]
20000248:	2b00      	cmp	r3, #0
2000024a:	db0a      	blt.n	20000262 <mutex_exit+0x32>
2000024c:	23ff      	movs	r3, #255	; 0xff
2000024e:	7103      	strb	r3, [r0, #4]
20000250:	6803      	ldr	r3, [r0, #0]
20000252:	f3bf 8f5f 	dmb	sy
20000256:	2200      	movs	r2, #0
20000258:	601a      	str	r2, [r3, #0]
2000025a:	f381 8810 	msr	PRIMASK, r1
2000025e:	bf40      	sev
20000260:	bd10      	pop	{r4, pc}
20000262:	4b03      	ldr	r3, [pc, #12]	; (20000270 <mutex_exit+0x40>)
20000264:	4a03      	ldr	r2, [pc, #12]	; (20000274 <mutex_exit+0x44>)
20000266:	21b4      	movs	r1, #180	; 0xb4
20000268:	4803      	ldr	r0, [pc, #12]	; (20000278 <mutex_exit+0x48>)
2000026a:	f000 fd15 	bl	20000c98 <____assert_func_veneer>
2000026e:	46c0      	nop			; (mov r8, r8)
20000270:	1000a9c8 	.word	0x1000a9c8
20000274:	1000aa00 	.word	0x1000aa00
20000278:	1000a8e0 	.word	0x1000a8e0

2000027c <flash_init_boot2_copyout>:
2000027c:	4b09      	ldr	r3, [pc, #36]	; (200002a4 <flash_init_boot2_copyout+0x28>)
2000027e:	781b      	ldrb	r3, [r3, #0]
20000280:	2b00      	cmp	r3, #0
20000282:	d008      	beq.n	20000296 <flash_init_boot2_copyout+0x1a>
20000284:	e00c      	b.n	200002a0 <flash_init_boot2_copyout+0x24>
20000286:	009a      	lsls	r2, r3, #2
20000288:	2180      	movs	r1, #128	; 0x80
2000028a:	0549      	lsls	r1, r1, #21
2000028c:	1851      	adds	r1, r2, r1
2000028e:	6808      	ldr	r0, [r1, #0]
20000290:	4905      	ldr	r1, [pc, #20]	; (200002a8 <flash_init_boot2_copyout+0x2c>)
20000292:	5050      	str	r0, [r2, r1]
20000294:	3301      	adds	r3, #1
20000296:	2b3f      	cmp	r3, #63	; 0x3f
20000298:	ddf5      	ble.n	20000286 <flash_init_boot2_copyout+0xa>
2000029a:	4b02      	ldr	r3, [pc, #8]	; (200002a4 <flash_init_boot2_copyout+0x28>)
2000029c:	2201      	movs	r2, #1
2000029e:	701a      	strb	r2, [r3, #0]
200002a0:	4770      	bx	lr
200002a2:	46c0      	nop			; (mov r8, r8)
200002a4:	20002735 	.word	0x20002735
200002a8:	20001ed4 	.word	0x20001ed4

200002ac <flash_enable_xip_via_boot2>:
200002ac:	b510      	push	{r4, lr}
200002ae:	4b02      	ldr	r3, [pc, #8]	; (200002b8 <flash_enable_xip_via_boot2+0xc>)
200002b0:	3301      	adds	r3, #1
200002b2:	4798      	blx	r3
200002b4:	bd10      	pop	{r4, pc}
200002b6:	46c0      	nop			; (mov r8, r8)
200002b8:	20001ed4 	.word	0x20001ed4

200002bc <flash_cs_force>:
200002bc:	2800      	cmp	r0, #0
200002be:	d00a      	beq.n	200002d6 <flash_cs_force+0x1a>
200002c0:	2303      	movs	r3, #3
200002c2:	021b      	lsls	r3, r3, #8
200002c4:	4a05      	ldr	r2, [pc, #20]	; (200002dc <flash_cs_force+0x20>)
200002c6:	6812      	ldr	r2, [r2, #0]
200002c8:	4053      	eors	r3, r2
200002ca:	22c0      	movs	r2, #192	; 0xc0
200002cc:	0092      	lsls	r2, r2, #2
200002ce:	4013      	ands	r3, r2
200002d0:	4a03      	ldr	r2, [pc, #12]	; (200002e0 <flash_cs_force+0x24>)
200002d2:	6013      	str	r3, [r2, #0]
200002d4:	4770      	bx	lr
200002d6:	2302      	movs	r3, #2
200002d8:	e7f3      	b.n	200002c2 <flash_cs_force+0x6>
200002da:	46c0      	nop			; (mov r8, r8)
200002dc:	4001800c 	.word	0x4001800c
200002e0:	4001900c 	.word	0x4001900c

200002e4 <flash_range_erase>:
200002e4:	b5f0      	push	{r4, r5, r6, r7, lr}
200002e6:	46d6      	mov	lr, sl
200002e8:	464f      	mov	r7, r9
200002ea:	4646      	mov	r6, r8
200002ec:	b5c0      	push	{r6, r7, lr}
200002ee:	0004      	movs	r4, r0
200002f0:	000d      	movs	r5, r1
200002f2:	180a      	adds	r2, r1, r0
200002f4:	2380      	movs	r3, #128	; 0x80
200002f6:	039b      	lsls	r3, r3, #14
200002f8:	429a      	cmp	r2, r3
200002fa:	d832      	bhi.n	20000362 <flash_range_erase+0x7e>
200002fc:	2718      	movs	r7, #24
200002fe:	883b      	ldrh	r3, [r7, #0]
20000300:	2614      	movs	r6, #20
20000302:	8830      	ldrh	r0, [r6, #0]
20000304:	491d      	ldr	r1, [pc, #116]	; (2000037c <flash_range_erase+0x98>)
20000306:	4798      	blx	r3
20000308:	4681      	mov	r9, r0
2000030a:	883b      	ldrh	r3, [r7, #0]
2000030c:	8830      	ldrh	r0, [r6, #0]
2000030e:	491c      	ldr	r1, [pc, #112]	; (20000380 <flash_range_erase+0x9c>)
20000310:	4798      	blx	r3
20000312:	4680      	mov	r8, r0
20000314:	883b      	ldrh	r3, [r7, #0]
20000316:	8830      	ldrh	r0, [r6, #0]
20000318:	491a      	ldr	r1, [pc, #104]	; (20000384 <flash_range_erase+0xa0>)
2000031a:	4798      	blx	r3
2000031c:	4682      	mov	sl, r0
2000031e:	883b      	ldrh	r3, [r7, #0]
20000320:	8830      	ldrh	r0, [r6, #0]
20000322:	4919      	ldr	r1, [pc, #100]	; (20000388 <flash_range_erase+0xa4>)
20000324:	4798      	blx	r3
20000326:	0006      	movs	r6, r0
20000328:	464b      	mov	r3, r9
2000032a:	2b00      	cmp	r3, #0
2000032c:	d01f      	beq.n	2000036e <flash_range_erase+0x8a>
2000032e:	4643      	mov	r3, r8
20000330:	2b00      	cmp	r3, #0
20000332:	d01c      	beq.n	2000036e <flash_range_erase+0x8a>
20000334:	4653      	mov	r3, sl
20000336:	2b00      	cmp	r3, #0
20000338:	d019      	beq.n	2000036e <flash_range_erase+0x8a>
2000033a:	2800      	cmp	r0, #0
2000033c:	d017      	beq.n	2000036e <flash_range_erase+0x8a>
2000033e:	f7ff ff9d 	bl	2000027c <flash_init_boot2_copyout>
20000342:	47c8      	blx	r9
20000344:	47c0      	blx	r8
20000346:	2280      	movs	r2, #128	; 0x80
20000348:	23d8      	movs	r3, #216	; 0xd8
2000034a:	0252      	lsls	r2, r2, #9
2000034c:	0029      	movs	r1, r5
2000034e:	0020      	movs	r0, r4
20000350:	47d0      	blx	sl
20000352:	47b0      	blx	r6
20000354:	f7ff ffaa 	bl	200002ac <flash_enable_xip_via_boot2>
20000358:	bce0      	pop	{r5, r6, r7}
2000035a:	46ba      	mov	sl, r7
2000035c:	46b1      	mov	r9, r6
2000035e:	46a8      	mov	r8, r5
20000360:	bdf0      	pop	{r4, r5, r6, r7, pc}
20000362:	4b0a      	ldr	r3, [pc, #40]	; (2000038c <flash_range_erase+0xa8>)
20000364:	4a0a      	ldr	r2, [pc, #40]	; (20000390 <flash_range_erase+0xac>)
20000366:	2141      	movs	r1, #65	; 0x41
20000368:	480a      	ldr	r0, [pc, #40]	; (20000394 <flash_range_erase+0xb0>)
2000036a:	f000 fc95 	bl	20000c98 <____assert_func_veneer>
2000036e:	4b0a      	ldr	r3, [pc, #40]	; (20000398 <flash_range_erase+0xb4>)
20000370:	4a07      	ldr	r2, [pc, #28]	; (20000390 <flash_range_erase+0xac>)
20000372:	2149      	movs	r1, #73	; 0x49
20000374:	4807      	ldr	r0, [pc, #28]	; (20000394 <flash_range_erase+0xb0>)
20000376:	f000 fc8f 	bl	20000c98 <____assert_func_veneer>
2000037a:	46c0      	nop			; (mov r8, r8)
2000037c:	00004649 	.word	0x00004649
20000380:	00005845 	.word	0x00005845
20000384:	00004552 	.word	0x00004552
20000388:	00004346 	.word	0x00004346
2000038c:	1000b804 	.word	0x1000b804
20000390:	1000b9a0 	.word	0x1000b9a0
20000394:	1000b830 	.word	0x1000b830
20000398:	1000b890 	.word	0x1000b890

2000039c <flash_range_program>:
2000039c:	b5f8      	push	{r3, r4, r5, r6, r7, lr}
2000039e:	46de      	mov	lr, fp
200003a0:	4657      	mov	r7, sl
200003a2:	464e      	mov	r6, r9
200003a4:	4645      	mov	r5, r8
200003a6:	b5e0      	push	{r5, r6, r7, lr}
200003a8:	0004      	movs	r4, r0
200003aa:	468b      	mov	fp, r1
200003ac:	0015      	movs	r5, r2
200003ae:	1812      	adds	r2, r2, r0
200003b0:	2380      	movs	r3, #128	; 0x80
200003b2:	039b      	lsls	r3, r3, #14
200003b4:	429a      	cmp	r2, r3
200003b6:	d831      	bhi.n	2000041c <flash_range_program+0x80>
200003b8:	2718      	movs	r7, #24
200003ba:	883b      	ldrh	r3, [r7, #0]
200003bc:	2614      	movs	r6, #20
200003be:	8830      	ldrh	r0, [r6, #0]
200003c0:	491c      	ldr	r1, [pc, #112]	; (20000434 <flash_range_program+0x98>)
200003c2:	4798      	blx	r3
200003c4:	4681      	mov	r9, r0
200003c6:	883b      	ldrh	r3, [r7, #0]
200003c8:	8830      	ldrh	r0, [r6, #0]
200003ca:	491b      	ldr	r1, [pc, #108]	; (20000438 <flash_range_program+0x9c>)
200003cc:	4798      	blx	r3
200003ce:	4680      	mov	r8, r0
200003d0:	883b      	ldrh	r3, [r7, #0]
200003d2:	8830      	ldrh	r0, [r6, #0]
200003d4:	4919      	ldr	r1, [pc, #100]	; (2000043c <flash_range_program+0xa0>)
200003d6:	4798      	blx	r3
200003d8:	4682      	mov	sl, r0
200003da:	883b      	ldrh	r3, [r7, #0]
200003dc:	8830      	ldrh	r0, [r6, #0]
200003de:	4918      	ldr	r1, [pc, #96]	; (20000440 <flash_range_program+0xa4>)
200003e0:	4798      	blx	r3
200003e2:	0006      	movs	r6, r0
200003e4:	464b      	mov	r3, r9
200003e6:	2b00      	cmp	r3, #0
200003e8:	d01e      	beq.n	20000428 <flash_range_program+0x8c>
200003ea:	4643      	mov	r3, r8
200003ec:	2b00      	cmp	r3, #0
200003ee:	d01b      	beq.n	20000428 <flash_range_program+0x8c>
200003f0:	4653      	mov	r3, sl
200003f2:	2b00      	cmp	r3, #0
200003f4:	d018      	beq.n	20000428 <flash_range_program+0x8c>
200003f6:	2800      	cmp	r0, #0
200003f8:	d016      	beq.n	20000428 <flash_range_program+0x8c>
200003fa:	f7ff ff3f 	bl	2000027c <flash_init_boot2_copyout>
200003fe:	47c8      	blx	r9
20000400:	47c0      	blx	r8
20000402:	002a      	movs	r2, r5
20000404:	4659      	mov	r1, fp
20000406:	0020      	movs	r0, r4
20000408:	47d0      	blx	sl
2000040a:	47b0      	blx	r6
2000040c:	f7ff ff4e 	bl	200002ac <flash_enable_xip_via_boot2>
20000410:	bcf0      	pop	{r4, r5, r6, r7}
20000412:	46bb      	mov	fp, r7
20000414:	46b2      	mov	sl, r6
20000416:	46a9      	mov	r9, r5
20000418:	46a0      	mov	r8, r4
2000041a:	bdf8      	pop	{r3, r4, r5, r6, r7, pc}
2000041c:	4b09      	ldr	r3, [pc, #36]	; (20000444 <flash_range_program+0xa8>)
2000041e:	4a0a      	ldr	r2, [pc, #40]	; (20000448 <flash_range_program+0xac>)
20000420:	2158      	movs	r1, #88	; 0x58
20000422:	480a      	ldr	r0, [pc, #40]	; (2000044c <flash_range_program+0xb0>)
20000424:	f000 fc38 	bl	20000c98 <____assert_func_veneer>
20000428:	4b09      	ldr	r3, [pc, #36]	; (20000450 <flash_range_program+0xb4>)
2000042a:	4a07      	ldr	r2, [pc, #28]	; (20000448 <flash_range_program+0xac>)
2000042c:	2160      	movs	r1, #96	; 0x60
2000042e:	4807      	ldr	r0, [pc, #28]	; (2000044c <flash_range_program+0xb0>)
20000430:	f000 fc32 	bl	20000c98 <____assert_func_veneer>
20000434:	00004649 	.word	0x00004649
20000438:	00005845 	.word	0x00005845
2000043c:	00005052 	.word	0x00005052
20000440:	00004346 	.word	0x00004346
20000444:	1000b804 	.word	0x1000b804
20000448:	1000b98c 	.word	0x1000b98c
2000044c:	1000b830 	.word	0x1000b830
20000450:	1000b8e4 	.word	0x1000b8e4

20000454 <flash_do_cmd>:
20000454:	b5f0      	push	{r4, r5, r6, r7, lr}
20000456:	46d6      	mov	lr, sl
20000458:	464f      	mov	r7, r9
2000045a:	4646      	mov	r6, r8
2000045c:	b5c0      	push	{r6, r7, lr}
2000045e:	0007      	movs	r7, r0
20000460:	000e      	movs	r6, r1
20000462:	0015      	movs	r5, r2
20000464:	2318      	movs	r3, #24
20000466:	469a      	mov	sl, r3
20000468:	881b      	ldrh	r3, [r3, #0]
2000046a:	2214      	movs	r2, #20
2000046c:	4690      	mov	r8, r2
2000046e:	8810      	ldrh	r0, [r2, #0]
20000470:	4928      	ldr	r1, [pc, #160]	; (20000514 <flash_do_cmd+0xc0>)
20000472:	4798      	blx	r3
20000474:	4681      	mov	r9, r0
20000476:	4653      	mov	r3, sl
20000478:	881b      	ldrh	r3, [r3, #0]
2000047a:	4642      	mov	r2, r8
2000047c:	8810      	ldrh	r0, [r2, #0]
2000047e:	4926      	ldr	r1, [pc, #152]	; (20000518 <flash_do_cmd+0xc4>)
20000480:	4798      	blx	r3
20000482:	0004      	movs	r4, r0
20000484:	4653      	mov	r3, sl
20000486:	881b      	ldrh	r3, [r3, #0]
20000488:	4642      	mov	r2, r8
2000048a:	8810      	ldrh	r0, [r2, #0]
2000048c:	4923      	ldr	r1, [pc, #140]	; (2000051c <flash_do_cmd+0xc8>)
2000048e:	4798      	blx	r3
20000490:	4680      	mov	r8, r0
20000492:	464b      	mov	r3, r9
20000494:	2b00      	cmp	r3, #0
20000496:	d00c      	beq.n	200004b2 <flash_do_cmd+0x5e>
20000498:	2c00      	cmp	r4, #0
2000049a:	d00a      	beq.n	200004b2 <flash_do_cmd+0x5e>
2000049c:	2800      	cmp	r0, #0
2000049e:	d008      	beq.n	200004b2 <flash_do_cmd+0x5e>
200004a0:	f7ff feec 	bl	2000027c <flash_init_boot2_copyout>
200004a4:	47c8      	blx	r9
200004a6:	47a0      	blx	r4
200004a8:	2000      	movs	r0, #0
200004aa:	f7ff ff07 	bl	200002bc <flash_cs_force>
200004ae:	002a      	movs	r2, r5
200004b0:	e00f      	b.n	200004d2 <flash_do_cmd+0x7e>
200004b2:	4b1b      	ldr	r3, [pc, #108]	; (20000520 <flash_do_cmd+0xcc>)
200004b4:	4a1b      	ldr	r2, [pc, #108]	; (20000524 <flash_do_cmd+0xd0>)
200004b6:	2180      	movs	r1, #128	; 0x80
200004b8:	481b      	ldr	r0, [pc, #108]	; (20000528 <flash_do_cmd+0xd4>)
200004ba:	f000 fbed 	bl	20000c98 <____assert_func_veneer>
200004be:	2b00      	cmp	r3, #0
200004c0:	d007      	beq.n	200004d2 <flash_do_cmd+0x7e>
200004c2:	2a00      	cmp	r2, #0
200004c4:	d005      	beq.n	200004d2 <flash_do_cmd+0x7e>
200004c6:	23c0      	movs	r3, #192	; 0xc0
200004c8:	055b      	lsls	r3, r3, #21
200004ca:	6e1b      	ldr	r3, [r3, #96]	; 0x60
200004cc:	7033      	strb	r3, [r6, #0]
200004ce:	3a01      	subs	r2, #1
200004d0:	3601      	adds	r6, #1
200004d2:	002b      	movs	r3, r5
200004d4:	4313      	orrs	r3, r2
200004d6:	d012      	beq.n	200004fe <flash_do_cmd+0xaa>
200004d8:	23c0      	movs	r3, #192	; 0xc0
200004da:	055b      	lsls	r3, r3, #21
200004dc:	6a9c      	ldr	r4, [r3, #40]	; 0x28
200004de:	2308      	movs	r3, #8
200004e0:	4023      	ands	r3, r4
200004e2:	07a1      	lsls	r1, r4, #30
200004e4:	d5eb      	bpl.n	200004be <flash_do_cmd+0x6a>
200004e6:	2d00      	cmp	r5, #0
200004e8:	d0e9      	beq.n	200004be <flash_do_cmd+0x6a>
200004ea:	1b51      	subs	r1, r2, r5
200004ec:	290d      	cmp	r1, #13
200004ee:	d8e6      	bhi.n	200004be <flash_do_cmd+0x6a>
200004f0:	7838      	ldrb	r0, [r7, #0]
200004f2:	21c0      	movs	r1, #192	; 0xc0
200004f4:	0549      	lsls	r1, r1, #21
200004f6:	6608      	str	r0, [r1, #96]	; 0x60
200004f8:	3d01      	subs	r5, #1
200004fa:	3701      	adds	r7, #1
200004fc:	e7df      	b.n	200004be <flash_do_cmd+0x6a>
200004fe:	2001      	movs	r0, #1
20000500:	f7ff fedc 	bl	200002bc <flash_cs_force>
20000504:	47c0      	blx	r8
20000506:	f7ff fed1 	bl	200002ac <flash_enable_xip_via_boot2>
2000050a:	bce0      	pop	{r5, r6, r7}
2000050c:	46ba      	mov	sl, r7
2000050e:	46b1      	mov	r9, r6
20000510:	46a8      	mov	r8, r5
20000512:	bdf0      	pop	{r4, r5, r6, r7, pc}
20000514:	00004649 	.word	0x00004649
20000518:	00005845 	.word	0x00005845
2000051c:	00004346 	.word	0x00004346
20000520:	1000b93c 	.word	0x1000b93c
20000524:	1000b97c 	.word	0x1000b97c
20000528:	1000b830 	.word	0x1000b830

2000052c <reset_non_control_endpoints>:
2000052c:	b510      	push	{r4, lr}
2000052e:	2300      	movs	r3, #0
20000530:	e008      	b.n	20000544 <reset_non_control_endpoints+0x18>
20000532:	3301      	adds	r3, #1
20000534:	00da      	lsls	r2, r3, #3
20000536:	2100      	movs	r1, #0
20000538:	4808      	ldr	r0, [pc, #32]	; (2000055c <reset_non_control_endpoints+0x30>)
2000053a:	5011      	str	r1, [r2, r0]
2000053c:	4684      	mov	ip, r0
2000053e:	4462      	add	r2, ip
20000540:	6051      	str	r1, [r2, #4]
20000542:	b2db      	uxtb	r3, r3
20000544:	2b0e      	cmp	r3, #14
20000546:	d9f4      	bls.n	20000532 <reset_non_control_endpoints+0x6>
20000548:	22f0      	movs	r2, #240	; 0xf0
2000054a:	0092      	lsls	r2, r2, #2
2000054c:	2100      	movs	r1, #0
2000054e:	4804      	ldr	r0, [pc, #16]	; (20000560 <reset_non_control_endpoints+0x34>)
20000550:	f000 fbd2 	bl	20000cf8 <____wrap_memset_veneer>
20000554:	4b03      	ldr	r3, [pc, #12]	; (20000564 <reset_non_control_endpoints+0x38>)
20000556:	4a04      	ldr	r2, [pc, #16]	; (20000568 <reset_non_control_endpoints+0x3c>)
20000558:	601a      	str	r2, [r3, #0]
2000055a:	bd10      	pop	{r4, pc}
2000055c:	50100000 	.word	0x50100000
20000560:	20002110 	.word	0x20002110
20000564:	200024d0 	.word	0x200024d0
20000568:	50100180 	.word	0x50100180

2000056c <hw_handle_buff_status>:
2000056c:	b5f0      	push	{r4, r5, r6, r7, lr}
2000056e:	46ce      	mov	lr, r9
20000570:	4647      	mov	r7, r8
20000572:	b580      	push	{r7, lr}
20000574:	b085      	sub	sp, #20
20000576:	4b23      	ldr	r3, [pc, #140]	; (20000604 <hw_handle_buff_status+0x98>)
20000578:	6d9f      	ldr	r7, [r3, #88]	; 0x58
2000057a:	2400      	movs	r4, #0
2000057c:	2601      	movs	r6, #1
2000057e:	e003      	b.n	20000588 <hw_handle_buff_status+0x1c>
20000580:	43b7      	bics	r7, r6
20000582:	0076      	lsls	r6, r6, #1
20000584:	3401      	adds	r4, #1
20000586:	b2e4      	uxtb	r4, r4
20000588:	2f00      	cmp	r7, #0
2000058a:	d036      	beq.n	200005fa <hw_handle_buff_status+0x8e>
2000058c:	2c1f      	cmp	r4, #31
2000058e:	d834      	bhi.n	200005fa <hw_handle_buff_status+0x8e>
20000590:	423e      	tst	r6, r7
20000592:	d0f6      	beq.n	20000582 <hw_handle_buff_status+0x16>
20000594:	4b1c      	ldr	r3, [pc, #112]	; (20000608 <hw_handle_buff_status+0x9c>)
20000596:	659e      	str	r6, [r3, #88]	; 0x58
20000598:	0863      	lsrs	r3, r4, #1
2000059a:	4699      	mov	r9, r3
2000059c:	2301      	movs	r3, #1
2000059e:	4063      	eors	r3, r4
200005a0:	2201      	movs	r2, #1
200005a2:	401a      	ands	r2, r3
200005a4:	4690      	mov	r8, r2
200005a6:	464b      	mov	r3, r9
200005a8:	005d      	lsls	r5, r3, #1
200005aa:	4445      	add	r5, r8
200005ac:	016d      	lsls	r5, r5, #5
200005ae:	4b17      	ldr	r3, [pc, #92]	; (2000060c <hw_handle_buff_status+0xa0>)
200005b0:	18ed      	adds	r5, r5, r3
200005b2:	0028      	movs	r0, r5
200005b4:	f000 fa42 	bl	20000a3c <hw_endpoint_xfer_continue>
200005b8:	2800      	cmp	r0, #0
200005ba:	d0e1      	beq.n	20000580 <hw_handle_buff_status+0x14>
200005bc:	464b      	mov	r3, r9
200005be:	005b      	lsls	r3, r3, #1
200005c0:	4443      	add	r3, r8
200005c2:	015b      	lsls	r3, r3, #5
200005c4:	4a11      	ldr	r2, [pc, #68]	; (2000060c <hw_handle_buff_status+0xa0>)
200005c6:	18d3      	adds	r3, r2, r3
200005c8:	789a      	ldrb	r2, [r3, #2]
200005ca:	4691      	mov	r9, r2
200005cc:	8adb      	ldrh	r3, [r3, #22]
200005ce:	4698      	mov	r8, r3
200005d0:	220c      	movs	r2, #12
200005d2:	2100      	movs	r1, #0
200005d4:	a801      	add	r0, sp, #4
200005d6:	f000 fb8f 	bl	20000cf8 <____wrap_memset_veneer>
200005da:	2307      	movs	r3, #7
200005dc:	466a      	mov	r2, sp
200005de:	7153      	strb	r3, [r2, #5]
200005e0:	466b      	mov	r3, sp
200005e2:	464a      	mov	r2, r9
200005e4:	721a      	strb	r2, [r3, #8]
200005e6:	4643      	mov	r3, r8
200005e8:	9303      	str	r3, [sp, #12]
200005ea:	2101      	movs	r1, #1
200005ec:	a801      	add	r0, sp, #4
200005ee:	f000 fa4d 	bl	20000a8c <dcd_event_handler>
200005f2:	0028      	movs	r0, r5
200005f4:	f000 f9ac 	bl	20000950 <hw_endpoint_reset_transfer>
200005f8:	e7c2      	b.n	20000580 <hw_handle_buff_status+0x14>
200005fa:	b005      	add	sp, #20
200005fc:	bcc0      	pop	{r6, r7}
200005fe:	46b9      	mov	r9, r7
20000600:	46b0      	mov	r8, r6
20000602:	bdf0      	pop	{r4, r5, r6, r7, pc}
20000604:	50110000 	.word	0x50110000
20000608:	50113000 	.word	0x50113000
2000060c:	200020d0 	.word	0x200020d0

20000610 <dcd_rp2040_irq>:
20000610:	b5f0      	push	{r4, r5, r6, r7, lr}
20000612:	b085      	sub	sp, #20
20000614:	4a68      	ldr	r2, [pc, #416]	; (200007b8 <dcd_rp2040_irq+0x1a8>)
20000616:	2398      	movs	r3, #152	; 0x98
20000618:	58d5      	ldr	r5, [r2, r3]
2000061a:	2380      	movs	r3, #128	; 0x80
2000061c:	029b      	lsls	r3, r3, #10
2000061e:	002c      	movs	r4, r5
20000620:	401c      	ands	r4, r3
20000622:	421d      	tst	r5, r3
20000624:	d04a      	beq.n	200006bc <dcd_rp2040_irq+0xac>
20000626:	4b65      	ldr	r3, [pc, #404]	; (200007bc <dcd_rp2040_irq+0x1ac>)
20000628:	6a9a      	ldr	r2, [r3, #40]	; 0x28
2000062a:	4b65      	ldr	r3, [pc, #404]	; (200007c0 <dcd_rp2040_irq+0x1b0>)
2000062c:	601a      	str	r2, [r3, #0]
2000062e:	2400      	movs	r4, #0
20000630:	2600      	movs	r6, #0
20000632:	e009      	b.n	20000648 <dcd_rp2040_irq+0x38>
20000634:	4b63      	ldr	r3, [pc, #396]	; (200007c4 <dcd_rp2040_irq+0x1b4>)
20000636:	1899      	adds	r1, r3, r2
20000638:	313c      	adds	r1, #60	; 0x3c
2000063a:	2300      	movs	r3, #0
2000063c:	700b      	strb	r3, [r1, #0]
2000063e:	f000 f9b9 	bl	200009b4 <hw_endpoint_start_next_buffer>
20000642:	003e      	movs	r6, r7
20000644:	3401      	adds	r4, #1
20000646:	b2e4      	uxtb	r4, r4
20000648:	2c0f      	cmp	r4, #15
2000064a:	d817      	bhi.n	2000067c <dcd_rp2040_irq+0x6c>
2000064c:	01a2      	lsls	r2, r4, #6
2000064e:	0010      	movs	r0, r2
20000650:	3020      	adds	r0, #32
20000652:	4b5c      	ldr	r3, [pc, #368]	; (200007c4 <dcd_rp2040_irq+0x1b4>)
20000654:	18c0      	adds	r0, r0, r3
20000656:	189b      	adds	r3, r3, r2
20000658:	333b      	adds	r3, #59	; 0x3b
2000065a:	781b      	ldrb	r3, [r3, #0]
2000065c:	2b02      	cmp	r3, #2
2000065e:	d1f1      	bne.n	20000644 <dcd_rp2040_irq+0x34>
20000660:	4b58      	ldr	r3, [pc, #352]	; (200007c4 <dcd_rp2040_irq+0x1b4>)
20000662:	189b      	adds	r3, r3, r2
20000664:	333a      	adds	r3, #58	; 0x3a
20000666:	781f      	ldrb	r7, [r3, #0]
20000668:	2f00      	cmp	r7, #0
2000066a:	d0eb      	beq.n	20000644 <dcd_rp2040_irq+0x34>
2000066c:	4b55      	ldr	r3, [pc, #340]	; (200007c4 <dcd_rp2040_irq+0x1b4>)
2000066e:	189b      	adds	r3, r3, r2
20000670:	333c      	adds	r3, #60	; 0x3c
20000672:	781b      	ldrb	r3, [r3, #0]
20000674:	2b00      	cmp	r3, #0
20000676:	d1dd      	bne.n	20000634 <dcd_rp2040_irq+0x24>
20000678:	003e      	movs	r6, r7
2000067a:	e7e3      	b.n	20000644 <dcd_rp2040_irq+0x34>
2000067c:	2e00      	cmp	r6, #0
2000067e:	d108      	bne.n	20000692 <dcd_rp2040_irq+0x82>
20000680:	4b51      	ldr	r3, [pc, #324]	; (200007c8 <dcd_rp2040_irq+0x1b8>)
20000682:	781b      	ldrb	r3, [r3, #0]
20000684:	2b00      	cmp	r3, #0
20000686:	d104      	bne.n	20000692 <dcd_rp2040_irq+0x82>
20000688:	4a50      	ldr	r2, [pc, #320]	; (200007cc <dcd_rp2040_irq+0x1bc>)
2000068a:	3390      	adds	r3, #144	; 0x90
2000068c:	2180      	movs	r1, #128	; 0x80
2000068e:	0289      	lsls	r1, r1, #10
20000690:	50d1      	str	r1, [r2, r3]
20000692:	4b49      	ldr	r3, [pc, #292]	; (200007b8 <dcd_rp2040_irq+0x1a8>)
20000694:	6c9c      	ldr	r4, [r3, #72]	; 0x48
20000696:	0564      	lsls	r4, r4, #21
20000698:	0d64      	lsrs	r4, r4, #21
2000069a:	220c      	movs	r2, #12
2000069c:	2100      	movs	r1, #0
2000069e:	a801      	add	r0, sp, #4
200006a0:	f000 fb2a 	bl	20000cf8 <____wrap_memset_veneer>
200006a4:	2300      	movs	r3, #0
200006a6:	466a      	mov	r2, sp
200006a8:	7113      	strb	r3, [r2, #4]
200006aa:	3303      	adds	r3, #3
200006ac:	7153      	strb	r3, [r2, #5]
200006ae:	9402      	str	r4, [sp, #8]
200006b0:	2101      	movs	r1, #1
200006b2:	a801      	add	r0, sp, #4
200006b4:	f000 f9ea 	bl	20000a8c <dcd_event_handler>
200006b8:	2480      	movs	r4, #128	; 0x80
200006ba:	02a4      	lsls	r4, r4, #10
200006bc:	06eb      	lsls	r3, r5, #27
200006be:	d409      	bmi.n	200006d4 <dcd_rp2040_irq+0xc4>
200006c0:	03eb      	lsls	r3, r5, #15
200006c2:	d529      	bpl.n	20000718 <dcd_rp2040_irq+0x108>
200006c4:	2380      	movs	r3, #128	; 0x80
200006c6:	025b      	lsls	r3, r3, #9
200006c8:	431c      	orrs	r4, r3
200006ca:	ab01      	add	r3, sp, #4
200006cc:	4a40      	ldr	r2, [pc, #256]	; (200007d0 <dcd_rp2040_irq+0x1c0>)
200006ce:	801a      	strh	r2, [r3, #0]
200006d0:	2600      	movs	r6, #0
200006d2:	e00b      	b.n	200006ec <dcd_rp2040_irq+0xdc>
200006d4:	2310      	movs	r3, #16
200006d6:	431c      	orrs	r4, r3
200006d8:	f7ff ff48 	bl	2000056c <hw_handle_buff_status>
200006dc:	e7f0      	b.n	200006c0 <dcd_rp2040_irq+0xb0>
200006de:	ab01      	add	r3, sp, #4
200006e0:	5d98      	ldrb	r0, [r3, r6]
200006e2:	f000 fae9 	bl	20000cb8 <__hw_endpoint_get_by_addr_veneer>
200006e6:	2301      	movs	r3, #1
200006e8:	70c3      	strb	r3, [r0, #3]
200006ea:	3601      	adds	r6, #1
200006ec:	2e01      	cmp	r6, #1
200006ee:	d9f6      	bls.n	200006de <dcd_rp2040_irq+0xce>
200006f0:	ae01      	add	r6, sp, #4
200006f2:	220c      	movs	r2, #12
200006f4:	2100      	movs	r1, #0
200006f6:	0030      	movs	r0, r6
200006f8:	f000 fafe 	bl	20000cf8 <____wrap_memset_veneer>
200006fc:	2306      	movs	r3, #6
200006fe:	7073      	strb	r3, [r6, #1]
20000700:	4a34      	ldr	r2, [pc, #208]	; (200007d4 <dcd_rp2040_irq+0x1c4>)
20000702:	ab02      	add	r3, sp, #8
20000704:	ca03      	ldmia	r2!, {r0, r1}
20000706:	c303      	stmia	r3!, {r0, r1}
20000708:	2101      	movs	r1, #1
2000070a:	0030      	movs	r0, r6
2000070c:	f000 f9be 	bl	20000a8c <dcd_event_handler>
20000710:	4b2e      	ldr	r3, [pc, #184]	; (200007cc <dcd_rp2040_irq+0x1bc>)
20000712:	2280      	movs	r2, #128	; 0x80
20000714:	0292      	lsls	r2, r2, #10
20000716:	651a      	str	r2, [r3, #80]	; 0x50
20000718:	04eb      	lsls	r3, r5, #19
2000071a:	d407      	bmi.n	2000072c <dcd_rp2040_irq+0x11c>
2000071c:	046b      	lsls	r3, r5, #17
2000071e:	d41e      	bmi.n	2000075e <dcd_rp2040_irq+0x14e>
20000720:	042b      	lsls	r3, r5, #16
20000722:	d42f      	bmi.n	20000784 <dcd_rp2040_irq+0x174>
20000724:	42ac      	cmp	r4, r5
20000726:	d141      	bne.n	200007ac <dcd_rp2040_irq+0x19c>
20000728:	b005      	add	sp, #20
2000072a:	bdf0      	pop	{r4, r5, r6, r7, pc}
2000072c:	2380      	movs	r3, #128	; 0x80
2000072e:	015b      	lsls	r3, r3, #5
20000730:	431c      	orrs	r4, r3
20000732:	4b21      	ldr	r3, [pc, #132]	; (200007b8 <dcd_rp2040_irq+0x1a8>)
20000734:	2200      	movs	r2, #0
20000736:	601a      	str	r2, [r3, #0]
20000738:	f7ff fef8 	bl	2000052c <reset_non_control_endpoints>
2000073c:	ae01      	add	r6, sp, #4
2000073e:	220c      	movs	r2, #12
20000740:	2100      	movs	r1, #0
20000742:	0030      	movs	r0, r6
20000744:	f000 fad8 	bl	20000cf8 <____wrap_memset_veneer>
20000748:	2301      	movs	r3, #1
2000074a:	7073      	strb	r3, [r6, #1]
2000074c:	2101      	movs	r1, #1
2000074e:	0030      	movs	r0, r6
20000750:	f000 f99c 	bl	20000a8c <dcd_event_handler>
20000754:	4b1d      	ldr	r3, [pc, #116]	; (200007cc <dcd_rp2040_irq+0x1bc>)
20000756:	2280      	movs	r2, #128	; 0x80
20000758:	0312      	lsls	r2, r2, #12
2000075a:	651a      	str	r2, [r3, #80]	; 0x50
2000075c:	e7de      	b.n	2000071c <dcd_rp2040_irq+0x10c>
2000075e:	2380      	movs	r3, #128	; 0x80
20000760:	01db      	lsls	r3, r3, #7
20000762:	431c      	orrs	r4, r3
20000764:	ae01      	add	r6, sp, #4
20000766:	220c      	movs	r2, #12
20000768:	2100      	movs	r1, #0
2000076a:	0030      	movs	r0, r6
2000076c:	f000 fac4 	bl	20000cf8 <____wrap_memset_veneer>
20000770:	2304      	movs	r3, #4
20000772:	7073      	strb	r3, [r6, #1]
20000774:	2101      	movs	r1, #1
20000776:	0030      	movs	r0, r6
20000778:	f000 f988 	bl	20000a8c <dcd_event_handler>
2000077c:	4b13      	ldr	r3, [pc, #76]	; (200007cc <dcd_rp2040_irq+0x1bc>)
2000077e:	2210      	movs	r2, #16
20000780:	651a      	str	r2, [r3, #80]	; 0x50
20000782:	e7cd      	b.n	20000720 <dcd_rp2040_irq+0x110>
20000784:	2380      	movs	r3, #128	; 0x80
20000786:	021b      	lsls	r3, r3, #8
20000788:	431c      	orrs	r4, r3
2000078a:	ae01      	add	r6, sp, #4
2000078c:	220c      	movs	r2, #12
2000078e:	2100      	movs	r1, #0
20000790:	0030      	movs	r0, r6
20000792:	f000 fab1 	bl	20000cf8 <____wrap_memset_veneer>
20000796:	2305      	movs	r3, #5
20000798:	7073      	strb	r3, [r6, #1]
2000079a:	2101      	movs	r1, #1
2000079c:	0030      	movs	r0, r6
2000079e:	f000 f975 	bl	20000a8c <dcd_event_handler>
200007a2:	4b0a      	ldr	r3, [pc, #40]	; (200007cc <dcd_rp2040_irq+0x1bc>)
200007a4:	2280      	movs	r2, #128	; 0x80
200007a6:	0112      	lsls	r2, r2, #4
200007a8:	651a      	str	r2, [r3, #80]	; 0x50
200007aa:	e7bb      	b.n	20000724 <dcd_rp2040_irq+0x114>
200007ac:	0021      	movs	r1, r4
200007ae:	4069      	eors	r1, r5
200007b0:	4809      	ldr	r0, [pc, #36]	; (200007d8 <dcd_rp2040_irq+0x1c8>)
200007b2:	f000 fa91 	bl	20000cd8 <__panic_veneer>
200007b6:	46c0      	nop			; (mov r8, r8)
200007b8:	50110000 	.word	0x50110000
200007bc:	40054000 	.word	0x40054000
200007c0:	200020ac 	.word	0x200020ac
200007c4:	200020d0 	.word	0x200020d0
200007c8:	20002732 	.word	0x20002732
200007cc:	50113000 	.word	0x50113000
200007d0:	ffff8000 	.word	0xffff8000
200007d4:	50100000 	.word	0x50100000
200007d8:	1000ba88 	.word	0x1000ba88

200007dc <e15_is_bulkin_ep>:
200007dc:	4b09      	ldr	r3, [pc, #36]	; (20000804 <e15_is_bulkin_ep+0x28>)
200007de:	6c1b      	ldr	r3, [r3, #64]	; 0x40
200007e0:	079b      	lsls	r3, r3, #30
200007e2:	d40c      	bmi.n	200007fe <e15_is_bulkin_ep+0x22>
200007e4:	7883      	ldrb	r3, [r0, #2]
200007e6:	09db      	lsrs	r3, r3, #7
200007e8:	2b01      	cmp	r3, #1
200007ea:	d001      	beq.n	200007f0 <e15_is_bulkin_ep+0x14>
200007ec:	2000      	movs	r0, #0
200007ee:	e007      	b.n	20000800 <e15_is_bulkin_ep+0x24>
200007f0:	7ec3      	ldrb	r3, [r0, #27]
200007f2:	2b02      	cmp	r3, #2
200007f4:	d001      	beq.n	200007fa <e15_is_bulkin_ep+0x1e>
200007f6:	2000      	movs	r0, #0
200007f8:	e002      	b.n	20000800 <e15_is_bulkin_ep+0x24>
200007fa:	2001      	movs	r0, #1
200007fc:	e000      	b.n	20000800 <e15_is_bulkin_ep+0x24>
200007fe:	2000      	movs	r0, #0
20000800:	4770      	bx	lr
20000802:	46c0      	nop			; (mov r8, r8)
20000804:	50110000 	.word	0x50110000

20000808 <e15_is_critical_frame_period>:
20000808:	b510      	push	{r4, lr}
2000080a:	f7ff ffe7 	bl	200007dc <e15_is_bulkin_ep>
2000080e:	2800      	cmp	r0, #0
20000810:	d009      	beq.n	20000826 <e15_is_critical_frame_period+0x1e>
20000812:	4b06      	ldr	r3, [pc, #24]	; (2000082c <e15_is_critical_frame_period+0x24>)
20000814:	6a9b      	ldr	r3, [r3, #40]	; 0x28
20000816:	4a06      	ldr	r2, [pc, #24]	; (20000830 <e15_is_critical_frame_period+0x28>)
20000818:	6812      	ldr	r2, [r2, #0]
2000081a:	1a9b      	subs	r3, r3, r2
2000081c:	4a05      	ldr	r2, [pc, #20]	; (20000834 <e15_is_critical_frame_period+0x2c>)
2000081e:	4694      	mov	ip, r2
20000820:	4463      	add	r3, ip
20000822:	2bc6      	cmp	r3, #198	; 0xc6
20000824:	d800      	bhi.n	20000828 <e15_is_critical_frame_period+0x20>
20000826:	bd10      	pop	{r4, pc}
20000828:	2000      	movs	r0, #0
2000082a:	e7fc      	b.n	20000826 <e15_is_critical_frame_period+0x1e>
2000082c:	40054000 	.word	0x40054000
20000830:	200020ac 	.word	0x200020ac
20000834:	fffffce0 	.word	0xfffffce0

20000838 <prepare_ep_buffer>:
20000838:	b5f8      	push	{r3, r4, r5, r6, r7, lr}
2000083a:	0004      	movs	r4, r0
2000083c:	000f      	movs	r7, r1
2000083e:	8a83      	ldrh	r3, [r0, #20]
20000840:	8b02      	ldrh	r2, [r0, #24]
20000842:	1c1e      	adds	r6, r3, #0
20000844:	4293      	cmp	r3, r2
20000846:	d900      	bls.n	2000084a <prepare_ep_buffer+0x12>
20000848:	1c16      	adds	r6, r2, #0
2000084a:	b2b6      	uxth	r6, r6
2000084c:	1b9b      	subs	r3, r3, r6
2000084e:	82a3      	strh	r3, [r4, #20]
20000850:	2580      	movs	r5, #128	; 0x80
20000852:	00ed      	lsls	r5, r5, #3
20000854:	4335      	orrs	r5, r6
20000856:	78e3      	ldrb	r3, [r4, #3]
20000858:	2b00      	cmp	r3, #0
2000085a:	d013      	beq.n	20000884 <prepare_ep_buffer+0x4c>
2000085c:	2280      	movs	r2, #128	; 0x80
2000085e:	0192      	lsls	r2, r2, #6
20000860:	4315      	orrs	r5, r2
20000862:	2201      	movs	r2, #1
20000864:	4053      	eors	r3, r2
20000866:	70e3      	strb	r3, [r4, #3]
20000868:	7863      	ldrb	r3, [r4, #1]
2000086a:	2b00      	cmp	r3, #0
2000086c:	d00c      	beq.n	20000888 <prepare_ep_buffer+0x50>
2000086e:	8aa3      	ldrh	r3, [r4, #20]
20000870:	2b00      	cmp	r3, #0
20000872:	d102      	bne.n	2000087a <prepare_ep_buffer+0x42>
20000874:	2380      	movs	r3, #128	; 0x80
20000876:	01db      	lsls	r3, r3, #7
20000878:	431d      	orrs	r5, r3
2000087a:	2f00      	cmp	r7, #0
2000087c:	d000      	beq.n	20000880 <prepare_ep_buffer+0x48>
2000087e:	042d      	lsls	r5, r5, #16
20000880:	0028      	movs	r0, r5
20000882:	bdf8      	pop	{r3, r4, r5, r6, r7, pc}
20000884:	2200      	movs	r2, #0
20000886:	e7eb      	b.n	20000860 <prepare_ep_buffer+0x28>
20000888:	01b8      	lsls	r0, r7, #6
2000088a:	68e3      	ldr	r3, [r4, #12]
2000088c:	469c      	mov	ip, r3
2000088e:	4460      	add	r0, ip
20000890:	0032      	movs	r2, r6
20000892:	6921      	ldr	r1, [r4, #16]
20000894:	f000 fa28 	bl	20000ce8 <____wrap_memcpy_veneer>
20000898:	6923      	ldr	r3, [r4, #16]
2000089a:	469c      	mov	ip, r3
2000089c:	4466      	add	r6, ip
2000089e:	6126      	str	r6, [r4, #16]
200008a0:	2380      	movs	r3, #128	; 0x80
200008a2:	021b      	lsls	r3, r3, #8
200008a4:	431d      	orrs	r5, r3
200008a6:	e7e2      	b.n	2000086e <prepare_ep_buffer+0x36>

200008a8 <sync_ep_buffer>:
200008a8:	b570      	push	{r4, r5, r6, lr}
200008aa:	0004      	movs	r4, r0
200008ac:	6883      	ldr	r3, [r0, #8]
200008ae:	681b      	ldr	r3, [r3, #0]
200008b0:	2900      	cmp	r1, #0
200008b2:	d000      	beq.n	200008b6 <sync_ep_buffer+0xe>
200008b4:	0c1b      	lsrs	r3, r3, #16
200008b6:	059d      	lsls	r5, r3, #22
200008b8:	0dad      	lsrs	r5, r5, #22
200008ba:	7862      	ldrb	r2, [r4, #1]
200008bc:	2a00      	cmp	r2, #0
200008be:	d112      	bne.n	200008e6 <sync_ep_buffer+0x3e>
200008c0:	041b      	lsls	r3, r3, #16
200008c2:	d409      	bmi.n	200008d8 <sync_ep_buffer+0x30>
200008c4:	8ae3      	ldrh	r3, [r4, #22]
200008c6:	195b      	adds	r3, r3, r5
200008c8:	82e3      	strh	r3, [r4, #22]
200008ca:	8b23      	ldrh	r3, [r4, #24]
200008cc:	42ab      	cmp	r3, r5
200008ce:	d901      	bls.n	200008d4 <sync_ep_buffer+0x2c>
200008d0:	2300      	movs	r3, #0
200008d2:	82a3      	strh	r3, [r4, #20]
200008d4:	0028      	movs	r0, r5
200008d6:	bd70      	pop	{r4, r5, r6, pc}
200008d8:	2181      	movs	r1, #129	; 0x81
200008da:	4b0f      	ldr	r3, [pc, #60]	; (20000918 <sync_ep_buffer+0x70>)
200008dc:	4a0f      	ldr	r2, [pc, #60]	; (2000091c <sync_ep_buffer+0x74>)
200008de:	0049      	lsls	r1, r1, #1
200008e0:	480f      	ldr	r0, [pc, #60]	; (20000920 <sync_ep_buffer+0x78>)
200008e2:	f000 f9d9 	bl	20000c98 <____assert_func_veneer>
200008e6:	041b      	lsls	r3, r3, #16
200008e8:	d50e      	bpl.n	20000908 <sync_ep_buffer+0x60>
200008ea:	0189      	lsls	r1, r1, #6
200008ec:	68e3      	ldr	r3, [r4, #12]
200008ee:	469c      	mov	ip, r3
200008f0:	4461      	add	r1, ip
200008f2:	002a      	movs	r2, r5
200008f4:	6920      	ldr	r0, [r4, #16]
200008f6:	f000 f9f7 	bl	20000ce8 <____wrap_memcpy_veneer>
200008fa:	8ae3      	ldrh	r3, [r4, #22]
200008fc:	195b      	adds	r3, r3, r5
200008fe:	82e3      	strh	r3, [r4, #22]
20000900:	6923      	ldr	r3, [r4, #16]
20000902:	195b      	adds	r3, r3, r5
20000904:	6123      	str	r3, [r4, #16]
20000906:	e7e0      	b.n	200008ca <sync_ep_buffer+0x22>
20000908:	210a      	movs	r1, #10
2000090a:	4b06      	ldr	r3, [pc, #24]	; (20000924 <sync_ep_buffer+0x7c>)
2000090c:	4a03      	ldr	r2, [pc, #12]	; (2000091c <sync_ep_buffer+0x74>)
2000090e:	31ff      	adds	r1, #255	; 0xff
20000910:	4803      	ldr	r0, [pc, #12]	; (20000920 <sync_ep_buffer+0x78>)
20000912:	f000 f9c1 	bl	20000c98 <____assert_func_veneer>
20000916:	46c0      	nop			; (mov r8, r8)
20000918:	1000bb1c 	.word	0x1000bb1c
2000091c:	1000bc20 	.word	0x1000bc20
20000920:	1000bb3c 	.word	0x1000bb3c
20000924:	1000bbac 	.word	0x1000bbac

20000928 <_hw_endpoint_xfer_sync>:
20000928:	b510      	push	{r4, lr}
2000092a:	0004      	movs	r4, r0
2000092c:	6883      	ldr	r3, [r0, #8]
2000092e:	681b      	ldr	r3, [r3, #0]
20000930:	2100      	movs	r1, #0
20000932:	f7ff ffb9 	bl	200008a8 <sync_ep_buffer>
20000936:	6863      	ldr	r3, [r4, #4]
20000938:	681b      	ldr	r3, [r3, #0]
2000093a:	005b      	lsls	r3, r3, #1
2000093c:	d502      	bpl.n	20000944 <_hw_endpoint_xfer_sync+0x1c>
2000093e:	8b23      	ldrh	r3, [r4, #24]
20000940:	4283      	cmp	r3, r0
20000942:	d000      	beq.n	20000946 <_hw_endpoint_xfer_sync+0x1e>
20000944:	bd10      	pop	{r4, pc}
20000946:	2101      	movs	r1, #1
20000948:	0020      	movs	r0, r4
2000094a:	f7ff ffad 	bl	200008a8 <sync_ep_buffer>
2000094e:	e7f9      	b.n	20000944 <_hw_endpoint_xfer_sync+0x1c>

20000950 <hw_endpoint_reset_transfer>:
20000950:	2300      	movs	r3, #0
20000952:	7683      	strb	r3, [r0, #26]
20000954:	8283      	strh	r3, [r0, #20]
20000956:	82c3      	strh	r3, [r0, #22]
20000958:	6103      	str	r3, [r0, #16]
2000095a:	4770      	bx	lr

2000095c <_hw_endpoint_buffer_control_update32>:
2000095c:	b510      	push	{r4, lr}
2000095e:	2900      	cmp	r1, #0
20000960:	d002      	beq.n	20000968 <_hw_endpoint_buffer_control_update32+0xc>
20000962:	6883      	ldr	r3, [r0, #8]
20000964:	681b      	ldr	r3, [r3, #0]
20000966:	4019      	ands	r1, r3
20000968:	2a00      	cmp	r2, #0
2000096a:	d00f      	beq.n	2000098c <_hw_endpoint_buffer_control_update32+0x30>
2000096c:	4311      	orrs	r1, r2
2000096e:	0553      	lsls	r3, r2, #21
20000970:	d50c      	bpl.n	2000098c <_hw_endpoint_buffer_control_update32+0x30>
20000972:	6882      	ldr	r2, [r0, #8]
20000974:	6813      	ldr	r3, [r2, #0]
20000976:	055b      	lsls	r3, r3, #21
20000978:	d40b      	bmi.n	20000992 <_hw_endpoint_buffer_control_update32+0x36>
2000097a:	4b0b      	ldr	r3, [pc, #44]	; (200009a8 <_hw_endpoint_buffer_control_update32+0x4c>)
2000097c:	400b      	ands	r3, r1
2000097e:	6013      	str	r3, [r2, #0]
20000980:	e7ff      	b.n	20000982 <_hw_endpoint_buffer_control_update32+0x26>
20000982:	e7ff      	b.n	20000984 <_hw_endpoint_buffer_control_update32+0x28>
20000984:	e7ff      	b.n	20000986 <_hw_endpoint_buffer_control_update32+0x2a>
20000986:	e7ff      	b.n	20000988 <_hw_endpoint_buffer_control_update32+0x2c>
20000988:	e7ff      	b.n	2000098a <_hw_endpoint_buffer_control_update32+0x2e>
2000098a:	e7ff      	b.n	2000098c <_hw_endpoint_buffer_control_update32+0x30>
2000098c:	6883      	ldr	r3, [r0, #8]
2000098e:	6019      	str	r1, [r3, #0]
20000990:	bd10      	pop	{r4, pc}
20000992:	7883      	ldrb	r3, [r0, #2]
20000994:	217f      	movs	r1, #127	; 0x7f
20000996:	4019      	ands	r1, r3
20000998:	09db      	lsrs	r3, r3, #7
2000099a:	009b      	lsls	r3, r3, #2
2000099c:	4a03      	ldr	r2, [pc, #12]	; (200009ac <_hw_endpoint_buffer_control_update32+0x50>)
2000099e:	589a      	ldr	r2, [r3, r2]
200009a0:	4803      	ldr	r0, [pc, #12]	; (200009b0 <_hw_endpoint_buffer_control_update32+0x54>)
200009a2:	f000 f999 	bl	20000cd8 <__panic_veneer>
200009a6:	46c0      	nop			; (mov r8, r8)
200009a8:	fffffbff 	.word	0xfffffbff
200009ac:	20000ec0 	.word	0x20000ec0
200009b0:	1000bbcc 	.word	0x1000bbcc

200009b4 <hw_endpoint_start_next_buffer>:
200009b4:	b570      	push	{r4, r5, r6, lr}
200009b6:	0004      	movs	r4, r0
200009b8:	6843      	ldr	r3, [r0, #4]
200009ba:	681e      	ldr	r6, [r3, #0]
200009bc:	2100      	movs	r1, #0
200009be:	f7ff ff3b 	bl	20000838 <prepare_ep_buffer>
200009c2:	2580      	movs	r5, #128	; 0x80
200009c4:	016d      	lsls	r5, r5, #5
200009c6:	4305      	orrs	r5, r0
200009c8:	4b19      	ldr	r3, [pc, #100]	; (20000a30 <hw_endpoint_start_next_buffer+0x7c>)
200009ca:	6c1b      	ldr	r3, [r3, #64]	; 0x40
200009cc:	2202      	movs	r2, #2
200009ce:	0011      	movs	r1, r2
200009d0:	4019      	ands	r1, r3
200009d2:	421a      	tst	r2, r3
200009d4:	d102      	bne.n	200009dc <hw_endpoint_start_next_buffer+0x28>
200009d6:	78a3      	ldrb	r3, [r4, #2]
200009d8:	09db      	lsrs	r3, r3, #7
200009da:	d006      	beq.n	200009ea <hw_endpoint_start_next_buffer+0x36>
200009dc:	2900      	cmp	r1, #0
200009de:	d006      	beq.n	200009ee <hw_endpoint_start_next_buffer+0x3a>
200009e0:	78a3      	ldrb	r3, [r4, #2]
200009e2:	065b      	lsls	r3, r3, #25
200009e4:	d116      	bne.n	20000a14 <hw_endpoint_start_next_buffer+0x60>
200009e6:	2300      	movs	r3, #0
200009e8:	e002      	b.n	200009f0 <hw_endpoint_start_next_buffer+0x3c>
200009ea:	2301      	movs	r3, #1
200009ec:	e000      	b.n	200009f0 <hw_endpoint_start_next_buffer+0x3c>
200009ee:	2300      	movs	r3, #0
200009f0:	8aa2      	ldrh	r2, [r4, #20]
200009f2:	2a00      	cmp	r2, #0
200009f4:	d001      	beq.n	200009fa <hw_endpoint_start_next_buffer+0x46>
200009f6:	2b00      	cmp	r3, #0
200009f8:	d00e      	beq.n	20000a18 <hw_endpoint_start_next_buffer+0x64>
200009fa:	4b0e      	ldr	r3, [pc, #56]	; (20000a34 <hw_endpoint_start_next_buffer+0x80>)
200009fc:	401e      	ands	r6, r3
200009fe:	2380      	movs	r3, #128	; 0x80
20000a00:	059b      	lsls	r3, r3, #22
20000a02:	4333      	orrs	r3, r6
20000a04:	6862      	ldr	r2, [r4, #4]
20000a06:	6013      	str	r3, [r2, #0]
20000a08:	002a      	movs	r2, r5
20000a0a:	2100      	movs	r1, #0
20000a0c:	0020      	movs	r0, r4
20000a0e:	f7ff ffa5 	bl	2000095c <_hw_endpoint_buffer_control_update32>
20000a12:	bd70      	pop	{r4, r5, r6, pc}
20000a14:	2301      	movs	r3, #1
20000a16:	e7eb      	b.n	200009f0 <hw_endpoint_start_next_buffer+0x3c>
20000a18:	2101      	movs	r1, #1
20000a1a:	0020      	movs	r0, r4
20000a1c:	f7ff ff0c 	bl	20000838 <prepare_ep_buffer>
20000a20:	4305      	orrs	r5, r0
20000a22:	4b05      	ldr	r3, [pc, #20]	; (20000a38 <hw_endpoint_start_next_buffer+0x84>)
20000a24:	401e      	ands	r6, r3
20000a26:	23a0      	movs	r3, #160	; 0xa0
20000a28:	05db      	lsls	r3, r3, #23
20000a2a:	4333      	orrs	r3, r6
20000a2c:	e7ea      	b.n	20000a04 <hw_endpoint_start_next_buffer+0x50>
20000a2e:	46c0      	nop			; (mov r8, r8)
20000a30:	50110000 	.word	0x50110000
20000a34:	afffffff 	.word	0xafffffff
20000a38:	dfffffff 	.word	0xdfffffff

20000a3c <hw_endpoint_xfer_continue>:
20000a3c:	b570      	push	{r4, r5, r6, lr}
20000a3e:	0004      	movs	r4, r0
20000a40:	7e85      	ldrb	r5, [r0, #26]
20000a42:	2d00      	cmp	r5, #0
20000a44:	d006      	beq.n	20000a54 <hw_endpoint_xfer_continue+0x18>
20000a46:	f7ff ff6f 	bl	20000928 <_hw_endpoint_xfer_sync>
20000a4a:	8aa3      	ldrh	r3, [r4, #20]
20000a4c:	2b00      	cmp	r3, #0
20000a4e:	d10b      	bne.n	20000a68 <hw_endpoint_xfer_continue+0x2c>
20000a50:	0028      	movs	r0, r5
20000a52:	bd70      	pop	{r4, r5, r6, pc}
20000a54:	7883      	ldrb	r3, [r0, #2]
20000a56:	217f      	movs	r1, #127	; 0x7f
20000a58:	4019      	ands	r1, r3
20000a5a:	09db      	lsrs	r3, r3, #7
20000a5c:	009b      	lsls	r3, r3, #2
20000a5e:	4a09      	ldr	r2, [pc, #36]	; (20000a84 <hw_endpoint_xfer_continue+0x48>)
20000a60:	589a      	ldr	r2, [r3, r2]
20000a62:	4809      	ldr	r0, [pc, #36]	; (20000a88 <hw_endpoint_xfer_continue+0x4c>)
20000a64:	f000 f938 	bl	20000cd8 <__panic_veneer>
20000a68:	0020      	movs	r0, r4
20000a6a:	f7ff fecd 	bl	20000808 <e15_is_critical_frame_period>
20000a6e:	1e05      	subs	r5, r0, #0
20000a70:	d003      	beq.n	20000a7a <hw_endpoint_xfer_continue+0x3e>
20000a72:	2301      	movs	r3, #1
20000a74:	7723      	strb	r3, [r4, #28]
20000a76:	2500      	movs	r5, #0
20000a78:	e7ea      	b.n	20000a50 <hw_endpoint_xfer_continue+0x14>
20000a7a:	0020      	movs	r0, r4
20000a7c:	f7ff ff9a 	bl	200009b4 <hw_endpoint_start_next_buffer>
20000a80:	e7e6      	b.n	20000a50 <hw_endpoint_xfer_continue+0x14>
20000a82:	46c0      	nop			; (mov r8, r8)
20000a84:	20000ec0 	.word	0x20000ec0
20000a88:	1000bbec 	.word	0x1000bbec

20000a8c <dcd_event_handler>:
20000a8c:	b530      	push	{r4, r5, lr}
20000a8e:	b085      	sub	sp, #20
20000a90:	0005      	movs	r5, r0
20000a92:	7843      	ldrb	r3, [r0, #1]
20000a94:	2b04      	cmp	r3, #4
20000a96:	d100      	bne.n	20000a9a <dcd_event_handler+0xe>
20000a98:	e059      	b.n	20000b4e <dcd_event_handler+0xc2>
20000a9a:	d806      	bhi.n	20000aaa <dcd_event_handler+0x1e>
20000a9c:	2b02      	cmp	r3, #2
20000a9e:	d02b      	beq.n	20000af8 <dcd_event_handler+0x6c>
20000aa0:	2b03      	cmp	r3, #3
20000aa2:	d000      	beq.n	20000aa6 <dcd_event_handler+0x1a>
20000aa4:	e0cc      	b.n	20000c40 <dcd_event_handler+0x1b4>
20000aa6:	2400      	movs	r4, #0
20000aa8:	e083      	b.n	20000bb2 <dcd_event_handler+0x126>
20000aaa:	2b05      	cmp	r3, #5
20000aac:	d000      	beq.n	20000ab0 <dcd_event_handler+0x24>
20000aae:	e0c7      	b.n	20000c40 <dcd_event_handler+0x1b4>
20000ab0:	4b71      	ldr	r3, [pc, #452]	; (20000c78 <dcd_event_handler+0x1ec>)
20000ab2:	781b      	ldrb	r3, [r3, #0]
20000ab4:	07db      	lsls	r3, r3, #31
20000ab6:	d548      	bpl.n	20000b4a <dcd_event_handler+0xbe>
20000ab8:	4a6f      	ldr	r2, [pc, #444]	; (20000c78 <dcd_event_handler+0x1ec>)
20000aba:	7813      	ldrb	r3, [r2, #0]
20000abc:	2104      	movs	r1, #4
20000abe:	438b      	bics	r3, r1
20000ac0:	7013      	strb	r3, [r2, #0]
20000ac2:	4b6e      	ldr	r3, [pc, #440]	; (20000c7c <dcd_event_handler+0x1f0>)
20000ac4:	681c      	ldr	r4, [r3, #0]
20000ac6:	0021      	movs	r1, r4
20000ac8:	3114      	adds	r1, #20
20000aca:	6962      	ldr	r2, [r4, #20]
20000acc:	f3ef 8010 	mrs	r0, PRIMASK
20000ad0:	b672      	cpsid	i
20000ad2:	6813      	ldr	r3, [r2, #0]
20000ad4:	2b00      	cmp	r3, #0
20000ad6:	d0fc      	beq.n	20000ad2 <dcd_event_handler+0x46>
20000ad8:	f3bf 8f5f 	dmb	sy
20000adc:	6048      	str	r0, [r1, #4]
20000ade:	0029      	movs	r1, r5
20000ae0:	0020      	movs	r0, r4
20000ae2:	f000 f8f1 	bl	20000cc8 <__tu_fifo_write_veneer>
20000ae6:	6962      	ldr	r2, [r4, #20]
20000ae8:	69a3      	ldr	r3, [r4, #24]
20000aea:	f3bf 8f5f 	dmb	sy
20000aee:	2100      	movs	r1, #0
20000af0:	6011      	str	r1, [r2, #0]
20000af2:	f383 8810 	msr	PRIMASK, r3
20000af6:	e028      	b.n	20000b4a <dcd_event_handler+0xbe>
20000af8:	4b5f      	ldr	r3, [pc, #380]	; (20000c78 <dcd_event_handler+0x1ec>)
20000afa:	781a      	ldrb	r2, [r3, #0]
20000afc:	2101      	movs	r1, #1
20000afe:	438a      	bics	r2, r1
20000b00:	701a      	strb	r2, [r3, #0]
20000b02:	781a      	ldrb	r2, [r3, #0]
20000b04:	3101      	adds	r1, #1
20000b06:	438a      	bics	r2, r1
20000b08:	701a      	strb	r2, [r3, #0]
20000b0a:	2200      	movs	r2, #0
20000b0c:	705a      	strb	r2, [r3, #1]
20000b0e:	781a      	ldrb	r2, [r3, #0]
20000b10:	3102      	adds	r1, #2
20000b12:	438a      	bics	r2, r1
20000b14:	701a      	strb	r2, [r3, #0]
20000b16:	4b59      	ldr	r3, [pc, #356]	; (20000c7c <dcd_event_handler+0x1f0>)
20000b18:	681c      	ldr	r4, [r3, #0]
20000b1a:	0021      	movs	r1, r4
20000b1c:	3114      	adds	r1, #20
20000b1e:	6962      	ldr	r2, [r4, #20]
20000b20:	f3ef 8010 	mrs	r0, PRIMASK
20000b24:	b672      	cpsid	i
20000b26:	6813      	ldr	r3, [r2, #0]
20000b28:	2b00      	cmp	r3, #0
20000b2a:	d0fc      	beq.n	20000b26 <dcd_event_handler+0x9a>
20000b2c:	f3bf 8f5f 	dmb	sy
20000b30:	6048      	str	r0, [r1, #4]
20000b32:	0029      	movs	r1, r5
20000b34:	0020      	movs	r0, r4
20000b36:	f000 f8c7 	bl	20000cc8 <__tu_fifo_write_veneer>
20000b3a:	6962      	ldr	r2, [r4, #20]
20000b3c:	69a3      	ldr	r3, [r4, #24]
20000b3e:	f3bf 8f5f 	dmb	sy
20000b42:	2100      	movs	r1, #0
20000b44:	6011      	str	r1, [r2, #0]
20000b46:	f383 8810 	msr	PRIMASK, r3
20000b4a:	b005      	add	sp, #20
20000b4c:	bd30      	pop	{r4, r5, pc}
20000b4e:	4b4a      	ldr	r3, [pc, #296]	; (20000c78 <dcd_event_handler+0x1ec>)
20000b50:	781b      	ldrb	r3, [r3, #0]
20000b52:	07db      	lsls	r3, r3, #31
20000b54:	d5f9      	bpl.n	20000b4a <dcd_event_handler+0xbe>
20000b56:	4a48      	ldr	r2, [pc, #288]	; (20000c78 <dcd_event_handler+0x1ec>)
20000b58:	7813      	ldrb	r3, [r2, #0]
20000b5a:	2104      	movs	r1, #4
20000b5c:	430b      	orrs	r3, r1
20000b5e:	7013      	strb	r3, [r2, #0]
20000b60:	4b46      	ldr	r3, [pc, #280]	; (20000c7c <dcd_event_handler+0x1f0>)
20000b62:	681c      	ldr	r4, [r3, #0]
20000b64:	0021      	movs	r1, r4
20000b66:	3114      	adds	r1, #20
20000b68:	6962      	ldr	r2, [r4, #20]
20000b6a:	f3ef 8010 	mrs	r0, PRIMASK
20000b6e:	b672      	cpsid	i
20000b70:	6813      	ldr	r3, [r2, #0]
20000b72:	2b00      	cmp	r3, #0
20000b74:	d0fc      	beq.n	20000b70 <dcd_event_handler+0xe4>
20000b76:	f3bf 8f5f 	dmb	sy
20000b7a:	6048      	str	r0, [r1, #4]
20000b7c:	0029      	movs	r1, r5
20000b7e:	0020      	movs	r0, r4
20000b80:	f000 f8a2 	bl	20000cc8 <__tu_fifo_write_veneer>
20000b84:	6962      	ldr	r2, [r4, #20]
20000b86:	69a3      	ldr	r3, [r4, #24]
20000b88:	f3bf 8f5f 	dmb	sy
20000b8c:	2100      	movs	r1, #0
20000b8e:	6011      	str	r1, [r2, #0]
20000b90:	f383 8810 	msr	PRIMASK, r3
20000b94:	e7d9      	b.n	20000b4a <dcd_event_handler+0xbe>
20000b96:	0063      	lsls	r3, r4, #1
20000b98:	191b      	adds	r3, r3, r4
20000b9a:	00da      	lsls	r2, r3, #3
20000b9c:	4b38      	ldr	r3, [pc, #224]	; (20000c80 <dcd_event_handler+0x1f4>)
20000b9e:	681b      	ldr	r3, [r3, #0]
20000ba0:	189b      	adds	r3, r3, r2
20000ba2:	e019      	b.n	20000bd8 <dcd_event_handler+0x14c>
20000ba4:	0023      	movs	r3, r4
20000ba6:	e010      	b.n	20000bca <dcd_event_handler+0x13e>
20000ba8:	7828      	ldrb	r0, [r5, #0]
20000baa:	6869      	ldr	r1, [r5, #4]
20000bac:	4798      	blx	r3
20000bae:	3401      	adds	r4, #1
20000bb0:	b2e4      	uxtb	r4, r4
20000bb2:	4b34      	ldr	r3, [pc, #208]	; (20000c84 <dcd_event_handler+0x1f8>)
20000bb4:	781b      	ldrb	r3, [r3, #0]
20000bb6:	1c9a      	adds	r2, r3, #2
20000bb8:	42a2      	cmp	r2, r4
20000bba:	db13      	blt.n	20000be4 <dcd_event_handler+0x158>
20000bbc:	4a32      	ldr	r2, [pc, #200]	; (20000c88 <dcd_event_handler+0x1fc>)
20000bbe:	2a00      	cmp	r2, #0
20000bc0:	d0f0      	beq.n	20000ba4 <dcd_event_handler+0x118>
20000bc2:	42a3      	cmp	r3, r4
20000bc4:	d8e7      	bhi.n	20000b96 <dcd_event_handler+0x10a>
20000bc6:	1ae3      	subs	r3, r4, r3
20000bc8:	b2db      	uxtb	r3, r3
20000bca:	2b02      	cmp	r3, #2
20000bcc:	d8ef      	bhi.n	20000bae <dcd_event_handler+0x122>
20000bce:	005a      	lsls	r2, r3, #1
20000bd0:	18d2      	adds	r2, r2, r3
20000bd2:	00d2      	lsls	r2, r2, #3
20000bd4:	4b2d      	ldr	r3, [pc, #180]	; (20000c8c <dcd_event_handler+0x200>)
20000bd6:	189b      	adds	r3, r3, r2
20000bd8:	2b00      	cmp	r3, #0
20000bda:	d0e8      	beq.n	20000bae <dcd_event_handler+0x122>
20000bdc:	695b      	ldr	r3, [r3, #20]
20000bde:	2b00      	cmp	r3, #0
20000be0:	d1e2      	bne.n	20000ba8 <dcd_event_handler+0x11c>
20000be2:	e7e4      	b.n	20000bae <dcd_event_handler+0x122>
20000be4:	4b24      	ldr	r3, [pc, #144]	; (20000c78 <dcd_event_handler+0x1ec>)
20000be6:	781b      	ldrb	r3, [r3, #0]
20000be8:	075b      	lsls	r3, r3, #29
20000bea:	d5ae      	bpl.n	20000b4a <dcd_event_handler+0xbe>
20000bec:	4a22      	ldr	r2, [pc, #136]	; (20000c78 <dcd_event_handler+0x1ec>)
20000bee:	7813      	ldrb	r3, [r2, #0]
20000bf0:	2104      	movs	r1, #4
20000bf2:	438b      	bics	r3, r1
20000bf4:	7013      	strb	r3, [r2, #0]
20000bf6:	220c      	movs	r2, #12
20000bf8:	2100      	movs	r1, #0
20000bfa:	a801      	add	r0, sp, #4
20000bfc:	f000 f87c 	bl	20000cf8 <____wrap_memset_veneer>
20000c00:	782b      	ldrb	r3, [r5, #0]
20000c02:	466a      	mov	r2, sp
20000c04:	7113      	strb	r3, [r2, #4]
20000c06:	2305      	movs	r3, #5
20000c08:	7153      	strb	r3, [r2, #5]
20000c0a:	4b1c      	ldr	r3, [pc, #112]	; (20000c7c <dcd_event_handler+0x1f0>)
20000c0c:	681c      	ldr	r4, [r3, #0]
20000c0e:	0021      	movs	r1, r4
20000c10:	3114      	adds	r1, #20
20000c12:	6962      	ldr	r2, [r4, #20]
20000c14:	f3ef 8010 	mrs	r0, PRIMASK
20000c18:	b672      	cpsid	i
20000c1a:	6813      	ldr	r3, [r2, #0]
20000c1c:	2b00      	cmp	r3, #0
20000c1e:	d0fc      	beq.n	20000c1a <dcd_event_handler+0x18e>
20000c20:	f3bf 8f5f 	dmb	sy
20000c24:	6048      	str	r0, [r1, #4]
20000c26:	a901      	add	r1, sp, #4
20000c28:	0020      	movs	r0, r4
20000c2a:	f000 f84d 	bl	20000cc8 <__tu_fifo_write_veneer>
20000c2e:	6962      	ldr	r2, [r4, #20]
20000c30:	69a3      	ldr	r3, [r4, #24]
20000c32:	f3bf 8f5f 	dmb	sy
20000c36:	2100      	movs	r1, #0
20000c38:	6011      	str	r1, [r2, #0]
20000c3a:	f383 8810 	msr	PRIMASK, r3
20000c3e:	e784      	b.n	20000b4a <dcd_event_handler+0xbe>
20000c40:	4b0e      	ldr	r3, [pc, #56]	; (20000c7c <dcd_event_handler+0x1f0>)
20000c42:	681c      	ldr	r4, [r3, #0]
20000c44:	0021      	movs	r1, r4
20000c46:	3114      	adds	r1, #20
20000c48:	6962      	ldr	r2, [r4, #20]
20000c4a:	f3ef 8010 	mrs	r0, PRIMASK
20000c4e:	b672      	cpsid	i
20000c50:	6813      	ldr	r3, [r2, #0]
20000c52:	2b00      	cmp	r3, #0
20000c54:	d0fc      	beq.n	20000c50 <dcd_event_handler+0x1c4>
20000c56:	f3bf 8f5f 	dmb	sy
20000c5a:	6048      	str	r0, [r1, #4]
20000c5c:	0029      	movs	r1, r5
20000c5e:	0020      	movs	r0, r4
20000c60:	f000 f832 	bl	20000cc8 <__tu_fifo_write_veneer>
20000c64:	6962      	ldr	r2, [r4, #20]
20000c66:	69a3      	ldr	r3, [r4, #24]
20000c68:	f3bf 8f5f 	dmb	sy
20000c6c:	2100      	movs	r1, #0
20000c6e:	6011      	str	r1, [r2, #0]
20000c70:	f383 8810 	msr	PRIMASK, r3
20000c74:	e769      	b.n	20000b4a <dcd_event_handler+0xbe>
20000c76:	46c0      	nop			; (mov r8, r8)
20000c78:	200018e0 	.word	0x200018e0
20000c7c:	20001938 	.word	0x20001938
20000c80:	2000106c 	.word	0x2000106c
20000c84:	2000272c 	.word	0x2000272c
20000c88:	10000e95 	.word	0x10000e95
20000c8c:	1000bcbc 	.word	0x1000bcbc

20000c90 <__aeabi_idiv0>:
20000c90:	4770      	bx	lr
20000c92:	46c0      	nop			; (mov r8, r8)
20000c94:	0000      	movs	r0, r0
	...

20000c98 <____assert_func_veneer>:
20000c98:	b401      	push	{r0}
20000c9a:	4802      	ldr	r0, [pc, #8]	; (20000ca4 <____assert_func_veneer+0xc>)
20000c9c:	4684      	mov	ip, r0
20000c9e:	bc01      	pop	{r0}
20000ca0:	4760      	bx	ip
20000ca2:	bf00      	nop
20000ca4:	100046c5 	.word	0x100046c5

20000ca8 <____wrap___aeabi_lmul_veneer>:
20000ca8:	b401      	push	{r0}
20000caa:	4802      	ldr	r0, [pc, #8]	; (20000cb4 <____wrap___aeabi_lmul_veneer+0xc>)
20000cac:	4684      	mov	ip, r0
20000cae:	bc01      	pop	{r0}
20000cb0:	4760      	bx	ip
20000cb2:	bf00      	nop
20000cb4:	1000670d 	.word	0x1000670d

20000cb8 <__hw_endpoint_get_by_addr_veneer>:
20000cb8:	b401      	push	{r0}
20000cba:	4802      	ldr	r0, [pc, #8]	; (20000cc4 <__hw_endpoint_get_by_addr_veneer+0xc>)
20000cbc:	4684      	mov	ip, r0
20000cbe:	bc01      	pop	{r0}
20000cc0:	4760      	bx	ip
20000cc2:	bf00      	nop
20000cc4:	100072e5 	.word	0x100072e5

20000cc8 <__tu_fifo_write_veneer>:
20000cc8:	b401      	push	{r0}
20000cca:	4802      	ldr	r0, [pc, #8]	; (20000cd4 <__tu_fifo_write_veneer+0xc>)
20000ccc:	4684      	mov	ip, r0
20000cce:	bc01      	pop	{r0}
20000cd0:	4760      	bx	ip
20000cd2:	bf00      	nop
20000cd4:	100098dd 	.word	0x100098dd

20000cd8 <__panic_veneer>:
20000cd8:	b401      	push	{r0}
20000cda:	4802      	ldr	r0, [pc, #8]	; (20000ce4 <__panic_veneer+0xc>)
20000cdc:	4684      	mov	ip, r0
20000cde:	bc01      	pop	{r0}
20000ce0:	4760      	bx	ip
20000ce2:	bf00      	nop
20000ce4:	100047f9 	.word	0x100047f9

20000ce8 <____wrap_memcpy_veneer>:
20000ce8:	b401      	push	{r0}
20000cea:	4802      	ldr	r0, [pc, #8]	; (20000cf4 <____wrap_memcpy_veneer+0xc>)
20000cec:	4684      	mov	ip, r0
20000cee:	bc01      	pop	{r0}
20000cf0:	4760      	bx	ip
20000cf2:	bf00      	nop
20000cf4:	10006a69 	.word	0x10006a69

20000cf8 <____wrap_memset_veneer>:
20000cf8:	b401      	push	{r0}
20000cfa:	4802      	ldr	r0, [pc, #8]	; (20000d04 <____wrap_memset_veneer+0xc>)
20000cfc:	4684      	mov	ip, r0
20000cfe:	bc01      	pop	{r0}
20000d00:	4760      	bx	ip
20000d02:	bf00      	nop
20000d04:	10006a5d 	.word	0x10006a5d

20000d08 <__time_us_64_veneer>:
20000d08:	b401      	push	{r0}
20000d0a:	4802      	ldr	r0, [pc, #8]	; (20000d14 <__time_us_64_veneer+0xc>)
20000d0c:	4684      	mov	ip, r0
20000d0e:	bc01      	pop	{r0}
20000d10:	4760      	bx	ip
20000d12:	bf00      	nop
20000d14:	10003d1d 	.word	0x10003d1d

20000d18 <__best_effort_wfe_or_timeout_veneer>:
20000d18:	b401      	push	{r0}
20000d1a:	4802      	ldr	r0, [pc, #8]	; (20000d24 <__best_effort_wfe_or_timeout_veneer+0xc>)
20000d1c:	4684      	mov	ip, r0
20000d1e:	bc01      	pop	{r0}
20000d20:	4760      	bx	ip
20000d22:	bf00      	nop
20000d24:	10003bc9 	.word	0x10003bc9

20000d28 <_rgb_interval>:
20000d28:	0000411a                                .A..

20000d2c <steps.1>:
20000d2c:	00000015                                ....

20000d30 <_adapter_interval>:
20000d30:	00001f40                                @...

20000d34 <_adapter_loop_count>:
20000d34:	00000001                                ....

20000d38 <MS_Extended_Feature_Descriptor>:
20000d38:	00000092 00050100 00880001 00070000     ................
20000d48:	002a0000 00650044 00690076 00650063     ..*.D.e.v.i.c.e.
20000d58:	006e0049 00650074 00660072 00630061     I.n.t.e.r.f.a.c.
20000d68:	00470065 00490055 00730044 00500000     e.G.U.I.D.s...P.
20000d78:	007b0000 00450036 00350034 00330037     ..{.6.E.4.5.7.3.
20000d88:	00410036 0032002d 00310042 002d0042     6.A.-.2.B.1.B.-.
20000d98:	00300034 00380037 0042002d 00370037     4.0.7.8.-.B.7.7.
20000da8:	002d0032 00330042 00460041 00420032     2.-.B.3.A.F.2.B.
20000db8:	00460036 00450044 00430031 0000007d     6.F.D.E.1.C.}...
20000dc8:	00000000                                ....

20000dcc <MS_OS_10_CompatibleID_Descriptor>:
20000dcc:	00000028 00040100 00000001 00000000     (...............
20000ddc:	49570100 4253554e 00000000 00000000     ..WINUSB........
	...

20000df4 <__compound_literal.0>:
20000df4:	00000409                                ....

20000df8 <global_string_descriptor>:
20000df8:	20000df4 10009d60 10009d64 10009d70     ... `...d...p...
20000e08:	10009d74 10009d80 10009d8c 10009d98     t...............
20000e18:	10009da4                                ....

20000e1c <_switch_in_command_len>:
20000e1c:	00400040 00400040                       @.@.@.@.

20000e24 <_switch_reporting_mode>:
20000e24:	3f3f3f3f                                ????

20000e28 <out.0>:
20000e28:	                                         .

20000e29 <striped_spin_lock_num>:
20000e29:	                                         ...

20000e2c <irq_handler_chain_slots>:
20000e2c:	00000000 	.word	0x00000000
20000e30:	00010000 	.word	0x00010000
	...
20000e3c:	00020000 	.word	0x00020000
	...
20000e48:	00030000 	.word	0x00030000
	...
20000e54:	00ff0000 	.word	0x00ff0000
20000e58:	00000000 	.word	0x00000000

20000e5c <irq_handler_chain_first_slot>:
20000e5c:	b501      	push	{r0, lr}
20000e5e:	6848      	ldr	r0, [r1, #4]
20000e60:	3101      	adds	r1, #1
20000e62:	468e      	mov	lr, r1
20000e64:	4700      	bx	r0

20000e66 <irq_handler_chain_remove_tail>:
20000e66:	4670      	mov	r0, lr
20000e68:	3809      	subs	r0, #9
20000e6a:	4901      	ldr	r1, [pc, #4]	; (20000e70 <irq_handler_chain_remove_tail+0xa>)
20000e6c:	4788      	blx	r1
20000e6e:	bd01      	pop	{r0, pc}
20000e70:	10002fad 	.word	0x10002fad

20000e74 <default_alarm_pool>:
20000e74:	20000e8c 00000000 20000f30 20002068     ... ....0.. h . 
	...

20000e8c <default_alarm_pool_heap>:
20000e8c:	20002078 00000000 00000000 00000010     x . ............
20000e9c:	00000000                                ....

20000ea0 <aeabi_bits_funcs>:
20000ea0:	00003350 	.word	0x00003350
20000ea4:	0000334c 	.word	0x0000334c
20000ea8:	00003354 	.word	0x00003354
20000eac:	00003352 	.word	0x00003352

20000eb0 <aeabi_bits_funcs_end>:
20000eb0:	0000534d 	.word	0x0000534d
20000eb4:	0000434d 	.word	0x0000434d
20000eb8:	00003453 	.word	0x00003453
20000ebc:	00003443 	.word	0x00003443

20000ec0 <ep_dir_string>:
20000ec0:	1000bc18 1000bc1c                       ........

20000ec8 <_usbd_qdef>:
20000ec8:	2000193c 000c0010 00000000 00000000     <.. ............
	...

20000ee4 <_usbd_rhport>:
20000ee4:	000000ff                                ....

20000ee8 <malloc_mutex>:
	...

20000ef0 <print_mutex>:
	...

20000ef8 <__mutex_array_end>:
20000ef8:	10006a4d 	.word	0x10006a4d
20000efc:	10005969 	.word	0x10005969
20000f00:	10006081 	.word	0x10006081
20000f04:	100068d5 	.word	0x100068d5

20000f08 <__frame_dummy_init_array_entry>:
20000f08:	100002e5 1000727d                       ....}r..
